 Star

 Timestamp is 502736c0 (Sun Aug 12 12:53:20 2012)

 Preferred load address is 00400000

 Start         Length     Name                   Class
 0001:00000000 00167792H .text                   CODE
 0001:00167792 000018bcH .text$AFX_AUX           CODE
 0001:0016904e 0000102eH .text$AFX_CMNCTL        CODE
 0001:0016a080 000007ddH .text$AFX_COL1          CODE
 0001:0016a85d 00000682H .text$AFX_COL2          CODE
 0001:0016aedf 0000788eH .text$AFX_CORE1         CODE
 0001:0017276d 00003cb4H .text$AFX_CORE2         CODE
 0001:00176421 000055e3H .text$AFX_CORE3         CODE
 0001:0017ba04 000075fbH .text$AFX_CORE4         CODE
 0001:00182fff 00000000H .text$AFX_INET          CODE
 0001:00182fff 00003dd2H .text$AFX_INIT          CODE
 0001:00186dd1 0000064eH .text$AFX_OLE1          CODE
 0001:0018741f 00000222H .text$AFX_OLE2          CODE
 0001:00187641 00000524H .text$AFX_OLE3          CODE
 0001:00187b65 00000ba6H .text$AFX_OLE4          CODE
 0001:0018870b 0000183bH .text$AFX_OLE5          CODE
 0001:00189f46 00000c62H .text$AFX_PRNT          CODE
 0001:0018aba8 00000266H .text$AFX_TERM          CODE
 0001:0018ae10 00013849H .text$x                 CODE
 0002:00000000 00000aa0H .idata$5                DATA
 0002:00000aa0 00023708H .rdata                  DATA
 0002:000241a8 00002854H .rdata$r                DATA
 0002:00026a00 00019740H .xdata$x                DATA
 0002:00040140 00000168H .idata$2                DATA
 0002:000402a8 00000014H .idata$3                DATA
 0002:000402bc 00000aa0H .idata$4                DATA
 0002:00040d5c 00002a76H .idata$6                DATA
 0002:000437d2 00000000H .edata                  DATA
 0003:00000000 00000004H .CRT$XCA                DATA
 0003:00000004 0000002cH .CRT$XCC                DATA
 0003:00000030 00000020H .CRT$XCL                DATA
 0003:00000050 00000514H .CRT$XCU                DATA
 0003:00000564 00000004H .CRT$XCZ                DATA
 0003:00000568 00000004H .CRT$XIA                DATA
 0003:0000056c 0000000cH .CRT$XIC                DATA
 0003:00000578 00000004H .CRT$XIY                DATA
 0003:0000057c 00000004H .CRT$XIZ                DATA
 0003:00000580 00000004H .CRT$XPA                DATA
 0003:00000584 00000004H .CRT$XPX                DATA
 0003:00000588 00000004H .CRT$XPZ                DATA
 0003:0000058c 00000004H .CRT$XTA                DATA
 0003:00000590 00000004H .CRT$XTB                DATA
 0003:00000594 00000004H .CRT$XTZ                DATA
 0003:000005a0 000210eaH .data                   DATA
 0003:00021690 00008538H .bss                    DATA
 0004:00000000 00004dc0H .rsrc$01                DATA
 0004:00004dc0 000c4188H .rsrc$02                DATA

  Address         Publics by Value              Rva+Base     Lib:Object

 0001:00000000       ??0CAudio@@QAE@XZ          00401000 f   Audio.obj
 0001:00000163       ??1CAudio@@UAE@XZ          00401163 f   Audio.obj
 0001:000002ee       ?getRecordBuffer@CAudio@@QAEPAEPAK@Z 004012ee f   Audio.obj
 0001:0000035a       ?playBuffer@CAudio@@QAE_NPAEK@Z 0040135a f   Audio.obj
 0001:000003fa       ?InitializeWaveIn@CAudio@@AAE_NXZ 004013fa f   Audio.obj
 0001:00000531       ?InitializeWaveOut@CAudio@@AAE_NXZ 00401531 f   Audio.obj
 0001:0000063c       ?waveInCallBack@CAudio@@CGKPAX@Z 0040163c f   Audio.obj
 0001:000006f0       ??_ECAudio@@UAEPAXI@Z      004016f0 f i Audio.obj
 0001:000006f0       ??_GCAudio@@UAEPAXI@Z      004016f0 f i Audio.obj
 0001:00000720       ??0CAudioDlg@@QAE@PAVCWnd@@PAVCIOCPServer@@PAUClientContext@@@Z 00401720 f   AudioDlg.obj
 0001:00000873       ?DoDataExchange@CAudioDlg@@MAEXPAVCDataExchange@@@Z 00401873 f   AudioDlg.obj
 0001:000008bb       ?GetMessageMap@CAudioDlg@@MBEPBUAFX_MSGMAP@@XZ 004018bb f   AudioDlg.obj
 0001:000008cb       ?OnInitDialog@CAudioDlg@@MAEHXZ 004018cb f   AudioDlg.obj
 0001:000009e7       ?OnReceiveComplete@CAudioDlg@@QAEXXZ 004019e7 f   AudioDlg.obj
 0001:00000af3       ?OnReceive@CAudioDlg@@QAEXXZ 00401af3 f   AudioDlg.obj
 0001:00000afe       ?OnClose@CAudioDlg@@IAEXXZ 00401afe f   AudioDlg.obj
 0001:00000b3c       ?OnSendLocalaudio@CAudioDlg@@IAEXXZ 00401b3c f   AudioDlg.obj
 0001:00000b51       ?WorkThread@CAudioDlg@@CGKPAX@Z 00401b51 f   AudioDlg.obj
 0001:00000c80       ??_GCAudioDlg@@UAEPAXI@Z   00401c80 f i AudioDlg.obj
 0001:00000c80       ??_ECAudioDlg@@UAEPAXI@Z   00401c80 f i AudioDlg.obj
 0001:00000cb0       ??1CAudioDlg@@UAE@XZ       00401cb0 f i AudioDlg.obj
 0001:00000d40       ?Serialize@CObject@@UAEXAAVCArchive@@@Z 00401d40 f i AudioDlg.obj
 0001:00000d50       ??3CObject@@SGXPAX@Z       00401d50 f i AudioDlg.obj
 0001:00000d70       ??0CString@@QAE@XZ         00401d70 f i AudioDlg.obj
 0001:00000d90       ??BCString@@QBEPBDXZ       00401d90 f i AudioDlg.obj
 0001:00000da0       ?AfxGetInstanceHandle@@YGPAUHINSTANCE__@@XZ 00401da0 f i AudioDlg.obj
 0001:00000db0       ?SetIcon@CWnd@@QAEPAUHICON__@@PAU2@H@Z 00401db0 f i AudioDlg.obj
 0001:00000de0       ?OnClose@CWnd@@IAEXXZ      00401de0 f i AudioDlg.obj
 0001:00000e00       ?DoDataExchange@CWnd@@MAEXPAVCDataExchange@@@Z 00401e00 f i AudioDlg.obj
 0001:00000e10       ?BeginModalState@CWnd@@UAEXXZ 00401e10 f i AudioDlg.obj
 0001:00000e30       ?EndModalState@CWnd@@UAEXXZ 00401e30 f i AudioDlg.obj
 0001:00000e50       ?SetFlatStyle@CXTPButton@@QAEXH@Z 00401e50 f i AudioDlg.obj
 0001:00000e70       ?RedrawButton@CXTPButton@@QAEXH@Z 00401e70 f i AudioDlg.obj
 0001:00000eb0       ?UpdateWindow@CWnd@@QAEXXZ 00401eb0 f i AudioDlg.obj
 0001:00000ed0       ?Invalidate@CWnd@@QAEXH@Z  00401ed0 f i AudioDlg.obj
 0001:00000ef0       ??0COleDateTime@@QAE@HHHHHH@Z 00401ef0 f i AudioDlg.obj
 0001:00000f20       ??0CBmpToAvi@@QAE@XZ       00401f20 f   BmpToAvi.obj
 0001:00000f50       ??1CBmpToAvi@@UAE@XZ       00401f50 f   BmpToAvi.obj
 0001:00000f69       ?Open@CBmpToAvi@@QAE_NPBDPAUtagBITMAPINFO@@@Z 00401f69 f   BmpToAvi.obj
 0001:0000103e       ?Write@CBmpToAvi@@QAE_NPAX@Z 0040203e f   BmpToAvi.obj
 0001:000010a3       ?Close@CBmpToAvi@@QAEXXZ   004020a3 f   BmpToAvi.obj
 0001:000011a0       ??_ECBmpToAvi@@UAEPAXI@Z   004021a0 f i BmpToAvi.obj
 0001:000011a0       ??_GCBmpToAvi@@UAEPAXI@Z   004021a0 f i BmpToAvi.obj
 0001:000011d0       ??0CBuffer@@QAE@XZ         004021d0 f   Buffer.obj
 0001:00001205       ??1CBuffer@@UAE@XZ         00402205 f   Buffer.obj
 0001:00001236       ?Write@CBuffer@@QAEHPAEI@Z 00402236 f   Buffer.obj
 0001:00001282       ?Insert@CBuffer@@QAEHPAEI@Z 00402282 f   Buffer.obj
 0001:000012f3       ?Read@CBuffer@@QAEIPAEI@Z  004022f3 f   Buffer.obj
 0001:0000138e       ?GetMemSize@CBuffer@@IAEIXZ 0040238e f   Buffer.obj
 0001:0000139f       ?GetBufferLen@CBuffer@@QAEIXZ 0040239f f   Buffer.obj
 0001:000013cb       ?ReAllocateBuffer@CBuffer@@IAEII@Z 004023cb f   Buffer.obj
 0001:00001499       ?DeAllocateBuffer@CBuffer@@IAEII@Z 00402499 f   Buffer.obj
 0001:0000156f       ?Scan@CBuffer@@QAEHPAEI@Z  0040256f f   Buffer.obj
 0001:000015d5       ?ClearBuffer@CBuffer@@QAEXXZ 004025d5 f   Buffer.obj
 0001:000015f9       ?Write@CBuffer@@QAEHAAVCString@@@Z 004025f9 f   Buffer.obj
 0001:0000162c       ?Insert@CBuffer@@QAEHAAVCString@@@Z 0040262c f   Buffer.obj
 0001:0000165f       ?Copy@CBuffer@@QAEXAAV1@@Z 0040265f f   Buffer.obj
 0001:000016ca       ?GetBuffer@CBuffer@@QAEPAEI@Z 004026ca f   Buffer.obj
 0001:000016e0       ?FileWrite@CBuffer@@QAEXABVCString@@@Z 004026e0 f   Buffer.obj
 0001:00001768       ?Delete@CBuffer@@QAEII@Z   00402768 f   Buffer.obj
 0001:000018a0       ??_GCBuffer@@UAEPAXI@Z     004028a0 f i Buffer.obj
 0001:000018a0       ??_ECBuffer@@UAEPAXI@Z     004028a0 f i Buffer.obj
 0001:000018d0       ?GetLength@CString@@QBEHXZ 004028d0 f i Buffer.obj
 0001:000018f0       ?GetData@CString@@IBEPAUCStringData@@XZ 004028f0 f i Buffer.obj
 0001:00001910       ?base64_encode@@YAHPBXHPAPAD@Z 00402910 f   Build.obj
 0001:00001a7b       ?MyEncode@@YAPADPAD@Z      00402a7b f   Build.obj
 0001:00001b1f       ??0CBuild@@QAE@PAVCWnd@@@Z 00402b1f f   Build.obj
 0001:00001c85       ?DoDataExchange@CBuild@@MAEXPAVCDataExchange@@@Z 00402c85 f   Build.obj
 0001:00001d9f       ?GetMessageMap@CBuild@@MBEPBUAFX_MSGMAP@@XZ 00402d9f f   Build.obj
 0001:00001daf       ?OnInitDialog@CBuild@@MAEHXZ 00402daf f   Build.obj
 0001:00002568       ?MemFindStr@@YAHPBD0HH@Z   00403568 f   Build.obj
 0001:000025f3       ?OnBuild@CBuild@@IAEXXZ    004035f3 f   Build.obj
 0001:00003496       ?OnGreen@CBuild@@IAEXXZ    00404496 f   Build.obj
 0001:0000354f       ?OnSelchangeInstallWay@CBuild@@IAEXXZ 0040454f f   Build.obj
 0001:00003760       ??_GCBuild@@UAEPAXI@Z      00404760 f i Build.obj
 0001:00003760       ??_ECBuild@@UAEPAXI@Z      00404760 f i Build.obj
 0001:00003790       ??1CBuild@@UAE@XZ          00404790 f i Build.obj
 0001:00003870       ??1CFileDialog@@UAE@XZ     00404870 f i Build.obj
 0001:000038c0       ?ReadHuge@CFile@@QAEKPAXK@Z 004048c0 f i Build.obj
 0001:000038e0       ?IsEmpty@CString@@QBEHXZ   004048e0 f i Build.obj
 0001:00003900       ??8@YG_NABVCString@@PBD@Z  00404900 f i Build.obj
 0001:00003920       ?Compare@CString@@QBEHPBD@Z 00404920 f i Build.obj
 0001:00003940       __tcscmp                   00404940 f i Build.obj
 0001:00003960       ?AfxGetApp@@YGPAVCWinApp@@XZ 00404960 f i Build.obj
 0001:00003970       ??0CComboBox@@QAE@XZ       00404970 f i Build.obj
 0001:00003990       ??_ECComboBox@@UAEPAXI@Z   00404990 f i Build.obj
 0001:00003990       ??_GCComboBox@@UAEPAXI@Z   00404990 f i Build.obj
 0001:000039c0       ?GetCurSel@CComboBox@@QBEHXZ 004049c0 f i Build.obj
 0001:000039f0       ?SetCurSel@CComboBox@@QAEHH@Z 004049f0 f i Build.obj
 0001:00003a20       ?AddString@CComboBox@@QAEHPBD@Z 00404a20 f i Build.obj
 0001:00003a50       ??0CEdit@@QAE@XZ           00404a50 f i Build.obj
 0001:00003a70       ??_ECEdit@@UAEPAXI@Z       00404a70 f i Build.obj
 0001:00003a70       ??_GCEdit@@UAEPAXI@Z       00404a70 f i Build.obj
 0001:00003aa0       ?GetItemCount@CXTPTabManager@@QBEHXZ 00404aa0 f i Build.obj
 0001:00003ac0       ?GetSize@?$CArray@UstDropDownInfo@CTrueColorToolBar@@AAU12@@@QBEHXZ 00404ac0 f i Build.obj
 0001:00003ac0       ?GetSize@?$CArray@PAVCXTPTabManagerItem@@PAV1@@@QBEHXZ 00404ac0 f i Build.obj
 0001:00003ae0       ?GetItem@CXTPTabManager@@QBEPAVCXTPTabManagerItem@@H@Z 00404ae0 f i Build.obj
 0001:00003b20       ??A?$CArray@PAVCXTPTabManagerItem@@PAV1@@@QBEPAVCXTPTabManagerItem@@H@Z 00404b20 f i Build.obj
 0001:00003b40       ?GetAt@?$CArray@PAVCXTPTabManagerItem@@PAV1@@@QBEPAVCXTPTabManagerItem@@H@Z 00404b40 f i Build.obj
 0001:00003b60       ??0CChangeGroup@@QAE@PAVCWnd@@@Z 00404b60 f   ChangeGroup.obj
 0001:00003bd1       ?DoDataExchange@CChangeGroup@@MAEXPAVCDataExchange@@@Z 00404bd1 f   ChangeGroup.obj
 0001:00003bff       ?GetMessageMap@CChangeGroup@@MBEPBUAFX_MSGMAP@@XZ 00404bff f   ChangeGroup.obj
 0001:00003c0f       ?OnInitDialog@CChangeGroup@@MAEHXZ 00404c0f f   ChangeGroup.obj
 0001:00003d70       ?PreTranslateMessage@CChangeGroup@@UAEHPAUtagMSG@@@Z 00404d70 f   ChangeGroup.obj
 0001:00003dc3       ?OnOK@CChangeGroup@@MAEXXZ 00404dc3 f   ChangeGroup.obj
 0001:00004000       ??_ECChangeGroup@@UAEPAXI@Z 00405000 f i ChangeGroup.obj
 0001:00004000       ??_GCChangeGroup@@UAEPAXI@Z 00405000 f i ChangeGroup.obj
 0001:00004030       ??1CChangeGroup@@UAE@XZ    00405030 f i ChangeGroup.obj
 0001:00004090       ??8@YG_NABVCString@@0@Z    00405090 f i ChangeGroup.obj
 0001:000040b0       ?dbg_dump@@YAXPAU_EXCEPTION_POINTERS@@@Z 004050b0 f   Client.obj
 0001:00004196       ?bad_exception@@YGJPAU_EXCEPTION_POINTERS@@@Z 00405196 f   Client.obj
 0001:000041ae       ?GetMessageMap@CClientApp@@MBEPBUAFX_MSGMAP@@XZ 004051ae f   Client.obj
 0001:000041be       ??0CClientApp@@QAE@XZ      004051be f   Client.obj
 0001:0000436a       ?InitInstance@CClientApp@@UAEHXZ 0040536a f   Client.obj
 0001:0000468e       ??0CAboutDlg@@QAE@XZ       0040568e f   Client.obj
 0001:000046b1       ?DoDataExchange@CAboutDlg@@MAEXPAVCDataExchange@@@Z 004056b1 f   Client.obj
 0001:000046ca       ?GetMessageMap@CAboutDlg@@MBEPBUAFX_MSGMAP@@XZ 004056ca f   Client.obj
 0001:000046da       ?OnAppAbout@CClientApp@@QAEXXZ 004056da f   Client.obj
 0001:000047e0       ??_ECClientApp@@UAEPAXI@Z  004057e0 f i Client.obj
 0001:000047e0       ??_GCClientApp@@UAEPAXI@Z  004057e0 f i Client.obj
 0001:00004810       ??1CClientApp@@UAE@XZ      00405810 f i Client.obj
 0001:00004860       ??_ECAboutDlg@@UAEPAXI@Z   00405860 f i Client.obj
 0001:00004860       ??_GCAboutDlg@@UAEPAXI@Z   00405860 f i Client.obj
 0001:00004890       ??1CAboutDlg@@UAE@XZ       00405890 f i Client.obj
 0001:00004890       ??1CCommonDialog@@UAE@XZ   00405890 f i Client.obj
 0001:000048b0       ??2CObject@@SGPAXI@Z       004058b0 f i Client.obj
 0001:000048d0       ?CreateObject@CClientDoc@@SGPAVCObject@@XZ 004058d0 f   ClientDoc.obj
 0001:00004934       ?GetRuntimeClass@CClientDoc@@UBEPAUCRuntimeClass@@XZ 00405934 f   ClientDoc.obj
 0001:00004944       ?GetMessageMap@CClientDoc@@MBEPBUAFX_MSGMAP@@XZ 00405944 f   ClientDoc.obj
 0001:00004954       ??0CClientDoc@@IAE@XZ      00405954 f   ClientDoc.obj
 0001:00004973       ??1CClientDoc@@UAE@XZ      00405973 f   ClientDoc.obj
 0001:0000498f       ?Serialize@CClientDoc@@UAEXAAVCArchive@@@Z 0040598f f   ClientDoc.obj
 0001:00004a60       ??_ECClientDoc@@UAEPAXI@Z  00405a60 f i ClientDoc.obj
 0001:00004a60       ??_GCClientDoc@@UAEPAXI@Z  00405a60 f i ClientDoc.obj
 0001:00004a90       ?IsStoring@CArchive@@QBEHXZ 00405a90 f i ClientDoc.obj
 0001:00004ab0       ?IsModified@CDocument@@UAEHXZ 00405ab0 f i ClientDoc.obj
 0001:00004ad0       ?SetModifiedFlag@CDocument@@UAEXH@Z 00405ad0 f i ClientDoc.obj
 0001:00004af0       ?CreateObject@CClientView@@SGPAVCObject@@XZ 00405af0 f   ClientView.obj
 0001:00004b57       ?GetRuntimeClass@CClientView@@UBEPAUCRuntimeClass@@XZ 00405b57 f   ClientView.obj
 0001:00004b67       ?GetMessageMap@CClientView@@MBEPBUAFX_MSGMAP@@XZ 00405b67 f   ClientView.obj
 0001:00004b77       ??0CClientView@@IAE@XZ     00405b77 f   ClientView.obj
 0001:00004ca0       ??1CClientView@@UAE@XZ     00405ca0 f   ClientView.obj
 0001:00004d25       ?PreCreateWindow@CClientView@@UAEHAAUtagCREATESTRUCTA@@@Z 00405d25 f   ClientView.obj
 0001:00004d4d       ?OnDraw@CClientView@@UAEXPAVCDC@@@Z 00405d4d f   ClientView.obj
 0001:00004d67       ?OnInitialUpdate@CClientView@@MAEXXZ 00405d67 f   ClientView.obj
 0001:00004f44       ?NewInitialUpdate@CClientView@@QAEXXZ 00405f44 f   ClientView.obj
 0001:00005121       ?OnSize@CClientView@@IAEXIHH@Z 00406121 f   ClientView.obj
 0001:000051b5       ?SortColumn@CClientView@@IAEXH_N@Z 004061b5 f   ClientView.obj
 0001:00005243       ?OnNotify@CClientView@@UAEHIJPAJ@Z 00406243 f   ClientView.obj
 0001:000052a4       ?EnableControls@CClientView@@IAEXH@Z 004062a4 f   ClientView.obj
 0001:000052e0       ?ModifyDrawStyle@CClientView@@IAEXIH@Z 004062e0 f   ClientView.obj
 0001:00005359       ?OnRButtonDown@CClientView@@IAEXIVCPoint@@@Z 00406359 f   ClientView.obj
 0001:0000541d       ?OnAddToList@CClientView@@AAEJIJ@Z 0040641d f   ClientView.obj
 0001:00005e17       ?OnRemoveFromList@CClientView@@AAEJIJ@Z 00406e17 f   ClientView.obj
 0001:00006290       ?OnChangegroup@CClientView@@IAEXXZ 00407290 f   ClientView.obj
 0001:00006d9e       ?SendSelectCommand@CClientView@@QAEXPAEI@Z 00407d9e f   ClientView.obj
 0001:00006e12       ?OnOpenManagerDialog@CClientView@@AAEJIJ@Z 00407e12 f   ClientView.obj
 0001:00006ecb       ?OnOpenScreenSpyDialog@CClientView@@AAEJIJ@Z 00407ecb f   ClientView.obj
 0001:00006f84       ?OnOpenWebCamDialog@CClientView@@AAEJIJ@Z 00407f84 f   ClientView.obj
 0001:0000703d       ?OnOpenAudioDialog@CClientView@@AAEJIJ@Z 0040803d f   ClientView.obj
 0001:000070f6       ?OnOpenKeyBoardDialog@CClientView@@AAEJIJ@Z 004080f6 f   ClientView.obj
 0001:000071af       ?OnOpenSystemDialog@CClientView@@AAEJIJ@Z 004081af f   ClientView.obj
 0001:00007268       ?OnOpenShellDialog@CClientView@@AAEJIJ@Z 00408268 f   ClientView.obj
 0001:00007321       ?OnFilemanager@CClientView@@IAEXXZ 00408321 f   ClientView.obj
 0001:00007340       ?OnScreenspy@CClientView@@IAEXXZ 00408340 f   ClientView.obj
 0001:0000735f       ?OnWebcam@CClientView@@IAEXXZ 0040835f f   ClientView.obj
 0001:0000737e       ?OnAudioListen@CClientView@@IAEXXZ 0040837e f   ClientView.obj
 0001:0000739d       ?OnDownexec@CClientView@@IAEXXZ 0040839d f   ClientView.obj
 0001:000074fe       ?OnRemove@CClientView@@IAEXXZ 004084fe f   ClientView.obj
 0001:00007538       ?OnKeyboard@CClientView@@IAEXXZ 00408538 f   ClientView.obj
 0001:00007557       ?OnSystem@CClientView@@IAEXXZ 00408557 f   ClientView.obj
 0001:00007576       ?OnRemoteshell@CClientView@@IAEXXZ 00408576 f   ClientView.obj
 0001:00007595       ?OnLogoff@CClientView@@IAEXXZ 00408595 f   ClientView.obj
 0001:000075d3       ?OnReboot@CClientView@@IAEXXZ 004085d3 f   ClientView.obj
 0001:00007611       ?OnShutdown@CClientView@@IAEXXZ 00408611 f   ClientView.obj
 0001:0000764f       ?OnSelectAll@CClientView@@IAEXXZ 0040864f f   ClientView.obj
 0001:00007699       ?OnUnselectAll@CClientView@@IAEXXZ 00408699 f   ClientView.obj
 0001:000076e3       ?OnOpenUrlHide@CClientView@@IAEXXZ 004086e3 f   ClientView.obj
 0001:00007844       ?OnOpenUrlShow@CClientView@@IAEXXZ 00408844 f   ClientView.obj
 0001:000079a5       ?OnCleanevent@CClientView@@IAEXXZ 004089a5 f   ClientView.obj
 0001:000079c4       ?OnRenameRemark@CClientView@@IAEXXZ 004089c4 f   ClientView.obj
 0001:00007c0d       ?OnUpdateServer@CClientView@@IAEXXZ 00408c0d f   ClientView.obj
 0001:00007d6e       ?OnDisconnect@CClientView@@IAEXXZ 00408d6e f   ClientView.obj
 0001:00007f47       ?OnShowmsg@CClientView@@IAEXXZ 00408f47 f   ClientView.obj
 0001:00007faa       ?OnSysinfo@CClientView@@IAEXXZ 00408faa f   ClientView.obj
 0001:00007fc9       ?OnOpenSysInfoDialog@CClientView@@AAEJIJ@Z 00408fc9 f   ClientView.obj
 0001:00008130       ??_ECClientView@@UAEPAXI@Z 00409130 f i ClientView.obj
 0001:00008130       ??_GCClientView@@UAEPAXI@Z 00409130 f i ClientView.obj
 0001:00008160       ??0CInputDialog@@QAE@XZ    00409160 f i ClientView.obj
 0001:000081d0       ??1CInputDialog@@UAE@XZ    004091d0 f i ClientView.obj
 0001:00008240       ?DoDataExchange@CInputDialog@@MAEXPAVCDataExchange@@@Z 00409240 f i ClientView.obj
 0001:00008260       ??_ECInputDialog@@UAEPAXI@Z 00409260 f i ClientView.obj
 0001:00008260       ??_GCInputDialog@@UAEPAXI@Z 00409260 f i ClientView.obj
 0001:00008290       ??1CMsgBox@@UAE@XZ         00409290 f i ClientView.obj
 0001:00008340       ?GetCommandBars@?$CXTPCommandBarsSiteBase@VCFrameWnd@@@@QBEPAVCXTPCommandBars@@XZ 00409340 f i ClientView.obj
 0001:00008360       ?AfxGetMainWnd@@YGPAVCWnd@@XZ 00409360 f i ClientView.obj
 0001:000083a0       ??0CRect@@QAE@XZ           004093a0 f i ClientView.obj
 0001:000083a0       ??0CTime@@QAE@XZ           004093a0 f i ClientView.obj
 0001:000083a0       ??0CObject@@IAE@XZ         004093a0 f i ClientView.obj
 0001:000083a0       ??0CPoint@@QAE@XZ          004093a0 f i ClientView.obj
 0001:000083a0       ?GetEditCtrl@CEditView@@QBEAAVCEdit@@XZ 004093a0 f i ClientView.obj
 0001:000083a0       ?GetListCtrl@CListView@@QBEAAVCListCtrl@@XZ 004093a0 f i ClientView.obj
 0001:000083b0       ?Width@CRect@@QBEHXZ       004093b0 f i ClientView.obj
 0001:000083d0       ??BCRect@@QAEPAUtagRECT@@XZ 004093d0 f i ClientView.obj
 0001:000083e0       ??0CMenu@@QAE@XZ           004093e0 f i ClientView.obj
 0001:00008410       ??_ECMenu@@UAEPAXI@Z       00409410 f i ClientView.obj
 0001:00008410       ??_GCMenu@@UAEPAXI@Z       00409410 f i ClientView.obj
 0001:00008440       ??1CMenu@@UAE@XZ           00409440 f i ClientView.obj
 0001:000084a0       ??1CObject@@UAE@XZ         004094a0 f i ClientView.obj
 0001:000084b0       ?GetMenuItemCount@CMenu@@QBEIXZ 004094b0 f i ClientView.obj
 0001:000084d0       ?GetSubMenu@CMenu@@QBEPAV1@H@Z 004094d0 f i ClientView.obj
 0001:00008500       ?LoadMenuA@CMenu@@QAEHI@Z  00409500 f i ClientView.obj
 0001:00008530       ?AfxGetResourceHandle@@YGPAUHINSTANCE__@@XZ 00409530 f i ClientView.obj
 0001:00008540       ?GetSafeHwnd@CWnd@@QBEPAUHWND__@@XZ 00409540 f i ClientView.obj
 0001:00008570       ?GetClientRect@CWnd@@QBEXPAUtagRECT@@@Z 00409570 f i ClientView.obj
 0001:00008590       ?RedrawWindow@CWnd@@QAEHPBUtagRECT@@PAVCRgn@@I@Z 00409590 f i ClientView.obj
 0001:000085c0       ?GetSafeHandle@CGdiObject@@QBEPAXXZ 004095c0 f i ClientView.obj
 0001:000085f0       ?GetDesktopWindow@CWnd@@SGPAV1@XZ 004095f0 f i ClientView.obj
 0001:00008610       ?OnMouseMove@CWnd@@IAEXIVCPoint@@@Z 00409610 f i ClientView.obj
 0001:00008610       ?OnLButtonUp@CWnd@@IAEXIVCPoint@@@Z 00409610 f i ClientView.obj
 0001:00008610       ?OnSize@CWnd@@IAEXIHH@Z    00409610 f i ClientView.obj
 0001:00008610       ?OnRButtonDown@CWnd@@IAEXIVCPoint@@@Z 00409610 f i ClientView.obj
 0001:00008610       ?OnMouseActivate@CWnd@@IAEHPAV1@II@Z 00409610 f i ClientView.obj
 0001:00008630       ?Create@CDialog@@QAEHIPAVCWnd@@@Z 00409630 f i ClientView.obj
 0001:00008660       ?GetDocument@CView@@QBEPAVCDocument@@XZ 00409660 f i ClientView.obj
 0001:00008680       ?GetItemCount@CListCtrl@@QBEHXZ 00409680 f i ClientView.obj
 0001:000086b0       ?SetItemData@CListCtrl@@QAEHHK@Z 004096b0 f i ClientView.obj
 0001:000086e0       ?InsertItem@CListCtrl@@QAEHHPBDH@Z 004096e0 f i ClientView.obj
 0001:00008710       ?DeleteItem@CListCtrl@@QAEHH@Z 00409710 f i ClientView.obj
 0001:00008740       ?GetFirstSelectedItemPosition@CListCtrl@@QBEPAU__POSITION@@XZ 00409740 f i ClientView.obj
 0001:00008760       ?GetNextItem@CListCtrl@@QBEHHH@Z 00409760 f i ClientView.obj
 0001:000087a0       ?GetNextSelectedItem@CListCtrl@@QBEHAAPAU__POSITION@@@Z 004097a0 f i ClientView.obj
 0001:000087e0       ?SetColumnWidth@CListCtrl@@QAEHHH@Z 004097e0 f i ClientView.obj
 0001:00008820       ?GetSelectedCount@CListCtrl@@QBEIXZ 00409820 f i ClientView.obj
 0001:00008850       ?GetItemCount@CHeaderCtrl@@QBEHXZ 00409850 f i ClientView.obj
 0001:00008880       ?SetExtendedStyle@CListCtrl@@QAEKK@Z 00409880 f i ClientView.obj
 0001:000088b0       ?GetSelectionMark@CListCtrl@@QAEHXZ 004098b0 f i ClientView.obj
 0001:000088e0       ?EnablePopupMenus@CXTPHeaderCtrl@@QAEXH@Z 004098e0 f i ClientView.obj
 0001:00008900       ?GetTheme@CXTPHeaderCtrl@@QAEPAVCXTPHeaderCtrlTheme@@XZ 00409900 f i ClientView.obj
 0001:00008920       ?DisableColumnSizing@CXTPListBase@@UAEX_N@Z 00409920 f i ClientView.obj
 0001:00008940       ?EnableUserSortColor@CXTPListBase@@QAEX_N@Z 00409940 f i ClientView.obj
 0001:00008960       ?GetExtendedStyle@CXTPListViewBase@@UAEKXZ 00409960 f i ClientView.obj
 0001:00008980       ?GetExtendedStyle@CXTPListBase@@UAEKXZ 00409980 f i ClientView.obj
 0001:000089b0       ?SendMessageA@CWnd@@QAEJIIJ@Z 004099b0 f i ClientView.obj
 0001:000089e0       ?SetExtendedStyle@CXTPListViewBase@@UAEXK@Z 004099e0 f i ClientView.obj
 0001:00008a00       ?SetExtendedStyle@CXTPListBase@@UAEXK@Z 00409a00 f i ClientView.obj
 0001:00008a40       ?OnNotify@CXTPListViewBase@@MAEHIJPAJ@Z 00409a40 f i ClientView.obj
 0001:00008a70       ?Init@CXTPListViewBase@@MAE_NXZ 00409a70 f i ClientView.obj
 0001:00008a90       ?PreSubclassWindow@CXTPListViewBase@@MAEXXZ 00409a90 f i ClientView.obj
 0001:00008ad0       ?PreCreateWindow@CXTPListViewBase@@MAEHAAUtagCREATESTRUCTA@@@Z 00409ad0 f i ClientView.obj
 0001:00008b00       ??_ECClientView@@WEI@AEPAXI@Z 00409b00 f i ClientView.obj
 0001:00008b10       ?OnNotify@CClientView@@WEI@AEHIJPAJ@Z 00409b10 f i ClientView.obj
 0001:00008b20       ??0CCpuUsage@@QAE@XZ       00409b20 f   CpuUsage.obj
 0001:00008b4b       ??1CCpuUsage@@UAE@XZ       00409b4b f   CpuUsage.obj
 0001:00008b82       ?Init@CCpuUsage@@QAEHXZ    00409b82 f   CpuUsage.obj
 0001:00008bf1       ?GetUsage@CCpuUsage@@QAEHXZ 00409bf1 f   CpuUsage.obj
 0001:00008ce0       ??_ECCpuUsage@@UAEPAXI@Z   00409ce0 f i CpuUsage.obj
 0001:00008ce0       ??_GCCpuUsage@@UAEPAXI@Z   00409ce0 f i CpuUsage.obj
 0001:00008d10       ??0CFileManagerDlg@@QAE@PAVCWnd@@PAVCIOCPServer@@PAUClientContext@@@Z 00409d10 f   FileManagerDlg.obj
 0001:000090ed       ?DoDataExchange@CFileManagerDlg@@MAEXPAVCDataExchange@@@Z 0040a0ed f   FileManagerDlg.obj
 0001:00009165       ?GetMessageMap@CFileManagerDlg@@MBEPBUAFX_MSGMAP@@XZ 0040a165 f   FileManagerDlg.obj
 0001:00009175       ?GetIconIndex@@YAHPBDK@Z   0040a175 f   FileManagerDlg.obj
 0001:000091be       ?OnInitDialog@CFileManagerDlg@@MAEHXZ 0040a1be f   FileManagerDlg.obj
 0001:0000963c       ?OnSize@CFileManagerDlg@@IAEXIHH@Z 0040a63c f   FileManagerDlg.obj
 0001:000097be       ?FixedLocalDriveList@CFileManagerDlg@@QAEXXZ 0040a7be f   FileManagerDlg.obj
 0001:00009c2e       ?OnDblclkListLocal@CFileManagerDlg@@IAEXPAUtagNMHDR@@PAJ@Z 0040ac2e f   FileManagerDlg.obj
 0001:00009c97       ?FixedLocalFileList@CFileManagerDlg@@QAEXVCString@@@Z 0040ac97 f   FileManagerDlg.obj
 0001:0000a3df       ?DropItemOnList@CFileManagerDlg@@IAEXPAVCListCtrl@@0@Z 0040b3df f   FileManagerDlg.obj
 0001:0000a44a       ?OnQueryDragIcon@CFileManagerDlg@@IAEPAUHICON__@@XZ 0040b44a f   FileManagerDlg.obj
 0001:0000a45e       ?OnBegindragListLocal@CFileManagerDlg@@IAEXPAUtagNMHDR@@PAJ@Z 0040b45e f   FileManagerDlg.obj
 0001:0000a59d       ?OnBegindragListRemote@CFileManagerDlg@@IAEXPAUtagNMHDR@@PAJ@Z 0040b59d f   FileManagerDlg.obj
 0001:0000a6dc       ?OnMouseMove@CFileManagerDlg@@IAEXIVCPoint@@@Z 0040b6dc f   FileManagerDlg.obj
 0001:0000a8e3       ?OnLButtonUp@CFileManagerDlg@@IAEXIVCPoint@@@Z 0040b8e3 f   FileManagerDlg.obj
 0001:0000a996       ?PreTranslateMessage@CFileManagerDlg@@UAEHPAUtagMSG@@@Z 0040b996 f   FileManagerDlg.obj
 0001:0000ab26       ?OnTimer@CFileManagerDlg@@IAEXI@Z 0040bb26 f   FileManagerDlg.obj
 0001:0000ab4d       ?FixedRemoteDriveList@CFileManagerDlg@@QAEXXZ 0040bb4d f   FileManagerDlg.obj
 0001:0000b063       ?OnClose@CFileManagerDlg@@IAEXXZ 0040c063 f   FileManagerDlg.obj
 0001:0000b09e       ?GetParentDirectory@CFileManagerDlg@@QAE?AVCString@@V2@@Z 0040c09e f   FileManagerDlg.obj
 0001:0000b269       ?OnReceiveComplete@CFileManagerDlg@@QAEXXZ 0040c269 f   FileManagerDlg.obj
 0001:0000b386       ?GetRemoteFileList@CFileManagerDlg@@QAEXVCString@@@Z 0040c386 f   FileManagerDlg.obj
 0001:0000b64a       ?OnDblclkListRemote@CFileManagerDlg@@IAEXPAUtagNMHDR@@PAJ@Z 0040c64a f   FileManagerDlg.obj
 0001:0000b6b3       ?FixedRemoteFileList@CFileManagerDlg@@QAEXPAEK@Z 0040c6b3 f   FileManagerDlg.obj
 0001:0000bc22       ?ShowMessage@CFileManagerDlg@@QAAXPADZZ 0040cc22 f   FileManagerDlg.obj
 0001:0000bc8b       ?OnLocalPrev@CFileManagerDlg@@IAEXXZ 0040cc8b f   FileManagerDlg.obj
 0001:0000bcb3       ?OnRemotePrev@CFileManagerDlg@@IAEXXZ 0040ccb3 f   FileManagerDlg.obj
 0001:0000bcdb       ?OnLocalView@CFileManagerDlg@@IAEXXZ 0040ccdb f   FileManagerDlg.obj
 0001:0000bcfa       ?OnToolTipNotify@CFileManagerDlg@@IAEHIPAUtagNMHDR@@PAJ@Z 0040ccfa f   FileManagerDlg.obj
 0001:0000be74       ?OnLocalList@CFileManagerDlg@@IAEXXZ 0040ce74 f   FileManagerDlg.obj
 0001:0000be93       ?OnLocalReport@CFileManagerDlg@@IAEXXZ 0040ce93 f   FileManagerDlg.obj
 0001:0000beb2       ?OnLocalBigicon@CFileManagerDlg@@IAEXXZ 0040ceb2 f   FileManagerDlg.obj
 0001:0000bed1       ?OnLocalSmallicon@CFileManagerDlg@@IAEXXZ 0040ced1 f   FileManagerDlg.obj
 0001:0000bef0       ?OnRemoteList@CFileManagerDlg@@IAEXXZ 0040cef0 f   FileManagerDlg.obj
 0001:0000bf0f       ?OnRemoteReport@CFileManagerDlg@@IAEXXZ 0040cf0f f   FileManagerDlg.obj
 0001:0000bf2e       ?OnRemoteBigicon@CFileManagerDlg@@IAEXXZ 0040cf2e f   FileManagerDlg.obj
 0001:0000bf4d       ?OnRemoteSmallicon@CFileManagerDlg@@IAEXXZ 0040cf4d f   FileManagerDlg.obj
 0001:0000bf6c       ?OnRemoteView@CFileManagerDlg@@IAEXXZ 0040cf6c f   FileManagerDlg.obj
 0001:0000bf8b       ?OnUpdateLocalPrev@CFileManagerDlg@@IAEXPAVCCmdUI@@@Z 0040cf8b f   FileManagerDlg.obj
 0001:0000bfdc       ?OnUpdateLocalDelete@CFileManagerDlg@@IAEXPAVCCmdUI@@@Z 0040cfdc f   FileManagerDlg.obj
 0001:0000c03f       ?OnUpdateLocalNewfolder@CFileManagerDlg@@IAEXPAVCCmdUI@@@Z 0040d03f f   FileManagerDlg.obj
 0001:0000c090       ?OnUpdateLocalCopy@CFileManagerDlg@@IAEXPAVCCmdUI@@@Z 0040d090 f   FileManagerDlg.obj
 0001:0000c105       ?OnUpdateLocalStop@CFileManagerDlg@@IAEXPAVCCmdUI@@@Z 0040d105 f   FileManagerDlg.obj
 0001:0000c153       ?OnUpdateRemotePrev@CFileManagerDlg@@IAEXPAVCCmdUI@@@Z 0040d153 f   FileManagerDlg.obj
 0001:0000c1a4       ?OnUpdateRemoteCopy@CFileManagerDlg@@IAEXPAVCCmdUI@@@Z 0040d1a4 f   FileManagerDlg.obj
 0001:0000c219       ?OnUpdateRemoteDelete@CFileManagerDlg@@IAEXPAVCCmdUI@@@Z 0040d219 f   FileManagerDlg.obj
 0001:0000c27c       ?OnUpdateRemoteNewfolder@CFileManagerDlg@@IAEXPAVCCmdUI@@@Z 0040d27c f   FileManagerDlg.obj
 0001:0000c2cd       ?OnUpdateRemoteStop@CFileManagerDlg@@IAEXPAVCCmdUI@@@Z 0040d2cd f   FileManagerDlg.obj
 0001:0000c31b       ?FixedUploadDirectory@CFileManagerDlg@@QAE_NPBD@Z 0040d31b f   FileManagerDlg.obj
 0001:0000c4c0       ?EnableControl@CFileManagerDlg@@AAEXH@Z 0040d4c0 f   FileManagerDlg.obj
 0001:0000c515       ?OnLocalCopy@CFileManagerDlg@@IAEXXZ 0040d515 f   FileManagerDlg.obj
 0001:0000c6e2       ?OnRemoteCopy@CFileManagerDlg@@IAEXXZ 0040d6e2 f   FileManagerDlg.obj
 0001:0000c86d       ?SendDownloadJob@CFileManagerDlg@@QAEHXZ 0040d86d f   FileManagerDlg.obj
 0001:0000c976       ?SendUploadJob@CFileManagerDlg@@QAEHXZ 0040d976 f   FileManagerDlg.obj
 0001:0000cccc       ?SendDeleteJob@CFileManagerDlg@@QAEHXZ 0040dccc f   FileManagerDlg.obj
 0001:0000ce1e       ?CreateLocalRecvFile@CFileManagerDlg@@QAEXXZ 0040de1e f   FileManagerDlg.obj
 0001:0000d501       ?WriteLocalRecvFile@CFileManagerDlg@@QAEXXZ 0040e501 f   FileManagerDlg.obj
 0001:0000d736       ?EndLocalRecvFile@CFileManagerDlg@@QAEXXZ 0040e736 f   FileManagerDlg.obj
 0001:0000d80a       ?EndLocalUploadFile@CFileManagerDlg@@AAEXXZ 0040e80a f   FileManagerDlg.obj
 0001:0000d8d4       ?EndRemoteDeleteFile@CFileManagerDlg@@QAEXXZ 0040e8d4 f   FileManagerDlg.obj
 0001:0000d958       ?SendException@CFileManagerDlg@@QAEXXZ 0040e958 f   FileManagerDlg.obj
 0001:0000d987       ?SendContinue@CFileManagerDlg@@QAEXXZ 0040e987 f   FileManagerDlg.obj
 0001:0000d9b6       ?SendStop@CFileManagerDlg@@QAEXXZ 0040e9b6 f   FileManagerDlg.obj
 0001:0000d9e5       ?ShowProgress@CFileManagerDlg@@QAEXXZ 0040e9e5 f   FileManagerDlg.obj
 0001:0000db15       ?OnLocalDelete@CFileManagerDlg@@IAEXXZ 0040eb15 f   FileManagerDlg.obj
 0001:0000dd52       ?OnRemoteDelete@CFileManagerDlg@@IAEXXZ 0040ed52 f   FileManagerDlg.obj
 0001:0000df70       ?OnRemoteStop@CFileManagerDlg@@IAEXXZ 0040ef70 f   FileManagerDlg.obj
 0001:0000df82       ?OnLocalStop@CFileManagerDlg@@IAEXXZ 0040ef82 f   FileManagerDlg.obj
 0001:0000df94       ?PostNcDestroy@CFileManagerDlg@@MAEXXZ 0040ef94 f   FileManagerDlg.obj
 0001:0000dfd4       ?SendTransferMode@CFileManagerDlg@@AAEXXZ 0040efd4 f   FileManagerDlg.obj
 0001:0000e126       ?SendFileData@CFileManagerDlg@@AAEXXZ 0040f126 f   FileManagerDlg.obj
 0001:0000e2e6       ?DeleteDirectory@CFileManagerDlg@@AAE_NPBD@Z 0040f2e6 f   FileManagerDlg.obj
 0001:0000e3e9       ?OnLocalNewfolder@CFileManagerDlg@@IAEXXZ 0040f3e9 f   FileManagerDlg.obj
 0001:0000e555       ?OnRemoteNewfolder@CFileManagerDlg@@IAEXXZ 0040f555 f   FileManagerDlg.obj
 0001:0000e70d       ?OnTransfer@CFileManagerDlg@@IAEXXZ 0040f70d f   FileManagerDlg.obj
 0001:0000e749       ?OnRename@CFileManagerDlg@@IAEXXZ 0040f749 f   FileManagerDlg.obj
 0001:0000e7af       ?OnEndlabeleditListLocal@CFileManagerDlg@@IAEXPAUtagNMHDR@@PAJ@Z 0040f7af f   FileManagerDlg.obj
 0001:0000e916       ?OnEndlabeleditListRemote@CFileManagerDlg@@IAEXPAUtagNMHDR@@PAJ@Z 0040f916 f   FileManagerDlg.obj
 0001:0000eb2e       ?OnDelete@CFileManagerDlg@@IAEXXZ 0040fb2e f   FileManagerDlg.obj
 0001:0000eb6a       ?OnNewfolder@CFileManagerDlg@@IAEXXZ 0040fb6a f   FileManagerDlg.obj
 0001:0000eba6       ?OnRefresh@CFileManagerDlg@@IAEXXZ 0040fba6 f   FileManagerDlg.obj
 0001:0000ec08       ?OnLocalOpen@CFileManagerDlg@@IAEXXZ 0040fc08 f   FileManagerDlg.obj
 0001:0000ece5       ?OnRemoteOpenShow@CFileManagerDlg@@IAEXXZ 0040fce5 f   FileManagerDlg.obj
 0001:0000ee14       ?OnRemoteOpenHide@CFileManagerDlg@@IAEXXZ 0040fe14 f   FileManagerDlg.obj
 0001:0000ef43       ?OnRclickListLocal@CFileManagerDlg@@IAEXPAUtagNMHDR@@PAJ@Z 0040ff43 f   FileManagerDlg.obj
 0001:0000f0c1       ?OnRclickListRemote@CFileManagerDlg@@IAEXPAUtagNMHDR@@PAJ@Z 004100c1 f   FileManagerDlg.obj
 0001:0000f24c       ?MakeSureDirectoryPathExists@CFileManagerDlg@@AAE_NPBD@Z 0041024c f   FileManagerDlg.obj
 0001:0000f550       ??_ECFileManagerDlg@@UAEPAXI@Z 00410550 f i FileManagerDlg.obj
 0001:0000f550       ??_GCFileManagerDlg@@UAEPAXI@Z 00410550 f i FileManagerDlg.obj
 0001:0000f580       ??1CFileManagerDlg@@UAE@XZ 00410580 f i FileManagerDlg.obj
 0001:0000f700       ?AfxTrace@@YAXPBDZZ        00410700 f i FileManagerDlg.obj
 0001:0000f710       ?IsDirectory@CFileFind@@QBEHXZ 00410710 f i FileManagerDlg.obj
 0001:0000f730       ??9@YG_NABVCString@@PBD@Z  00410730 f i FileManagerDlg.obj
 0001:0000f750       ?GetAt@CString@@QBEDH@Z    00410750 f i FileManagerDlg.obj
 0001:0000f770       ??4CString@@QAEABV0@PBE@Z  00410770 f i FileManagerDlg.obj
 0001:0000f790       ??1CFileTransferModeDlg@@UAE@XZ 00410790 f i FileManagerDlg.obj
 0001:0000f7e0       ??9@YG_NABVCString@@0@Z    004107e0 f i FileManagerDlg.obj
 0001:0000f800       ?DeleteMenu@CMenu@@QAEHII@Z 00410800 f i FileManagerDlg.obj
 0001:0000f830       ?EnableMenuItem@CMenu@@QAEIII@Z 00410830 f i FileManagerDlg.obj
 0001:0000f860       ?MoveWindow@CWnd@@QAEXPBUtagRECT@@H@Z 00410860 f i FileManagerDlg.obj
 0001:0000f8a0       ?ClientToScreen@CWnd@@QBEXPAUtagPOINT@@@Z 004108a0 f i FileManagerDlg.obj
 0001:0000f8c0       ?ScreenToClient@CWnd@@QBEXPAUtagPOINT@@@Z 004108c0 f i FileManagerDlg.obj
 0001:0000f8e0       ?SetRedraw@CWnd@@QAEXH@Z   004108e0 f i FileManagerDlg.obj
 0001:0000f910       ?IsWindowVisible@CWnd@@QBEHXZ 00410910 f i FileManagerDlg.obj
 0001:0000f930       ?SetCapture@CWnd@@QAEPAV1@XZ 00410930 f i FileManagerDlg.obj
 0001:0000f950       ?GetFocus@CWnd@@SGPAV1@XZ  00410950 f i FileManagerDlg.obj
 0001:0000f970       ?GetWindow@CWnd@@QBEPAV1@I@Z 00410970 f i FileManagerDlg.obj
 0001:0000f9a0       ?GetParent@CWnd@@QBEPAV1@XZ 004109a0 f i FileManagerDlg.obj
 0001:0000f9c0       ?WindowFromPoint@CWnd@@SGPAV1@UtagPOINT@@@Z 004109c0 f i FileManagerDlg.obj
 0001:0000f9e0       ?OnTimer@CWnd@@IAEXI@Z     004109e0 f i FileManagerDlg.obj
 0001:0000fa00       ?InsertString@CComboBox@@QAEHHPBD@Z 00410a00 f i FileManagerDlg.obj
 0001:0000fa30       ?ResetContent@CComboBox@@QAEXXZ 00410a30 f i FileManagerDlg.obj
 0001:0000fa60       ?LoadCursorA@CWinApp@@QBEPAUHICON__@@I@Z 00410a60 f i FileManagerDlg.obj
 0001:0000fa90       ?LoadToolBar@CToolBar@@QAEHI@Z 00410a90 f i FileManagerDlg.obj
 0001:0000fab0       ?SetImageList@CListCtrl@@QAEPAVCImageList@@PAV2@H@Z 00410ab0 f i FileManagerDlg.obj
 0001:0000faf0       ?DeleteAllItems@CListCtrl@@QAEHXZ 00410af0 f i FileManagerDlg.obj
 0001:0000fb20       ?RedrawItems@CListCtrl@@QAEHHH@Z 00410b20 f i FileManagerDlg.obj
 0001:0000fb50       ?EditLabel@CListCtrl@@QAEPAVCEdit@@H@Z 00410b50 f i FileManagerDlg.obj
 0001:0000fb80       ?GetEditControl@CListCtrl@@QBEPAVCEdit@@XZ 00410b80 f i FileManagerDlg.obj
 0001:0000fbb0       ?DeleteColumn@CListCtrl@@QAEHH@Z 00410bb0 f i FileManagerDlg.obj
 0001:0000fbe0       ??0CProgressCtrl@@QAE@XZ   00410be0 f i FileManagerDlg.obj
 0001:0000fc00       ??_GCProgressCtrl@@UAEPAXI@Z 00410c00 f i FileManagerDlg.obj
 0001:0000fc00       ??_ECProgressCtrl@@UAEPAXI@Z 00410c00 f i FileManagerDlg.obj
 0001:0000fc30       ?SetRange@CProgressCtrl@@QAEXFF@Z 00410c30 f i FileManagerDlg.obj
 0001:0000fc80       ?StepIt@CProgressCtrl@@QAEHXZ 00410c80 f i FileManagerDlg.obj
 0001:0000fcb0       ?GetSafeHandle@CImageList@@QBEPAU_IMAGELIST@@XZ 00410cb0 f i FileManagerDlg.obj
 0001:0000fce0       ?SetPos@CProgressCtrl@@QAEHH@Z 00410ce0 f i FileManagerDlg.obj
 0001:0000fd10       ?SetFlatStyle@CXTPComboBox@@QAEXH@Z 00410d10 f i FileManagerDlg.obj
 0001:0000fd40       ??0?$CList@VCString@@AAV1@@@QAE@H@Z 00410d40 f i FileManagerDlg.obj
 0001:0000fda0       ?GetHead@?$CList@VCString@@AAV1@@@QAEAAVCString@@XZ 00410da0 f i FileManagerDlg.obj
 0001:0000fdc0       ?RemoveHead@?$CList@VCString@@AAV1@@@QAE?AVCString@@XZ 00410dc0 f i FileManagerDlg.obj
 0001:0000fe70       ?AddTail@?$CList@VCString@@AAV1@@@QAEPAU__POSITION@@AAVCString@@@Z 00410e70 f i FileManagerDlg.obj
 0001:0000fed0       ?RemoveAll@?$CList@VCString@@AAV1@@@QAEXXZ 00410ed0 f i FileManagerDlg.obj
 0001:0000ff50       ??1?$CList@VCString@@AAV1@@@UAE@XZ 00410f50 f i FileManagerDlg.obj
 0001:0000ffb0       ?Serialize@?$CList@VCString@@AAV1@@@UAEXAAVCArchive@@@Z 00410fb0 f i FileManagerDlg.obj
 0001:00010090       ??_G?$CList@VCString@@AAV1@@@UAEPAXI@Z 00411090 f i FileManagerDlg.obj
 0001:00010090       ??_E?$CList@VCString@@AAV1@@@UAEPAXI@Z 00411090 f i FileManagerDlg.obj
 0001:000100c0       ?NewNode@?$CList@VCString@@AAV1@@@IAEPAUCNode@1@PAU21@0@Z 004110c0 f i FileManagerDlg.obj
 0001:000101a0       ?FreeNode@?$CList@VCString@@AAV1@@@IAEXPAUCNode@1@@Z 004111a0 f i FileManagerDlg.obj
 0001:000101f0       ??0CFileTransferModeDlg@@QAE@PAVCWnd@@@Z 004111f0 f   FileTransferModeDlg.obj
 0001:00010252       ?DoDataExchange@CFileTransferModeDlg@@MAEXPAVCDataExchange@@@Z 00411252 f   FileTransferModeDlg.obj
 0001:0001026b       ?GetMessageMap@CFileTransferModeDlg@@MBEPBUAFX_MSGMAP@@XZ 0041126b f   FileTransferModeDlg.obj
 0001:0001027b       ?OnEndDialog@CFileTransferModeDlg@@IAEXI@Z 0041127b f   FileTransferModeDlg.obj
 0001:00010294       ?OnInitDialog@CFileTransferModeDlg@@MAEHXZ 00411294 f   FileTransferModeDlg.obj
 0001:00010410       ??_GCFileTransferModeDlg@@UAEPAXI@Z 00411410 f i FileTransferModeDlg.obj
 0001:00010410       ??_ECFileTransferModeDlg@@UAEPAXI@Z 00411410 f i FileTransferModeDlg.obj
 0001:00010440       ??0CIniFile@@QAE@XZ        00411440 f   IniFile.obj
 0001:00010541       ??1CIniFile@@UAE@XZ        00411541 f   IniFile.obj
 0001:00010560       ?GetString@CIniFile@@QAE?AVCString@@V2@00@Z 00411560 f   IniFile.obj
 0001:00010626       ?GetInt@CIniFile@@QAEHVCString@@0H@Z 00411626 f   IniFile.obj
 0001:000106a4       ?GetDWORD@CIniFile@@QAEKVCString@@0K@Z 004116a4 f   IniFile.obj
 0001:0001078a       ?SetString@CIniFile@@QAEHVCString@@00@Z 0041178a f   IniFile.obj
 0001:00010819       ?SetInt@CIniFile@@QAEHVCString@@0H@Z 00411819 f   IniFile.obj
 0001:000108c9       ?SetDouble@CIniFile@@QAEHVCString@@0N@Z 004118c9 f   IniFile.obj
 0001:0001097d       ?SetDWORD@CIniFile@@QAEHVCString@@0K@Z 0041197d f   IniFile.obj
 0001:00010ae0       ??_GCIniFile@@UAEPAXI@Z    00411ae0 f i IniFile.obj
 0001:00010ae0       ??_ECIniFile@@UAEPAXI@Z    00411ae0 f i IniFile.obj
 0001:00010b10       ??0CDlgTemplateBuilder@@QAE@I@Z 00411b10 f   InputDlg.obj
 0001:00010b58       ??1CDlgTemplateBuilder@@QAE@XZ 00411b58 f   InputDlg.obj
 0001:00010b79       ?Begin@CDlgTemplateBuilder@@QAEPAUDLGTEMPLATE@@KABVCRect@@PBDK@Z 00411b79 f   InputDlg.obj
 0001:00010c54       ?AddItemTemplate@CDlgTemplateBuilder@@IAEXGKABVCRect@@GK@Z 00411c54 f   InputDlg.obj
 0001:00010d3b       ?AddItem@CDlgTemplateBuilder@@QAEXGKABVCRect@@PBDGK@Z 00411d3b f   InputDlg.obj
 0001:00010d99       ?AddItem@CDlgTemplateBuilder@@QAEXGKABVCRect@@GGK@Z 00411d99 f   InputDlg.obj
 0001:00010e14       ?AddText@CDlgTemplateBuilder@@QAEPAGPAGPBD@Z 00411e14 f   InputDlg.obj
 0001:00010eba       ?Init@CInputDialog@@QAEHPBD0PAVCWnd@@G@Z 00411eba f   InputDlg.obj
 0001:0001121f       ?OnInitDialog@CInputDialog@@MAEHXZ 0041221f f   InputDlg.obj
 0001:00011259       ?OnOK@CInputDialog@@MAEXXZ 00412259 f   InputDlg.obj
 0001:00011350       ?AlignDWORD@CDlgTemplateBuilder@@IAEPAGPAG@Z 00412350 f i InputDlg.obj
 0001:00011380       ??0CSize@@QAE@HH@Z         00412380 f i InputDlg.obj
 0001:00011380       ??0CPoint@@QAE@HH@Z        00412380 f i InputDlg.obj
 0001:000113b0       ??0CRect@@QAE@UtagPOINT@@UtagSIZE@@@Z 004123b0 f i InputDlg.obj
 0001:000113f0       ?Height@CRect@@QBEHXZ      004123f0 f i InputDlg.obj
 0001:00011410       ?TopLeft@CRect@@QAEAAVCPoint@@XZ 00412410 f i InputDlg.obj
 0001:00011420       ?DeflateRect@CRect@@QAEXUtagSIZE@@@Z 00412420 f i InputDlg.obj
 0001:00011450       ??YCRect@@QAEXUtagPOINT@@@Z 00412450 f i InputDlg.obj
 0001:00011470       ??ZCRect@@QAEXUtagPOINT@@@Z 00412470 f i InputDlg.obj
 0001:000114a0       ?SetIcon@CStatic@@QAEPAUHICON__@@PAU2@@Z 004124a0 f i InputDlg.obj
 0001:000114d0       ??0CIOCPServer@@QAE@XZ     004124d0 f   IOCPServer.obj
 0001:0001169c       ??1CIOCPServer@@UAE@XZ     0041269c f   IOCPServer.obj
 0001:00011731       ?Initialize@CIOCPServer@@QAE_NP6GXPAXPAUClientContext@@I@ZPAVCMainFrame@@HH@Z 00412731 f   IOCPServer.obj
 0001:0001196a       ?ListenThreadProc@CIOCPServer@@SGIPAX@Z 0041296a f   IOCPServer.obj
 0001:00011a5c       ?OnAccept@CIOCPServer@@IAEXXZ 00412a5c f   IOCPServer.obj
 0001:00011d22       ?InitializeIOCP@CIOCPServer@@IAE_NXZ 00412d22 f   IOCPServer.obj
 0001:00011e52       ?ThreadPoolFunc@CIOCPServer@@SGIPAX@Z 00412e52 f   IOCPServer.obj
 0001:00012084       ?Stop@CIOCPServer@@IAEXXZ  00413084 f   IOCPServer.obj
 0001:000120c5       ?GetHostName@CIOCPServer@@IAE?AVCString@@I@Z 004130c5 f   IOCPServer.obj
 0001:0001213a       ?PostRecv@CIOCPServer@@QAEXPAUClientContext@@@Z 0041313a f   IOCPServer.obj
 0001:000121f9       ?Send@CIOCPServer@@QAEXPAUClientContext@@PAEI@Z 004131f9 f   IOCPServer.obj
 0001:00012452       ?OnClientInitializing@CIOCPServer@@QAE_NPAUClientContext@@K@Z 00413452 f   IOCPServer.obj
 0001:00012461       ?OnClientReading@CIOCPServer@@QAE_NPAUClientContext@@K@Z 00413461 f   IOCPServer.obj
 0001:000128b8       ?OnClientWriting@CIOCPServer@@QAE_NPAUClientContext@@K@Z 004138b8 f   IOCPServer.obj
 0001:00012aa8       ?CloseCompletionPort@CIOCPServer@@IAEXXZ 00413aa8 f   IOCPServer.obj
 0001:00012b3f       ?AssociateSocketWithCompletionPort@CIOCPServer@@IAEHIPAXK@Z 00413b3f f   IOCPServer.obj
 0001:00012b72       ?RemoveStaleClient@CIOCPServer@@IAEXPAUClientContext@@H@Z 00413b72 f   IOCPServer.obj
 0001:00012ca2       ?Shutdown@CIOCPServer@@QAEXXZ 00413ca2 f   IOCPServer.obj
 0001:00012d44       ?MoveToFreePool@CIOCPServer@@IAEXPAUClientContext@@@Z 00413d44 f   IOCPServer.obj
 0001:00012e16       ?AllocateContext@CIOCPServer@@IAEPAUClientContext@@XZ 00413e16 f   IOCPServer.obj
 0001:00012f28       ?ResetConnection@CIOCPServer@@QAEXPAUClientContext@@@Z 00413f28 f   IOCPServer.obj
 0001:00012ff7       ?DisconnectAll@CIOCPServer@@QAEXXZ 00413ff7 f   IOCPServer.obj
 0001:000130c8       ?IsRunning@CIOCPServer@@QAE_NXZ 004140c8 f   IOCPServer.obj
 0001:00013190       ??_GCIOCPServer@@UAEPAXI@Z 00414190 f i IOCPServer.obj
 0001:00013190       ??_ECIOCPServer@@UAEPAXI@Z 00414190 f i IOCPServer.obj
 0001:000131c0       ??_GClientContext@@QAEPAXI@Z 004141c0 f i IOCPServer.obj
 0001:000131f0       ??1ClientContext@@QAE@XZ   004141f0 f i IOCPServer.obj
 0001:00013260       ??0ClientContext@@QAE@XZ   00414260 f i IOCPServer.obj
 0001:000132d0       ??0?$CList@PAUClientContext@@PAU1@@@QAE@H@Z 004142d0 f i IOCPServer.obj
 0001:00013330       ?IsEmpty@?$CList@VCString@@AAV1@@@QBEHXZ 00414330 f i IOCPServer.obj
 0001:00013330       ?IsEmpty@?$CList@PAUClientContext@@PAU1@@@QBEHXZ 00414330 f i IOCPServer.obj
 0001:00013350       ?RemoveHead@?$CList@PAUClientContext@@PAU1@@@QAEPAUClientContext@@XZ 00414350 f i IOCPServer.obj
 0001:000133b0       ?RemoveTail@?$CList@PAUClientContext@@PAU1@@@QAEPAUClientContext@@XZ 004143b0 f i IOCPServer.obj
 0001:00013410       ?AddTail@?$CList@PAUClientContext@@PAU1@@@QAEPAU__POSITION@@PAUClientContext@@@Z 00414410 f i IOCPServer.obj
 0001:00013470       ?RemoveAll@?$CList@PAUClientContext@@PAU1@@@QAEXXZ 00414470 f i IOCPServer.obj
 0001:000134f0       ?GetHeadPosition@?$CList@PAUClientContext@@PAU1@@@QBEPAU__POSITION@@XZ 004144f0 f i IOCPServer.obj
 0001:000134f0       ?GetSelectedItem@CXTPTabManager@@QBEPAVCXTPTabManagerItem@@XZ 004144f0 f i IOCPServer.obj
 0001:00013510       ?GetNext@?$CList@PAUClientContext@@PAU1@@@QAEAAPAUClientContext@@AAPAU__POSITION@@@Z 00414510 f i IOCPServer.obj
 0001:00013540       ?RemoveAt@?$CList@PAUClientContext@@PAU1@@@QAEXPAU__POSITION@@@Z 00414540 f i IOCPServer.obj
 0001:000135b0       ?Find@?$CList@PAUClientContext@@PAU1@@@QBEPAU__POSITION@@PAUClientContext@@PAU2@@Z 004145b0 f i IOCPServer.obj
 0001:00013610       ??1?$CList@PAUClientContext@@PAU1@@@UAE@XZ 00414610 f i IOCPServer.obj
 0001:00013670       ?Serialize@?$CList@PAUClientContext@@PAU1@@@UAEXAAVCArchive@@@Z 00414670 f i IOCPServer.obj
 0001:00013710       ??_E?$CList@PAUClientContext@@PAU1@@@UAEPAXI@Z 00414710 f i IOCPServer.obj
 0001:00013710       ??_G?$CList@PAUClientContext@@PAU1@@@UAEPAXI@Z 00414710 f i IOCPServer.obj
 0001:00013740       ?NewNode@?$CList@PAUClientContext@@PAU1@@@IAEPAUCNode@1@PAU21@0@Z 00414740 f i IOCPServer.obj
 0001:00013820       ?FreeNode@?$CList@PAUClientContext@@PAU1@@@IAEXPAUCNode@1@@Z 00414820 f i IOCPServer.obj
 0001:00013870       ?DestructElements@@YGXPAPAVCWnd@@H@Z 00414870 f i IOCPServer.obj
 0001:00013870       ?DestructElements@@YGXPAIH@Z 00414870 f i IOCPServer.obj
 0001:00013870       ?DestructElements@@YGXPAPAUClientContext@@H@Z 00414870 f i IOCPServer.obj
 0001:000138a0       ?CompareElements@@YGHPBQAUClientContext@@0@Z 004148a0 f i IOCPServer.obj
 0001:000138c0       ?ConstructElements@@YGXPAIH@Z 004148c0 f i IOCPServer.obj
 0001:000138c0       ?ConstructElements@@YGXPAPAUClientContext@@H@Z 004148c0 f i IOCPServer.obj
 0001:000138c0       ?ConstructElements@@YGXPAPAVCWnd@@H@Z 004148c0 f i IOCPServer.obj
 0001:00013910       ??2@YAPAXIPAX@Z            00414910 f i IOCPServer.obj
 0001:00013920       ??0CLock@@QAE@AAU_RTL_CRITICAL_SECTION@@ABVCString@@@Z 00414920 f i IOCPServer.obj
 0001:00013990       ??1CLock@@QAE@XZ           00414990 f i IOCPServer.obj
 0001:000139e0       ?Unlock@CLock@@QAEXXZ      004149e0 f i IOCPServer.obj
 0001:00013a30       ?Lock@CLock@@QAEXXZ        00414a30 f i IOCPServer.obj
 0001:00013a80       ??0OVERLAPPEDPLUS@@QAE@W4IOType@@@Z 00414a80 f i IOCPServer.obj
 0001:00013ab0       ?ProcessIOMessage@CIOCPServer@@QAE_NW4IOType@@PAUClientContext@@K@Z 00414ab0 f i IOCPServer.obj
 0001:00013b20       ??0CKeyBoardDlg@@QAE@PAVCWnd@@PAVCIOCPServer@@PAUClientContext@@@Z 00414b20 f   KeyBoardDlg.obj
 0001:00013c6f       ?DoDataExchange@CKeyBoardDlg@@MAEXPAVCDataExchange@@@Z 00414c6f f   KeyBoardDlg.obj
 0001:00013c9d       ?GetMessageMap@CKeyBoardDlg@@MBEPBUAFX_MSGMAP@@XZ 00414c9d f   KeyBoardDlg.obj
 0001:00013cad       ?OnInitDialog@CKeyBoardDlg@@MAEHXZ 00414cad f   KeyBoardDlg.obj
 0001:00013d74       ?OnSysCommand@CKeyBoardDlg@@IAEXIJ@Z 00414d74 f   KeyBoardDlg.obj
 0001:00013ddd       ?OnReceiveComplete@CKeyBoardDlg@@QAEXXZ 00414ddd f   KeyBoardDlg.obj
 0001:00013e1c       ?SendException@CKeyBoardDlg@@AAEXXZ 00414e1c f   KeyBoardDlg.obj
 0001:00013e4b       ?OnClose@CKeyBoardDlg@@IAEXXZ 00414e4b f   KeyBoardDlg.obj
 0001:00013e80       ?AddKeyBoardData@CKeyBoardDlg@@AAEXXZ 00414e80 f   KeyBoardDlg.obj
 0001:00013ef9       ?OnSize@CKeyBoardDlg@@IAEXIHH@Z 00414ef9 f   KeyBoardDlg.obj
 0001:00013f22       ?ResizeEdit@CKeyBoardDlg@@AAEXXZ 00414f22 f   KeyBoardDlg.obj
 0001:00013f66       ?PostNcDestroy@CKeyBoardDlg@@MAEXXZ 00414f66 f   KeyBoardDlg.obj
 0001:00013fa6       ?SaveRecord@CKeyBoardDlg@@AAE_NXZ 00414fa6 f   KeyBoardDlg.obj
 0001:000141f4       ?PreTranslateMessage@CKeyBoardDlg@@UAEHPAUtagMSG@@@Z 004151f4 f   KeyBoardDlg.obj
 0001:00014232       ?UpdateTitle@CKeyBoardDlg@@AAEXXZ 00415232 f   KeyBoardDlg.obj
 0001:00014360       ??_ECKeyBoardDlg@@UAEPAXI@Z 00415360 f i KeyBoardDlg.obj
 0001:00014360       ??_GCKeyBoardDlg@@UAEPAXI@Z 00415360 f i KeyBoardDlg.obj
 0001:00014390       ??1CKeyBoardDlg@@UAE@XZ    00415390 f i KeyBoardDlg.obj
 0001:000143f0       ?AppendMenuA@CMenu@@QAEHIIPBD@Z 004153f0 f i KeyBoardDlg.obj
 0001:00014420       ?GetSystemMenu@CWnd@@QBEPAVCMenu@@H@Z 00415420 f i KeyBoardDlg.obj
 0001:00014450       ?OnShowWindow@CWnd@@IAEXHI@Z 00415450 f i KeyBoardDlg.obj
 0001:00014450       ?OnSysCommand@CWnd@@IAEXIJ@Z 00415450 f i KeyBoardDlg.obj
 0001:00014470       ?ReplaceSel@CEdit@@QAEXPBDH@Z 00415470 f i KeyBoardDlg.obj
 0001:000144a0       ?SetSel@CEdit@@QAEXHHH@Z   004154a0 f i KeyBoardDlg.obj
 0001:000144f0       ?SetLimitText@CEdit@@QAEXI@Z 004154f0 f i KeyBoardDlg.obj
 0001:00014520       ?CreateObject@CLogView@@SGPAVCObject@@XZ 00415520 f   LogView.obj
 0001:00014584       ?GetRuntimeClass@CLogView@@UBEPAUCRuntimeClass@@XZ 00415584 f   LogView.obj
 0001:00014594       ??0CLogView@@IAE@XZ        00415594 f   LogView.obj
 0001:000145bc       ??1CLogView@@MAE@XZ        004155bc f   LogView.obj
 0001:000145d8       ?GetMessageMap@CLogView@@MBEPBUAFX_MSGMAP@@XZ 004155d8 f   LogView.obj
 0001:000145e8       ?OnDraw@CLogView@@MAEXPAVCDC@@@Z 004155e8 f   LogView.obj
 0001:00014602       ?OnInitialUpdate@CLogView@@UAEXXZ 00415602 f   LogView.obj
 0001:000146a8       ?AddToLog@CLogView@@QAEXVCString@@@Z 004156a8 f   LogView.obj
 0001:000147c2       ?OnChange@CLogView@@IAEXXZ 004157c2 f   LogView.obj
 0001:000148b0       ??_ECLogView@@MAEPAXI@Z    004158b0 f i LogView.obj
 0001:000148b0       ??_GCLogView@@MAEPAXI@Z    004158b0 f i LogView.obj
 0001:000148e0       ??0CTime@@QAE@ABV0@@Z      004158e0 f i LogView.obj
 0001:00014900       ??0CFont@@QAE@XZ           00415900 f i LogView.obj
 0001:00014920       ??0CGdiObject@@QAE@XZ      00415920 f i LogView.obj
 0001:00014950       ??_GCGdiObject@@UAEPAXI@Z  00415950 f i LogView.obj
 0001:00014950       ??_ECGdiObject@@UAEPAXI@Z  00415950 f i LogView.obj
 0001:00014980       ??1CGdiObject@@UAE@XZ      00415980 f i LogView.obj
 0001:000149e0       ??_GCFont@@UAEPAXI@Z       004159e0 f i LogView.obj
 0001:000149e0       ??_ECFont@@UAEPAXI@Z       004159e0 f i LogView.obj
 0001:00014a10       ??1CFont@@UAE@XZ           00415a10 f i LogView.obj
 0001:00014a30       ?SetFont@CWnd@@QAEXPAVCFont@@H@Z 00415a30 f i LogView.obj
 0001:00014a60       ?CreateObject@CMainFrame@@SGPAVCObject@@XZ 00415a60 f   MainFrm.obj
 0001:00014ac7       ?GetRuntimeClass@CMainFrame@@UBEPAUCRuntimeClass@@XZ 00415ac7 f   MainFrm.obj
 0001:00014ad7       ?GetMessageMap@CMainFrame@@MBEPBUAFX_MSGMAP@@XZ 00415ad7 f   MainFrm.obj
 0001:00014ae7       ??0CMainFrame@@IAE@XZ      00415ae7 f   MainFrm.obj
 0001:00014bae       ??1CMainFrame@@UAE@XZ      00415bae f   MainFrm.obj
 0001:00014c71       ?OnCreate@CMainFrame@@IAEHPAUtagCREATESTRUCTA@@@Z 00415c71 f   MainFrm.obj
 0001:00014f59       ?PreCreateWindow@CMainFrame@@UAEHAAUtagCREATESTRUCTA@@@Z 00415f59 f   MainFrm.obj
 0001:00014fe1       ?NotifyProc@CMainFrame@@SGXPAXPAUClientContext@@I@Z 00415fe1 f   MainFrm.obj
 0001:0001515d       ?Activate@CMainFrame@@QAEXII@Z 0041615d f   MainFrm.obj
 0001:000154a4       ?ProcessReceiveComplete@CMainFrame@@SAXPAUClientContext@@@Z 004164a4 f   MainFrm.obj
 0001:000156fd       ?ProcessReceive@CMainFrame@@SAXPAUClientContext@@@Z 004166fd f   MainFrm.obj
 0001:0001575a       ?OnClose@CMainFrame@@IAEXXZ 0041675a f   MainFrm.obj
 0001:000157cf       ?OnSysCommand@CMainFrame@@IAEXIJ@Z 004167cf f   MainFrm.obj
 0001:00015825       ?OnUpdateStatusBar@CMainFrame@@IAEXPAVCCmdUI@@@Z 00416825 f   MainFrm.obj
 0001:0001583e       ?ShowConnectionsNumber@CMainFrame@@QAEXXZ 0041683e f   MainFrm.obj
 0001:00015978       ?OnShow@CMainFrame@@IAEXXZ 00416978 f   MainFrm.obj
 0001:00015995       ?OnHide@CMainFrame@@IAEXXZ 00416995 f   MainFrm.obj
 0001:000159aa       ?OnExit@CMainFrame@@IAEXXZ 004169aa f   MainFrm.obj
 0001:000159bd       ?ShowToolTips@CMainFrame@@QAEXPBD@Z 004169bd f   MainFrm.obj
 0001:000159e5       ?OnAppExit@CMainFrame@@IAEXXZ 004169e5 f   MainFrm.obj
 0001:000159f8       ?OnSetting@CMainFrame@@IAEXXZ 004169f8 f   MainFrm.obj
 0001:00015a5b       ?OnBuild@CMainFrame@@IAEXXZ 00416a5b f   MainFrm.obj
 0001:00015abe       ?SetTheme@CMainFrame@@QAEXH@Z 00416abe f   MainFrm.obj
 0001:00015b25       ?OnEraseBkgnd@CMainFrame@@IAEHPAVCDC@@@Z 00416b25 f   MainFrm.obj
 0001:00015b37       ?CreatePane@CMainFrame@@IAEPAVCXTPDockingPane@@HHPAUCRuntimeClass@@VCString@@W4XTPDockingPaneDirection@@PAV2@@Z 00416b37 f   MainFrm.obj
 0001:00015d12       ?OnDockingPaneNotify@CMainFrame@@IAEJIJ@Z 00416d12 f   MainFrm.obj
 0001:00015d74       ?OnCustomize@CMainFrame@@IAEXXZ 00416d74 f   MainFrm.obj
 0001:00015f30       ??_GCMainFrame@@UAEPAXI@Z  00416f30 f i MainFrm.obj
 0001:00015f30       ??_ECMainFrame@@UAEPAXI@Z  00416f30 f i MainFrm.obj
 0001:00015f60       ??1CXTPFrameWnd@@UAE@XZ    00416f60 f i MainFrm.obj
 0001:00015f80       ??1CSetting@@UAE@XZ        00416f80 f i MainFrm.obj
 0001:00016020       ??1?$CXTPFrameWndBase@VCFrameWnd@@@@UAE@XZ 00417020 f i MainFrm.obj
 0001:00016040       ?LoadFrame@?$CXTPFrameWndBase@VCFrameWnd@@@@UAEHIKPAVCWnd@@PAUCCreateContext@@@Z 00417040 f i MainFrm.obj
 0001:000160b0       ?OnSetPreviewMode@?$CXTPFrameWndBase@VCFrameWnd@@@@UAEXHPAUCPrintPreviewState@@@Z 004170b0 f i MainFrm.obj
 0001:000160f0       ??1?$CXTPCommandBarsSiteBase@VCFrameWnd@@@@UAE@XZ 004170f0 f i MainFrm.obj
 0001:00016160       ?InitCommandBars@?$CXTPCommandBarsSiteBase@VCFrameWnd@@@@UAEHPAUCRuntimeClass@@@Z 00417160 f i MainFrm.obj
 0001:000161e0       ?SaveCommandBars@?$CXTPCommandBarsSiteBase@VCFrameWnd@@@@UAEXPBD@Z 004171e0 f i MainFrm.obj
 0001:00016240       ?LoadCommandBars@?$CXTPCommandBarsSiteBase@VCFrameWnd@@@@UAEXPBDH@Z 00417240 f i MainFrm.obj
 0001:000162a0       ?PreTranslateMessage@?$CXTPCommandBarsSiteBase@VCFrameWnd@@@@MAEHPAUtagMSG@@@Z 004172a0 f i MainFrm.obj
 0001:00016350       ?OnWndMsg@?$CXTPCommandBarsSiteBase@VCFrameWnd@@@@MAEHIIJPAJ@Z 00417350 f i MainFrm.obj
 0001:000163b0       ??0CRect@@QAE@HHHH@Z       004173b0 f i MainFrm.obj
 0001:000163f0       ?PostMessageA@CWnd@@QAEHIIJ@Z 004173f0 f i MainFrm.obj
 0001:00016420       ?SetTimer@CWnd@@QAEIIIP6GXPAUHWND__@@IIK@Z@Z 00417420 f i MainFrm.obj
 0001:00016450       ??_E?$CXTPFrameWndBase@VCFrameWnd@@@@UAEPAXI@Z 00417450 f i MainFrm.obj
 0001:00016450       ??_G?$CXTPFrameWndBase@VCFrameWnd@@@@UAEPAXI@Z 00417450 f i MainFrm.obj
 0001:00016480       ??_G?$CXTPCommandBarsSiteBase@VCFrameWnd@@@@UAEPAXI@Z 00417480 f i MainFrm.obj
 0001:00016480       ??_E?$CXTPCommandBarsSiteBase@VCFrameWnd@@@@UAEPAXI@Z 00417480 f i MainFrm.obj
 0001:000164b0       ?LoadIconA@CWinApp@@QBEPAUHICON__@@I@Z 004174b0 f i MainFrm.obj
 0001:000164e0       ??0CCreateContext@@QAE@XZ  004174e0 f i MainFrm.obj
 0001:00016500       ?XTPColorManager@@YAPAVCXTPColorManager@@XZ 00417500 f i MainFrm.obj
 0001:00016510       ??0?$CMap@IIPAVCWnd@@PAV1@@@QAE@H@Z 00417510 f i MainFrm.obj
 0001:00016570       ?Lookup@?$CMap@IIPAVCWnd@@PAV1@@@QBEHIAAPAVCWnd@@@Z 00417570 f i MainFrm.obj
 0001:000165b0       ?SetAt@?$CMap@IIPAVCWnd@@PAV1@@@QAEXIPAVCWnd@@@Z 004175b0 f i MainFrm.obj
 0001:000165d0       ??1?$CMap@IIPAVCWnd@@PAV1@@@UAE@XZ 004175d0 f i MainFrm.obj
 0001:00016630       ?Serialize@?$CMap@IIPAVCWnd@@PAV1@@@UAEXAAVCArchive@@@Z 00417630 f i MainFrm.obj
 0001:00016730       ??_G?$CMap@IIPAVCWnd@@PAV1@@@UAEPAXI@Z 00417730 f i MainFrm.obj
 0001:00016730       ??_E?$CMap@IIPAVCWnd@@PAV1@@@UAEPAXI@Z 00417730 f i MainFrm.obj
 0001:00016760       ?SerializeElements@@YGXAAVCArchive@@PAIH@Z 00417760 f i MainFrm.obj
 0001:00016760       ?SerializeElements@@YGXAAVCArchive@@PAPAVCWnd@@H@Z 00417760 f i MainFrm.obj
 0001:00016760       ?SerializeElements@@YGXAAVCArchive@@PAPAUClientContext@@H@Z 00417760 f i MainFrm.obj
 0001:000167a0       ?GetCommandBarsOptions@CXTPCommandBars@@QBEPAVCXTPCommandBarsOptions@@XZ 004177a0 f i MainFrm.obj
 0001:000167c0       ?XTPPaintManager@@YAPAVCXTPPaintManager@@XZ 004177c0 f i MainFrm.obj
 0001:000167e0       ?GetOriginalAccelerator@CXTPShortcutManager@@QBEPAVCXTPShortcutManagerAccelTable@@XZ 004177e0 f i MainFrm.obj
 0001:00016800       ?GetCommandsPage@CXTPCustomizeSheet@@QBEPAVCXTPCustomizeCommandsPage@@XZ 00417800 f i MainFrm.obj
 0001:00016820       ?GetID@CXTPDockingPane@@QBEHXZ 00417820 f i MainFrm.obj
 0001:00016840       ?SetIconID@CXTPDockingPane@@QAEXI@Z 00417840 f i MainFrm.obj
 0001:00016860       ??A?$CMap@IIPAVCWnd@@PAV1@@@QAEAAPAVCWnd@@I@Z 00417860 f i MainFrm.obj
 0001:000168f0       ?RemoveAll@?$CMap@IIPAVCWnd@@PAV1@@@QAEXXZ 004178f0 f i MainFrm.obj
 0001:000169b0       ?GetAssocAt@?$CMap@IIPAVCWnd@@PAV1@@@IBEPAUCAssoc@1@IAAI@Z 004179b0 f i MainFrm.obj
 0001:00016a20       ?InitHashTable@?$CMap@IIPAVCWnd@@PAV1@@@QAEXIH@Z 00417a20 f i MainFrm.obj
 0001:00016aa0       ?NewAssoc@?$CMap@IIPAVCWnd@@PAV1@@@IAEPAUCAssoc@1@XZ 00417aa0 f i MainFrm.obj
 0001:00016b70       ?HashKey@@YGII@Z           00417b70 f i MainFrm.obj
 0001:00016b80       ?CompareElements@@YGHPBI0@Z 00417b80 f i MainFrm.obj
 0001:00016ba0       ??_ECMainFrame@@WMA@AEPAXI@Z 00417ba0 f i MainFrm.obj
 0001:00016bb0       ??0CMsgBox@@QAE@PAVCWnd@@@Z 00417bb0 f   MsgBox.obj
 0001:00016caa       ?DoDataExchange@CMsgBox@@MAEXPAVCDataExchange@@@Z 00417caa f   MsgBox.obj
 0001:00016d4e       ?GetMessageMap@CMsgBox@@MBEPBUAFX_MSGMAP@@XZ 00417d4e f   MsgBox.obj
 0001:00016d5e       ?OnInitDialog@CMsgBox@@MAEHXZ 00417d5e f   MsgBox.obj
 0001:00016e0f       ?OnSend@CMsgBox@@IAEXXZ    00417e0f f   MsgBox.obj
 0001:00016ed9       ?OnShow@CMsgBox@@IAEXXZ    00417ed9 f   MsgBox.obj
 0001:00016f25       ?OnRadio12@CMsgBox@@IAEXXZ 00417f25 f   MsgBox.obj
 0001:00016f3a       ?OnRadio11@CMsgBox@@IAEXXZ 00417f3a f   MsgBox.obj
 0001:00016f4f       ?OnRadio10@CMsgBox@@IAEXXZ 00417f4f f   MsgBox.obj
 0001:00016f64       ?OnRadio7@CMsgBox@@IAEXXZ  00417f64 f   MsgBox.obj
 0001:00016f79       ?OnRadio13@CMsgBox@@IAEXXZ 00417f79 f   MsgBox.obj
 0001:00016f8e       ?OnRadio5@CMsgBox@@IAEXXZ  00417f8e f   MsgBox.obj
 0001:00016fa3       ?OnRadio8@CMsgBox@@IAEXXZ  00417fa3 f   MsgBox.obj
 0001:00016fb8       ?OnRadio1@CMsgBox@@IAEXXZ  00417fb8 f   MsgBox.obj
 0001:00016fcd       ?OnRadio2@CMsgBox@@IAEXXZ  00417fcd f   MsgBox.obj
 0001:00016fe2       ?OnRadio3@CMsgBox@@IAEXXZ  00417fe2 f   MsgBox.obj
 0001:00016ff7       ?OnRadio4@CMsgBox@@IAEXXZ  00417ff7 f   MsgBox.obj
 0001:000170c0       ??_ECMsgBox@@UAEPAXI@Z     004180c0 f i MsgBox.obj
 0001:000170c0       ??_GCMsgBox@@UAEPAXI@Z     004180c0 f i MsgBox.obj
 0001:000170f0       ??0CStatic@@QAE@XZ         004180f0 f i MsgBox.obj
 0001:00017110       ??_GCStatic@@UAEPAXI@Z     00418110 f i MsgBox.obj
 0001:00017110       ??_ECStatic@@UAEPAXI@Z     00418110 f i MsgBox.obj
 0001:00017140       ?SetCheck@CButton@@QAEXH@Z 00418140 f i MsgBox.obj
 0001:00017170       ??0CScreenSpyDlg@@QAE@PAVCWnd@@PAVCIOCPServer@@PAUClientContext@@@Z 00418170 f   ScreenSpyDlg.obj
 0001:00017419       ?OnClose@CScreenSpyDlg@@IAEXXZ 00418419 f   ScreenSpyDlg.obj
 0001:000174d6       ?DoDataExchange@CScreenSpyDlg@@MAEXPAVCDataExchange@@@Z 004184d6 f   ScreenSpyDlg.obj
 0001:000174ef       ?GetMessageMap@CScreenSpyDlg@@MBEPBUAFX_MSGMAP@@XZ 004184ef f   ScreenSpyDlg.obj
 0001:000174ff       ?OnReceiveComplete@CScreenSpyDlg@@QAEXXZ 004184ff f   ScreenSpyDlg.obj
 0001:000175de       ?SaveSnapshot@CScreenSpyDlg@@AAE_NXZ 004185de f   ScreenSpyDlg.obj
 0001:0001789b       ?OnReceive@CScreenSpyDlg@@QAEXXZ 0041889b f   ScreenSpyDlg.obj
 0001:00017950       ?SendResetScreen@CScreenSpyDlg@@AAEXH@Z 00418950 f   ScreenSpyDlg.obj
 0001:00017999       ?SendResetAlgorithm@CScreenSpyDlg@@AAEXI@Z 00418999 f   ScreenSpyDlg.obj
 0001:000179d0       ?OnInitDialog@CScreenSpyDlg@@MAEHXZ 004189d0 f   ScreenSpyDlg.obj
 0001:00017dbf       ?ResetScreen@CScreenSpyDlg@@AAEXXZ 00418dbf f   ScreenSpyDlg.obj
 0001:00017fca       ?DrawFirstScreen@CScreenSpyDlg@@AAEXXZ 00418fca f   ScreenSpyDlg.obj
 0001:0001801a       ?DrawNextScreenDiff@CScreenSpyDlg@@AAEXXZ 0041901a f   ScreenSpyDlg.obj
 0001:000181b8       ?DrawNextScreenRect@CScreenSpyDlg@@AAEXXZ 004191b8 f   ScreenSpyDlg.obj
 0001:00018547       ?OnPaint@CScreenSpyDlg@@IAEXXZ 00419547 f   ScreenSpyDlg.obj
 0001:000186c6       ?OnSize@CScreenSpyDlg@@IAEXIHH@Z 004196c6 f   ScreenSpyDlg.obj
 0001:00018872       ?OnSysCommand@CScreenSpyDlg@@IAEXIJ@Z 00419872 f   ScreenSpyDlg.obj
 0001:00018d11       ?OnGetMiniMaxInfo@CScreenSpyDlg@@AAEJIJ@Z 00419d11 f   ScreenSpyDlg.obj
 0001:00018d3e       ?DrawTipString@CScreenSpyDlg@@AAEXVCString@@@Z 00419d3e f   ScreenSpyDlg.obj
 0001:00018e2d       ?InitMMI@CScreenSpyDlg@@AAEXXZ 00419e2d f   ScreenSpyDlg.obj
 0001:00018f22       ?PreTranslateMessage@CScreenSpyDlg@@UAEHPAUtagMSG@@@Z 00419f22 f   ScreenSpyDlg.obj
 0001:000190cc       ?PostNcDestroy@CScreenSpyDlg@@MAEXXZ 0041a0cc f   ScreenSpyDlg.obj
 0001:0001910c       ?SendCommand@CScreenSpyDlg@@AAEXPAUtagMSG@@@Z 0041a10c f   ScreenSpyDlg.obj
 0001:0001918a       ?OnHScroll@CScreenSpyDlg@@IAEXIIPAVCScrollBar@@@Z 0041a18a f   ScreenSpyDlg.obj
 0001:000192c4       ?OnVScroll@CScreenSpyDlg@@IAEXIIPAVCScrollBar@@@Z 0041a2c4 f   ScreenSpyDlg.obj
 0001:000193f8       ?UpdateLocalClipboard@CScreenSpyDlg@@AAEXPADH@Z 0041a3f8 f   ScreenSpyDlg.obj
 0001:00019477       ?SendLocalClipboard@CScreenSpyDlg@@AAEXXZ 0041a477 f   ScreenSpyDlg.obj
 0001:00019545       ?SendNext@CScreenSpyDlg@@AAEXXZ 0041a545 f   ScreenSpyDlg.obj
 0001:00019630       ??0CCursorInfo@@QAE@XZ     0041a630 f i ScreenSpyDlg.obj
 0001:00019700       ??1CCursorInfo@@UAE@XZ     0041a700 f i ScreenSpyDlg.obj
 0001:00019750       ??_ECCursorInfo@@UAEPAXI@Z 0041a750 f i ScreenSpyDlg.obj
 0001:00019750       ??_GCCursorInfo@@UAEPAXI@Z 0041a750 f i ScreenSpyDlg.obj
 0001:00019780       ??_GCScreenSpyDlg@@UAEPAXI@Z 0041a780 f i ScreenSpyDlg.obj
 0001:00019780       ??_ECScreenSpyDlg@@UAEPAXI@Z 0041a780 f i ScreenSpyDlg.obj
 0001:000197b0       ??1CScreenSpyDlg@@UAE@XZ   0041a7b0 f i ScreenSpyDlg.obj
 0001:00019810       ?getCursorHandle@CCursorInfo@@QAEPAUHICON__@@H@Z 0041a810 f i ScreenSpyDlg.obj
 0001:00019840       ?CheckMenuItem@CMenu@@QAEIII@Z 0041a840 f i ScreenSpyDlg.obj
 0001:00019870       ?GetMenuState@CMenu@@QBEIII@Z 0041a870 f i ScreenSpyDlg.obj
 0001:000198a0       ?CheckMenuRadioItem@CMenu@@QAEHIIII@Z 0041a8a0 f i ScreenSpyDlg.obj
 0001:000198d0       ?GetWindowRect@CWnd@@QBEXPAUtagRECT@@@Z 0041a8d0 f i ScreenSpyDlg.obj
 0001:000198f0       ?ShowScrollBar@CWnd@@QAEXIH@Z 0041a8f0 f i ScreenSpyDlg.obj
 0001:00019920       ??0CSetting@@QAE@PAVCWnd@@@Z 0041a920 f   Setting.obj
 0001:00019b57       ?DoDataExchange@CSetting@@MAEXPAVCDataExchange@@@Z 0041ab57 f   Setting.obj
 0001:00019c76       ?GetMessageMap@CSetting@@MBEPBUAFX_MSGMAP@@XZ 0041ac76 f   Setting.obj
 0001:00019c86       ?OnApply@CSetting@@IAEXXZ  0041ac86 f   Setting.obj
 0001:00019e9b       ?OnDisablePoptips@CSetting@@IAEXXZ 0041ae9b f   Setting.obj
 0001:00019fc6       ?OnConnectAuto@CSetting@@IAEXXZ 0041afc6 f   Setting.obj
 0001:0001a108       ?OnInitDialog@CSetting@@MAEHXZ 0041b108 f   Setting.obj
 0001:0001a2a0       ??_ECSetting@@UAEPAXI@Z    0041b2a0 f i Setting.obj
 0001:0001a2a0       ??_GCSetting@@UAEPAXI@Z    0041b2a0 f i Setting.obj
 0001:0001a2d0       ?GetCheck@CButton@@QBEHXZ  0041b2d0 f i Setting.obj
 0001:0001a300       ?SetFlatStyle@CXTPEdit@@QAEXH@Z 0041b300 f i Setting.obj
 0001:0001a330       ??0SEU_QQwry@@QAE@XZ       0041b330 f   SEU_QQwry.obj
 0001:0001a38a       ??1SEU_QQwry@@UAE@XZ       0041b38a f   SEU_QQwry.obj
 0001:0001a3ed       ?OpenQQwry@SEU_QQwry@@QAE_NVCString@@@Z 0041b3ed f   SEU_QQwry.obj
 0001:0001a473       ?CloseQQwry@SEU_QQwry@@QAEXXZ 0041b473 f   SEU_QQwry.obj
 0001:0001a499       ?GetBE@SEU_QQwry@@QAE_NXZ  0041b499 f   SEU_QQwry.obj
 0001:0001a4e9       ?GetStartIPInfo@SEU_QQwry@@QAEHH@Z 0041b4e9 f   SEU_QQwry.obj
 0001:0001a8a6       ?GetRecordCount@SEU_QQwry@@QAEHXZ 0041b8a6 f   SEU_QQwry.obj
 0001:0001a8ee       ?GetStr@SEU_QQwry@@QAE?AVCString@@H@Z 0041b8ee f   SEU_QQwry.obj
 0001:0001a9eb       ?GetCountryLocal@SEU_QQwry@@QAE?AVCString@@H@Z 0041b9eb f   SEU_QQwry.obj
 0001:0001aa60       ?GetCountryLocal@SEU_QQwry@@QAE?AVCString@@EH@Z 0041ba60 f   SEU_QQwry.obj
 0001:0001afaf       ?GetStr@SEU_QQwry@@QAE?AVCString@@XZ 0041bfaf f   SEU_QQwry.obj
 0001:0001b06f       ?SaveToFile@SEU_QQwry@@QAEXVCString@@@Z 0041c06f f   SEU_QQwry.obj
 0001:0001b2eb       ?IPtoAdd@SEU_QQwry@@QAE?AVCString@@V2@@Z 0041c2eb f   SEU_QQwry.obj
 0001:0001b3aa       ?GetIndex@SEU_QQwry@@QAEHVCString@@@Z 0041c3aa f   SEU_QQwry.obj
 0001:0001b4ef       ?GetSIP@SEU_QQwry@@QAEKH@Z 0041c4ef f   SEU_QQwry.obj
 0001:0001b5e2       ?IPtoDWORD@SEU_QQwry@@QAEKVCString@@@Z 0041c5e2 f   SEU_QQwry.obj
 0001:0001b729       ?SetPath@SEU_QQwry@@QAEXVCString@@@Z 0041c729 f   SEU_QQwry.obj
 0001:0001b850       ??_ESEU_QQwry@@UAEPAXI@Z   0041c850 f i SEU_QQwry.obj
 0001:0001b850       ??_GSEU_QQwry@@UAEPAXI@Z   0041c850 f i SEU_QQwry.obj
 0001:0001b880       ??0CShellDlg@@QAE@PAVCWnd@@PAVCIOCPServer@@PAUClientContext@@@Z 0041c880 f   ShellDlg.obj
 0001:0001b925       ?DoDataExchange@CShellDlg@@MAEXPAVCDataExchange@@@Z 0041c925 f   ShellDlg.obj
 0001:0001b953       ?GetMessageMap@CShellDlg@@MBEPBUAFX_MSGMAP@@XZ 0041c953 f   ShellDlg.obj
 0001:0001b963       ?PreTranslateMessage@CShellDlg@@UAEHPAUtagMSG@@@Z 0041c963 f   ShellDlg.obj
 0001:0001bb0c       ?OnInitDialog@CShellDlg@@MAEHXZ 0041cb0c f   ShellDlg.obj
 0001:0001bc49       ?OnReceiveComplete@CShellDlg@@QAEXXZ 0041cc49 f   ShellDlg.obj
 0001:0001bc70       ?AddKeyBoardData@CShellDlg@@AAEXXZ 0041cc70 f   ShellDlg.obj
 0001:0001bd45       ?OnClose@CShellDlg@@IAEXXZ 0041cd45 f   ShellDlg.obj
 0001:0001bd6a       ?ResizeEdit@CShellDlg@@AAEXXZ 0041cd6a f   ShellDlg.obj
 0001:0001bdae       ?OnSize@CShellDlg@@IAEXIHH@Z 0041cdae f   ShellDlg.obj
 0001:0001bdd7       ?OnChangeEdit@CShellDlg@@IAEXXZ 0041cdd7 f   ShellDlg.obj
 0001:0001be0c       ?OnCtlColor@CShellDlg@@IAEPAUHBRUSH__@@PAVCDC@@PAVCWnd@@I@Z 0041ce0c f   ShellDlg.obj
 0001:0001bf30       ??_GCShellDlg@@UAEPAXI@Z   0041cf30 f i ShellDlg.obj
 0001:0001bf30       ??_ECShellDlg@@UAEPAXI@Z   0041cf30 f i ShellDlg.obj
 0001:0001bf60       ??1CShellDlg@@UAE@XZ       0041cf60 f i ShellDlg.obj
 0001:0001bfb0       ??0CString@@QAE@PBE@Z      0041cfb0 f i ShellDlg.obj
 0001:0001bfe0       ?Init@CString@@IAEXXZ      0041cfe0 f i ShellDlg.obj
 0001:0001c000       ?GetRuntimeClass@CSplashScreenEx@@UBEPAUCRuntimeClass@@XZ 0041d000 f   SplashScreenEx.obj
 0001:0001c010       ??0CSplashScreenEx@@QAE@XZ 0041d010 f   SplashScreenEx.obj
 0001:0001c156       ??1CSplashScreenEx@@UAE@XZ 0041d156 f   SplashScreenEx.obj
 0001:0001c1c8       ?Create@CSplashScreenEx@@QAEHPAVCWnd@@PBDK@Z 0041d1c8 f   SplashScreenEx.obj
 0001:0001c30b       ?SetBitmap@CSplashScreenEx@@QAEHIFFF@Z 0041d30b f   SplashScreenEx.obj
 0001:0001c48d       ?SetBitmap@CSplashScreenEx@@QAEHPBDFFF@Z 0041d48d f   SplashScreenEx.obj
 0001:0001c62c       ?SetTextFont@CSplashScreenEx@@QAEXPBDHH@Z 0041d62c f   SplashScreenEx.obj
 0001:0001c6c6       ?SetTextDefaultFont@CSplashScreenEx@@QAEXXZ 0041d6c6 f   SplashScreenEx.obj
 0001:0001c70a       ?SetText@CSplashScreenEx@@QAEXPBD@Z 0041d70a f   SplashScreenEx.obj
 0001:0001c737       ?SetTextColor@CSplashScreenEx@@QAEXK@Z 0041d737 f   SplashScreenEx.obj
 0001:0001c75e       ?SetTextRect@CSplashScreenEx@@QAEXAAVCRect@@@Z 0041d75e f   SplashScreenEx.obj
 0001:0001c79b       ?SetTextFormat@CSplashScreenEx@@QAEXI@Z 0041d79b f   SplashScreenEx.obj
 0001:0001c7b1       ?Show@CSplashScreenEx@@QAEXXZ 0041d7b1 f   SplashScreenEx.obj
 0001:0001c826       ?Hide@CSplashScreenEx@@QAEXXZ 0041d826 f   SplashScreenEx.obj
 0001:0001c875       ?CreateRgnFromBitmap@CSplashScreenEx@@IAEPAUHRGN__@@PAUHBITMAP__@@K@Z 0041d875 f   SplashScreenEx.obj
 0001:0001cc04       ?DrawWindow@CSplashScreenEx@@IAEXPAVCDC@@@Z 0041dc04 f   SplashScreenEx.obj
 0001:0001cd0d       ?GetMessageMap@CSplashScreenEx@@MBEPBUAFX_MSGMAP@@XZ 0041dd0d f   SplashScreenEx.obj
 0001:0001cd1d       ?OnEraseBkgnd@CSplashScreenEx@@QAEHPAVCDC@@@Z 0041dd1d f   SplashScreenEx.obj
 0001:0001cd2f       ?OnPaint@CSplashScreenEx@@QAEXXZ 0041dd2f f   SplashScreenEx.obj
 0001:0001cd89       ?OnPrintClient@CSplashScreenEx@@QAEJIJ@Z 0041dd89 f   SplashScreenEx.obj
 0001:0001cdb5       ?PostNcDestroy@CSplashScreenEx@@MAEXXZ 0041ddb5 f   SplashScreenEx.obj
 0001:0001ceb0       ??_GCSplashScreenEx@@UAEPAXI@Z 0041deb0 f i SplashScreenEx.obj
 0001:0001ceb0       ??_ECSplashScreenEx@@UAEPAXI@Z 0041deb0 f i SplashScreenEx.obj
 0001:0001cee0       ?SetRect@CRect@@QAEXHHHH@Z 0041dee0 f i SplashScreenEx.obj
 0001:0001cf10       ?FromHandle@CFont@@SGPAV1@PAUHFONT__@@@Z 0041df10 f i SplashScreenEx.obj
 0001:0001cf20       ?CreateFontIndirectA@CFont@@QAEHPBUtagLOGFONTA@@@Z 0041df20 f i SplashScreenEx.obj
 0001:0001cf40       ?GetLogFont@CFont@@QAEHPAUtagLOGFONTA@@@Z 0041df40 f i SplashScreenEx.obj
 0001:0001cf60       ??0CBitmap@@QAE@XZ         0041df60 f i SplashScreenEx.obj
 0001:0001cf80       ??_ECBitmap@@UAEPAXI@Z     0041df80 f i SplashScreenEx.obj
 0001:0001cf80       ??_GCBitmap@@UAEPAXI@Z     0041df80 f i SplashScreenEx.obj
 0001:0001cfb0       ??1CBitmap@@UAE@XZ         0041dfb0 f i SplashScreenEx.obj
 0001:0001cfd0       ?LoadBitmapA@CBitmap@@QAEHI@Z 0041dfd0 f i SplashScreenEx.obj
 0001:0001d000       ?CreateCompatibleDC@CDC@@QAEHPAV1@@Z 0041e000 f i SplashScreenEx.obj
 0001:0001d030       ?GetSafeHdc@CDC@@QBEPAUHDC__@@XZ 0041e030 f i SplashScreenEx.obj
 0001:0001d060       ?SelectObject@CDC@@QAEPAVCBitmap@@PAV2@@Z 0041e060 f i SplashScreenEx.obj
 0001:0001d090       ?SelectObject@CDC@@QAEPAXPAX@Z 0041e090 f i SplashScreenEx.obj
 0001:0001d0d0       ?BitBlt@CDC@@QAEHHHHHPAV1@HHK@Z 0041e0d0 f i SplashScreenEx.obj
 0001:0001d110       ?GetPixel@CDC@@QBEKHH@Z    0041e110 f i SplashScreenEx.obj
 0001:0001d140       ?SetWindowRgn@CWnd@@QAEHPAUHRGN__@@H@Z 0041e140 f i SplashScreenEx.obj
 0001:0001d170       ?GetDC@CWnd@@QAEPAVCDC@@XZ 0041e170 f i SplashScreenEx.obj
 0001:0001d240       ??0CSysInfo@@QAE@PAVCWnd@@PAVCIOCPServer@@PAUClientContext@@@Z 0041e240 f   SysInfo.obj
 0001:0001d504       ?DoDataExchange@CSysInfo@@MAEXPAVCDataExchange@@@Z 0041e504 f   SysInfo.obj
 0001:0001d680       ?GetMessageMap@CSysInfo@@MBEPBUAFX_MSGMAP@@XZ 0041e680 f   SysInfo.obj
 0001:0001d690       ?OnInitDialog@CSysInfo@@MAEHXZ 0041e690 f   SysInfo.obj
 0001:0001da06       ?OnReceiveComplete@CSysInfo@@QAEXXZ 0041ea06 f   SysInfo.obj
 0001:0001dbd1       ?GetSysinfoList@CSysInfo@@AAEXXZ 0041ebd1 f   SysInfo.obj
 0001:0001dc00       ?ShowSysinfoList@CSysInfo@@AAEXXZ 0041ec00 f   SysInfo.obj
 0001:0001df55       ?OnClose@CSysInfo@@IAEXXZ  0041ef55 f   SysInfo.obj
 0001:0001dfbc       ?PreTranslateMessage@CSysInfo@@UAEHPAUtagMSG@@@Z 0041efbc f   SysInfo.obj
 0001:0001dffa       ?OnCreat@CSysInfo@@IAEXXZ  0041effa f   SysInfo.obj
 0001:0001e1e0       ?OnGuest@CSysInfo@@IAEXXZ  0041f1e0 f   SysInfo.obj
 0001:0001e223       ?OnStop@CSysInfo@@IAEXXZ   0041f223 f   SysInfo.obj
 0001:0001e266       ?OnConnect@CSysInfo@@IAEXXZ 0041f266 f   SysInfo.obj
 0001:0001e48a       ?OnProxy@CSysInfo@@IAEXXZ  0041f48a f   SysInfo.obj
 0001:0001e71c       ?OnSocks5@CSysInfo@@IAEXXZ 0041f71c f   SysInfo.obj
 0001:0001e76d       ?OnClose3389@CSysInfo@@IAEXXZ 0041f76d f   SysInfo.obj
 0001:0001e79c       ?OnOpen3389@CSysInfo@@IAEXXZ 0041f79c f   SysInfo.obj
 0001:0001e874       ?OnChange@CSysInfo@@IAEXXZ 0041f874 f   SysInfo.obj
 0001:0001e956       ?SendFileData@CSysInfo@@IAEXXZ 0041f956 f   SysInfo.obj
 0001:0001eb01       ?ShowProgress@CSysInfo@@IAEXXZ 0041fb01 f   SysInfo.obj
 0001:0001ebb6       ?EndLocalUploadFile@CSysInfo@@IAEXXZ 0041fbb6 f   SysInfo.obj
 0001:0001ec9f       ?SendUploadJob@CSysInfo@@IAEHXZ 0041fc9f f   SysInfo.obj
 0001:0001ee3b       ?PortTransfer@CSysInfo@@SGKPAX@Z 0041fe3b f   SysInfo.obj
 0001:0001ee67       ?OnLanConnect@CSysInfo@@IAEXXZ 0041fe67 f   SysInfo.obj
 0001:0001f147       ?ShowSelectWindow@CSysInfo@@AAEXXZ 00420147 f   SysInfo.obj
 0001:0001f265       ?OnSelchangeSystemTab@CSysInfo@@IAEXPAUtagNMHDR@@PAJ@Z 00420265 f   SysInfo.obj
 0001:0001f283       ?GetSevList@CSysInfo@@AAEXXZ 00420283 f   SysInfo.obj
 0001:0001f2b2       ?ShowSevList@CSysInfo@@AAEXXZ 004202b2 f   SysInfo.obj
 0001:0001f3d8       ?GetWtsmList@CSysInfo@@AAEXXZ 004203d8 f   SysInfo.obj
 0001:0001f407       ?ShowWtsList@CSysInfo@@AAEXXZ 00420407 f   SysInfo.obj
 0001:0001f5e1       ?OnRclickListSev@CSysInfo@@IAEXPAUtagNMHDR@@PAJ@Z 004205e1 f   SysInfo.obj
 0001:0001f6ae       ?OnRefreshpslist@CSysInfo@@IAEXXZ 004206ae f   SysInfo.obj
 0001:0001f707       ?OnDeluser@CSysInfo@@IAEXXZ 00420707 f   SysInfo.obj
 0001:0001f917       ?OnChangepassword@CSysInfo@@IAEXXZ 00420917 f   SysInfo.obj
 0001:0001fc18       ?OnRclickListWts@CSysInfo@@IAEXPAUtagNMHDR@@PAJ@Z 00420c18 f   SysInfo.obj
 0001:0001fce5       ?OnDisconnectUser@CSysInfo@@IAEXXZ 00420ce5 f   SysInfo.obj
 0001:0001feac       ?OnLogoffUser@CSysInfo@@IAEXXZ 00420eac f   SysInfo.obj
 0001:00020073       ?SetClipboardTexts1@@YAXAAVCString@@@Z 00421073 f   SysInfo.obj
 0001:000200f9       ?OnCopy@CSysInfo@@IAEXXZ   004210f9 f   SysInfo.obj
 0001:00020314       ?OnRclickInfoList@CSysInfo@@IAEXPAUtagNMHDR@@PAJ@Z 00421314 f   SysInfo.obj
 0001:00020490       ??_GCSysInfo@@UAEPAXI@Z    00421490 f i SysInfo.obj
 0001:00020490       ??_ECSysInfo@@UAEPAXI@Z    00421490 f i SysInfo.obj
 0001:000204c0       ??1CSysInfo@@UAE@XZ        004214c0 f i SysInfo.obj
 0001:00020630       __tcsrchr                  00421630 f i SysInfo.obj
 0001:00020650       ??0CListCtrl@@QAE@XZ       00421650 f i SysInfo.obj
 0001:00020670       ??_GCListCtrl@@UAEPAXI@Z   00421670 f i SysInfo.obj
 0001:00020670       ??_ECListCtrl@@UAEPAXI@Z   00421670 f i SysInfo.obj
 0001:000206a0       ?InsertItem@CListCtrl@@QAEHHPBD@Z 004216a0 f i SysInfo.obj
 0001:000206d0       ??0CTabCtrl@@QAE@XZ        004216d0 f i SysInfo.obj
 0001:000206f0       ??_ECTabCtrl@@UAEPAXI@Z    004216f0 f i SysInfo.obj
 0001:000206f0       ??_GCTabCtrl@@UAEPAXI@Z    004216f0 f i SysInfo.obj
 0001:00020720       ?InsertItem@CTabCtrl@@QAEHHPBD@Z 00421720 f i SysInfo.obj
 0001:00020750       ?GetCurSel@CTabCtrl@@QBEHXZ 00421750 f i SysInfo.obj
 0001:00020780       ??0CSystemDlg@@QAE@PAVCWnd@@PAVCIOCPServer@@PAUClientContext@@@Z 00421780 f   SystemDlg.obj
 0001:0002084e       ?DoDataExchange@CSystemDlg@@MAEXPAVCDataExchange@@@Z 0042184e f   SystemDlg.obj
 0001:000208c3       ?OnReceiveComplete@CSystemDlg@@QAEXXZ 004218c3 f   SystemDlg.obj
 0001:00020918       ?GetMessageMap@CSystemDlg@@MBEPBUAFX_MSGMAP@@XZ 00421918 f   SystemDlg.obj
 0001:00020928       ?ShowProcessList@CSystemDlg@@AAEXXZ 00421928 f   SystemDlg.obj
 0001:00020adf       ?ShowWindowsList@CSystemDlg@@AAEXXZ 00421adf f   SystemDlg.obj
 0001:00020c63       ?ShowDialupassList@CSystemDlg@@AAEXXZ 00421c63 f   SystemDlg.obj
 0001:00020d3a       ?OnInitDialog@CSystemDlg@@EAEHXZ 00421d3a f   SystemDlg.obj
 0001:00020fc6       ?PreTranslateMessage@CSystemDlg@@UAEHPAUtagMSG@@@Z 00421fc6 f   SystemDlg.obj
 0001:00021004       ?OnClose@CSystemDlg@@AAEXXZ 00422004 f   SystemDlg.obj
 0001:00021029       ?OnSize@CSystemDlg@@AAEXIHH@Z 00422029 f   SystemDlg.obj
 0001:00021052       ?AdjustList@CSystemDlg@@AAEXXZ 00422052 f   SystemDlg.obj
 0001:000210be       ?ShowSelectWindow@CSystemDlg@@AAEXXZ 004220be f   SystemDlg.obj
 0001:000211d0       ?OnRclickList@CSystemDlg@@AAEXPAUtagNMHDR@@PAJ@Z 004221d0 f   SystemDlg.obj
 0001:0002127a       ?OnKillprocess@CSystemDlg@@AAEXXZ 0042227a f   SystemDlg.obj
 0001:00021436       ?OnRefreshPsList@CSystemDlg@@AAEXXZ 00422436 f   SystemDlg.obj
 0001:00021475       ?GetProcessList@CSystemDlg@@AAEXXZ 00422475 f   SystemDlg.obj
 0001:000214a4       ?GetWindowsList@CSystemDlg@@AAEXXZ 004224a4 f   SystemDlg.obj
 0001:000214d3       ?GetDialupassList@CSystemDlg@@AAEXXZ 004224d3 f   SystemDlg.obj
 0001:00021502       ?OnSelchangeTab@CSystemDlg@@AAEXPAUtagNMHDR@@PAJ@Z 00422502 f   SystemDlg.obj
 0001:000215d0       ??_GCSystemDlg@@UAEPAXI@Z  004225d0 f i SystemDlg.obj
 0001:000215d0       ??_ECSystemDlg@@UAEPAXI@Z  004225d0 f i SystemDlg.obj
 0001:00021600       ??1CSystemDlg@@UAE@XZ      00422600 f i SystemDlg.obj
 0001:00021690       ?SetColumn@CListCtrl@@QAEHHPBUtagLVCOLUMNA@@@Z 00422690 f i SystemDlg.obj
 0001:000216c0       ?CreateObject@CTabView@@SGPAVCObject@@XZ 004226c0 f   TabView.obj
 0001:00021727       ?GetRuntimeClass@CTabView@@UBEPAUCRuntimeClass@@XZ 00422727 f   TabView.obj
 0001:00021737       ??0CTabView@@IAE@XZ        00422737 f   TabView.obj
 0001:00021797       ??1CTabView@@MAE@XZ        00422797 f   TabView.obj
 0001:000217eb       ?GetMessageMap@CTabView@@MBEPBUAFX_MSGMAP@@XZ 004227eb f   TabView.obj
 0001:000217fb       ?OnDraw@CTabView@@MAEXPAVCDC@@@Z 004227fb f   TabView.obj
 0001:00021815       ?PreCreateWindow@CTabView@@MAEHAAUtagCREATESTRUCTA@@@Z 00422815 f   TabView.obj
 0001:00021840       ?OnSize@CTabView@@IAEXIHH@Z 00422840 f   TabView.obj
 0001:00021889       ?OnPaint@CTabView@@IAEXXZ  00422889 f   TabView.obj
 0001:0002191c       ?AddView@CTabView@@AAEHPAUCRuntimeClass@@PBD@Z 0042291c f   TabView.obj
 0001:00021ad1       ?OnAddFindGroup@CTabView@@AAEJIJ@Z 00422ad1 f   TabView.obj
 0001:00021e48       ?UpdateDocTitle@CTabView@@QAEXXZ 00422e48 f   TabView.obj
 0001:00021e6e       ?OnSelectedChanged@CTabView@@IAEXPAUtagNMHDR@@PAJ@Z 00422e6e f   TabView.obj
 0001:00021ed0       ?OnCreate@CTabView@@IAEHPAUtagCREATESTRUCTA@@@Z 00422ed0 f   TabView.obj
 0001:00021f99       ?OnMouseActivate@CTabView@@IAEHPAVCWnd@@II@Z 00422f99 f   TabView.obj
 0001:00021fba       ?AddGroup@CTabView@@QAEHPBD@Z 00422fba f   TabView.obj
 0001:00021fe0       ?UpDateNumber@CTabView@@QAEHXZ 00422fe0 f   TabView.obj
 0001:00022230       ??_ECTabView@@MAEPAXI@Z    00423230 f i TabView.obj
 0001:00022230       ??_GCTabView@@MAEPAXI@Z    00423230 f i TabView.obj
 0001:00022260       ?GetDocument@CTabView@@QAEPAVCClientDoc@@XZ 00423260 f i TabView.obj
 0001:00022280       ??1AFX_EXCEPTION_LINK@@QAE@XZ 00423280 f i TabView.obj
 0001:00022290       ?SetOwner@CWnd@@QAEXPAV1@@Z 00423290 f i TabView.obj
 0001:000222c0       ?GetDocTemplate@CDocument@@QBEPAVCDocTemplate@@XZ 004232c0 f i TabView.obj
 0001:000222e0       ??0CTrueColorToolBar@@QAE@XZ 004232e0 f   TrueColorToolBar.obj
 0001:00022347       ??1CTrueColorToolBar@@UAE@XZ 00423347 f   TrueColorToolBar.obj
 0001:0002239e       ?GetMessageMap@CTrueColorToolBar@@MBEPBUAFX_MSGMAP@@XZ 0042339e f   TrueColorToolBar.obj
 0001:000223ae       ?LoadTrueColorToolBar@CTrueColorToolBar@@QAEHHIII@Z 004233ae f   TrueColorToolBar.obj
 0001:00022423       ?SetTrueColorToolBar@CTrueColorToolBar@@AAEHIIH@Z 00423423 f   TrueColorToolBar.obj
 0001:000225e0       ?AddDropDownButton@CTrueColorToolBar@@QAEXPAVCWnd@@II@Z 004235e0 f   TrueColorToolBar.obj
 0001:0002265b       ?OnToolbarDropDown@CTrueColorToolBar@@IAEXPAUtagNMTOOLBARA@@PAJ@Z 0042365b f   TrueColorToolBar.obj
 0001:00022820       ??_GCTrueColorToolBar@@UAEPAXI@Z 00423820 f i TrueColorToolBar.obj
 0001:00022820       ??_ECTrueColorToolBar@@UAEPAXI@Z 00423820 f i TrueColorToolBar.obj
 0001:00022850       ?GetBitmap@CBitmap@@QAEHPAUtagBITMAP@@@Z 00423850 f i TrueColorToolBar.obj
 0001:00022870       ?GetToolBarCtrl@CToolBar@@QBEAAVCToolBarCtrl@@XZ 00423870 f i TrueColorToolBar.obj
 0001:00022880       ?Add@CImageList@@QAEHPAVCBitmap@@K@Z 00423880 f i TrueColorToolBar.obj
 0001:000228b0       ??0?$CArray@UstDropDownInfo@CTrueColorToolBar@@AAU12@@@QAE@XZ 004238b0 f i TrueColorToolBar.obj
 0001:00022900       ?GetAt@?$CArray@UstDropDownInfo@CTrueColorToolBar@@AAU12@@@QBE?AUstDropDownInfo@CTrueColorToolBar@@H@Z 00423900 f i TrueColorToolBar.obj
 0001:00022940       ?Add@?$CArray@UstDropDownInfo@CTrueColorToolBar@@AAU12@@@QAEHAAUstDropDownInfo@CTrueColorToolBar@@@Z 00423940 f i TrueColorToolBar.obj
 0001:00022970       ??1?$CArray@UstDropDownInfo@CTrueColorToolBar@@AAU12@@@UAE@XZ 00423970 f i TrueColorToolBar.obj
 0001:000229f0       ?Serialize@?$CArray@UstDropDownInfo@CTrueColorToolBar@@AAU12@@@UAEXAAVCArchive@@@Z 004239f0 f i TrueColorToolBar.obj
 0001:00022a60       ??_E?$CArray@UstDropDownInfo@CTrueColorToolBar@@AAU12@@@UAEPAXI@Z 00423a60 f i TrueColorToolBar.obj
 0001:00022a60       ??_G?$CArray@UstDropDownInfo@CTrueColorToolBar@@AAU12@@@UAEPAXI@Z 00423a60 f i TrueColorToolBar.obj
 0001:00022a90       ?SetSize@?$CArray@UstDropDownInfo@CTrueColorToolBar@@AAU12@@@QAEXHH@Z 00423a90 f i TrueColorToolBar.obj
 0001:00022cc0       ?SetAtGrow@?$CArray@UstDropDownInfo@CTrueColorToolBar@@AAU12@@@QAEXHAAUstDropDownInfo@CTrueColorToolBar@@@Z 00423cc0 f i TrueColorToolBar.obj
 0001:00022d10       ?DestructElements@@YGXPAUstDropDownInfo@CTrueColorToolBar@@H@Z 00423d10 f i TrueColorToolBar.obj
 0001:00022d40       ?SerializeElements@@YGXAAVCArchive@@PAUstDropDownInfo@CTrueColorToolBar@@H@Z 00423d40 f i TrueColorToolBar.obj
 0001:00022d80       ?ConstructElements@@YGXPAUstDropDownInfo@CTrueColorToolBar@@H@Z 00423d80 f i TrueColorToolBar.obj
 0001:00022dd0       ??0CWebCamDlg@@QAE@PAVCWnd@@PAVCIOCPServer@@PAUClientContext@@@Z 00423dd0 f   WebCamDlg.obj
 0001:00022f41       ?DoDataExchange@CWebCamDlg@@MAEXPAVCDataExchange@@@Z 00423f41 f   WebCamDlg.obj
 0001:00022f5a       ?GetMessageMap@CWebCamDlg@@MBEPBUAFX_MSGMAP@@XZ 00423f5a f   WebCamDlg.obj
 0001:00022f6a       ?OnReceive@CWebCamDlg@@QAEXXZ 00423f6a f   WebCamDlg.obj
 0001:0002300e       ?OnReceiveComplete@CWebCamDlg@@QAEXXZ 0042400e f   WebCamDlg.obj
 0001:0002306c       ?SaveSnapshot@CWebCamDlg@@AAE_NXZ 0042406c f   WebCamDlg.obj
 0001:00023329       ?SaveAvi@CWebCamDlg@@AAEXXZ 00424329 f   WebCamDlg.obj
 0001:00023546       ?SendException@CWebCamDlg@@AAEXXZ 00424546 f   WebCamDlg.obj
 0001:00023575       ?PreTranslateMessage@CWebCamDlg@@UAEHPAUtagMSG@@@Z 00424575 f   WebCamDlg.obj
 0001:000235b3       ?OnGetMiniMaxInfo@CWebCamDlg@@AAEJIJ@Z 004245b3 f   WebCamDlg.obj
 0001:000235e6       ?InitMMI@CWebCamDlg@@AAEXXZ 004245e6 f   WebCamDlg.obj
 0001:00023702       ?OnClose@CWebCamDlg@@IAEXXZ 00424702 f   WebCamDlg.obj
 0001:00023808       ?OnInitDialog@CWebCamDlg@@MAEHXZ 00424808 f   WebCamDlg.obj
 0001:00023a09       ?OnSysCommand@CWebCamDlg@@IAEXIJ@Z 00424a09 f   WebCamDlg.obj
 0001:00023b54       ?SendNext@CWebCamDlg@@AAEXXZ 00424b54 f   WebCamDlg.obj
 0001:00023b83       ?DrawDIB@CWebCamDlg@@AAEXXZ 00424b83 f   WebCamDlg.obj
 0001:00023c9e       ?InitCodec@CWebCamDlg@@AAEXK@Z 00424c9e f   WebCamDlg.obj
 0001:00023dae       ?SendResetScreen@CWebCamDlg@@AAE_NHH@Z 00424dae f   WebCamDlg.obj
 0001:00023e1e       ?ResetScreen@CWebCamDlg@@AAEXXZ 00424e1e f   WebCamDlg.obj
 0001:00023fcc       ?OnPaint@CWebCamDlg@@IAEXXZ 00424fcc f   WebCamDlg.obj
 0001:000240f4       ?OnShowWindow@CWebCamDlg@@IAEXHI@Z 004250f4 f   WebCamDlg.obj
 0001:00024111       ?OnSize@CWebCamDlg@@IAEXIHH@Z 00425111 f   WebCamDlg.obj
 0001:00024206       ?PostNcDestroy@CWebCamDlg@@MAEXXZ 00425206 f   WebCamDlg.obj
 0001:00024300       ??_ECWebCamDlg@@UAEPAXI@Z  00425300 f i WebCamDlg.obj
 0001:00024300       ??_GCWebCamDlg@@UAEPAXI@Z  00425300 f i WebCamDlg.obj
 0001:00024330       ??1CWebCamDlg@@UAE@XZ      00425330 f i WebCamDlg.obj
 0001:000243a0       ?DecodeVideoData@CVideoCodec@@QAE_NPAEH0PAHK@Z 004253a0 f i WebCamDlg.obj
 0001:00024410       ?InitCompressor@CVideoCodec@@QAE_NPAUtagBITMAPINFO@@K@Z 00425410 f i WebCamDlg.obj
 0001:00024560       ??0CVideoCodec@@QAE@XZ     00425560 f i WebCamDlg.obj
 0001:00024590       ??_ECVideoCodec@@UAEPAXI@Z 00425590 f i WebCamDlg.obj
 0001:00024590       ??_GCVideoCodec@@UAEPAXI@Z 00425590 f i WebCamDlg.obj
 0001:000245c0       ??1CVideoCodec@@UAE@XZ     004255c0 f i WebCamDlg.obj
 0001:00024620       ??0CZXPortMap@@QAE@XZ      00425620 f   ZXPortMap.obj
 0001:0002464b       ??1CZXPortMap@@UAE@XZ      0042564b f   ZXPortMap.obj
 0001:0002465f       ?DataSend@CZXPortMap@@SAHIPADH@Z 0042565f f   ZXPortMap.obj
 0001:000246cf       ?TransmitData@CZXPortMap@@SGKPAX@Z 004256cf f   ZXPortMap.obj
 0001:00024952       ?ConnectHost@CZXPortMap@@SAIKG@Z 00425952 f   ZXPortMap.obj
 0001:000249bc       ?ConnectHost@CZXPortMap@@SAIPADG@Z 004259bc f   ZXPortMap.obj
 0001:000249d9       ?CreateSocket@CZXPortMap@@SAIKG@Z 004259d9 f   ZXPortMap.obj
 0001:00024a84       ?CreateTmpSocket@CZXPortMap@@SAIPAG@Z 00425a84 f   ZXPortMap.obj
 0001:00024b02       ?InitSocket@CZXPortMap@@QAEHXZ 00425b02 f   ZXPortMap.obj
 0001:00024b2c       ?PortTransfer_1@CZXPortMap@@SGKPAX@Z 00425b2c f   ZXPortMap.obj
 0001:00024b8f       ?PortTransfer_1@CZXPortMap@@QAEHGPADG@Z 00425b8f f   ZXPortMap.obj
 0001:00024d14       ?PortTransfer_2@CZXPortMap@@SGKPAX@Z 00425d14 f   ZXPortMap.obj
 0001:00024dbf       ?PortTransfer_2@CZXPortMap@@QAEHPADG0G@Z 00425dbf f   ZXPortMap.obj
 0001:00024f53       ?PortTransfer_3@CZXPortMap@@SGKPAX@Z 00425f53 f   ZXPortMap.obj
 0001:00025015       ?PortTransfer_3@CZXPortMap@@QAEHGG@Z 00426015 f   ZXPortMap.obj
 0001:000252a3       ?Stop@CZXPortMap@@QAEXXZ   004262a3 f   ZXPortMap.obj
 0001:00025380       ??_ECZXPortMap@@UAEPAXI@Z  00426380 f i ZXPortMap.obj
 0001:00025380       ??_GCZXPortMap@@UAEPAXI@Z  00426380 f i ZXPortMap.obj
 0001:000253b0       ?Push@?$STACK@I@@QAE_NI@Z  004263b0 f i ZXPortMap.obj
 0001:000253f0       ?Pop@?$STACK@I@@QAEIXZ     004263f0 f i ZXPortMap.obj
 0001:00025420       ?Push@?$STACK@G@@QAE_NG@Z  00426420 f i ZXPortMap.obj
 0001:00025470       ?Pop@?$STACK@G@@QAEGXZ     00426470 f i ZXPortMap.obj
 0001:000254a0       ?IsFull@?$STACK@I@@QAE_NXZ 004264a0 f i ZXPortMap.obj
 0001:000254c0       ?IsFull@?$STACK@G@@QAE_NXZ 004264c0 f i ZXPortMap.obj
 0001:000254e0       ??0?$TransferParam@UADDRESS@@I@@QAE@XZ 004264e0 f i ZXPortMap.obj
 0001:00025520       ??1?$TransferParam@UADDRESS@@I@@UAE@XZ 00426520 f i ZXPortMap.obj
 0001:00025540       ??0?$TransferParam@UADDRESS@@G@@QAE@XZ 00426540 f i ZXPortMap.obj
 0001:00025580       ??1?$TransferParam@UADDRESS@@G@@UAE@XZ 00426580 f i ZXPortMap.obj
 0001:000255a0       ??0?$TransferParam@II@@QAE@XZ 004265a0 f i ZXPortMap.obj
 0001:000255e0       ??1?$TransferParam@II@@UAE@XZ 004265e0 f i ZXPortMap.obj
 0001:00025600       ??_G?$TransferParam@UADDRESS@@I@@UAEPAXI@Z 00426600 f i ZXPortMap.obj
 0001:00025600       ??_E?$TransferParam@UADDRESS@@I@@UAEPAXI@Z 00426600 f i ZXPortMap.obj
 0001:00025630       ??_G?$TransferParam@UADDRESS@@G@@UAEPAXI@Z 00426630 f i ZXPortMap.obj
 0001:00025630       ??_E?$TransferParam@UADDRESS@@G@@UAEPAXI@Z 00426630 f i ZXPortMap.obj
 0001:00025660       ??_G?$TransferParam@II@@UAEPAXI@Z 00426660 f i ZXPortMap.obj
 0001:00025660       ??_E?$TransferParam@II@@UAEPAXI@Z 00426660 f i ZXPortMap.obj
 0001:00025690       ??0?$STACK@I@@QAE@XZ       00426690 f i ZXPortMap.obj
 0001:00025690       ??0?$STACK@G@@QAE@XZ       00426690 f i ZXPortMap.obj
 0001:000256b0       ?GetRuntimeClass@CXTPButton@@UBEPAUCRuntimeClass@@XZ 004266b0 f   ToolkitPro1501vc60S:XTPButton.obj
 0001:000256c0       ??0CXTPButton@@QAE@XZ      004266c0 f   ToolkitPro1501vc60S:XTPButton.obj
 0001:000257a0       ?IsPushed@CXTPButton@@UAEHXZ 004267a0 f i ToolkitPro1501vc60S:XTPButton.obj
 0001:000257b0       ?IsHighlighted@CXTPButton@@UAEHXZ 004267b0 f i ToolkitPro1501vc60S:XTPButton.obj
 0001:000257d0       ?GetImageAlignment@CXTPButton@@UBEHXZ 004267d0 f i ToolkitPro1501vc60S:XTPButton.obj
 0001:000257e0       ??_ECXTPButton@@UAEPAXI@Z  004267e0 f i ToolkitPro1501vc60S:XTPButton.obj
 0001:000257e0       ??_GCXTPButton@@UAEPAXI@Z  004267e0 f i ToolkitPro1501vc60S:XTPButton.obj
 0001:00025800       ??1CXTPButton@@UAE@XZ      00426800 f   ToolkitPro1501vc60S:XTPButton.obj
 0001:000258b0       ?GetMessageMap@CXTPButton@@MBEPBUAFX_MSGMAP@@XZ 004268b0 f   ToolkitPro1501vc60S:XTPButton.obj
 0001:000258c0       ?OnMouseMove@CXTPButton@@IAEXIVCPoint@@@Z 004268c0 f   ToolkitPro1501vc60S:XTPButton.obj
 0001:00025970       ?OnMouseLeave@CXTPButton@@IAEXXZ 00426970 f   ToolkitPro1501vc60S:XTPButton.obj
 0001:00025980       ?OnLButtonDown@CXTPButton@@IAEXIVCPoint@@@Z 00426980 f   ToolkitPro1501vc60S:XTPButton.obj
 0001:00025a00       ?OnSetState@CXTPButton@@IAEJIJ@Z 00426a00 f   ToolkitPro1501vc60S:XTPButton.obj
 0001:00025ab0       ?GetButtonRect@CXTPButton@@UAE?AVCRect@@XZ 00426ab0 f   ToolkitPro1501vc60S:XTPButton.obj
 0001:00025b20       ?DoDropDown@CXTPButton@@IAEXXZ 00426b20 f   ToolkitPro1501vc60S:XTPButton.obj
 0001:00025b70       ?OnChar@CXTPButton@@IAEXIII@Z 00426b70 f   ToolkitPro1501vc60S:XTPButton.obj
 0001:00025bc0       ?OnGetDlgCode@CXTPButton@@IAEJIJ@Z 00426bc0 f   ToolkitPro1501vc60S:XTPButton.obj
 0001:00025c30       ?OnKeyDown@CXTPButton@@IAEXIII@Z 00426c30 f   ToolkitPro1501vc60S:XTPButton.obj
 0001:00025c80       ?OnDropDown@CXTPButton@@MAEXXZ 00426c80 f   ToolkitPro1501vc60S:XTPButton.obj
 0001:00025cd0       ?OnKillFocus@CXTPButton@@IAEXPAVCWnd@@@Z 00426cd0 f   ToolkitPro1501vc60S:XTPButton.obj
 0001:00025cd0       ?OnSetFocus@CXTPButton@@IAEXPAVCWnd@@@Z 00426cd0 f   ToolkitPro1501vc60S:XTPButton.obj
 0001:00025d00       ?OnDefaultAndInvalidate@CXTPButton@@IAEJIJ@Z 00426d00 f   ToolkitPro1501vc60S:XTPButton.obj
 0001:00025d40       ?OnInvalidate@CXTPButton@@IAEXXZ 00426d40 f   ToolkitPro1501vc60S:XTPButton.obj
 0001:00025d70       ?OnPrintClient@CXTPButton@@IAEJIJ@Z 00426d70 f   ToolkitPro1501vc60S:XTPButton.obj
 0001:00025db0       ?OnPaint@CXTPButton@@IAEXXZ 00426db0 f   ToolkitPro1501vc60S:XTPButton.obj
 0001:00025e10       ?OnDraw@CXTPButton@@MAEXPAVCDC@@@Z 00426e10 f   ToolkitPro1501vc60S:XTPButton.obj
 0001:00025fb0       ?DrawButton@CXTPButtonTheme@@UAEXPAVCDC@@PAVCXTPButton@@@Z 00426fb0 f   ToolkitPro1501vc60S:XTPButton.obj
 0001:000260d0       ?DoDraw@CXTPButton@@MAEXPAVCDC@@@Z 004270d0 f   ToolkitPro1501vc60S:XTPButton.obj
 0001:00026140       ?OnUpdateUIState@CXTPButton@@IAEJIJ@Z 00427140 f   ToolkitPro1501vc60S:XTPButton.obj
 0001:00026180       ?OnSetText@CXTPButton@@IAEJIJ@Z 00427180 f   ToolkitPro1501vc60S:XTPButton.obj
 0001:00026200       ?GetButtonTextColor@CXTPButton@@UAEKXZ 00427200 f   ToolkitPro1501vc60S:XTPButton.obj
 0001:00026210       ?GetButtonBackColor@CXTPButton@@UAEKXZ 00427210 f   ToolkitPro1501vc60S:XTPButton.obj
 0001:00026220       ?GetButtonStyle@CXTPButton@@QBEEXZ 00427220 f   ToolkitPro1501vc60S:XTPButton.obj
 0001:00026230       ?GetImageSize@CXTPButton@@UAE?AVCSize@@XZ 00427230 f   ToolkitPro1501vc60S:XTPButton.obj
 0001:00026270       ?DrawImage@CXTPButton@@UAEXPAVCDC@@VCRect@@@Z 00427270 f   ToolkitPro1501vc60S:XTPButton.obj
 0001:000263a0       ?OnWndMsg@CXTPButton@@MAEHIIJPAJ@Z 004273a0 f   ToolkitPro1501vc60S:XTPButton.obj
 0001:00026420       ?GetTextAlignment@CXTPButton@@UBEHXZ 00427420 f   ToolkitPro1501vc60S:XTPButton.obj
 0001:00026480       ?GetGlyphSize@CXTPButton@@QAE?AVCSize@@H@Z 00427480 f   ToolkitPro1501vc60S:XTPButton.obj
 0001:00026520       ?InternalTextChanged@CXTPButton@@MAEXXZ 00427520 f   ToolkitPro1501vc60S:XTPButton.obj
 0001:000265a0       ?GetButtonText@CXTPButton@@UAE?AVCString@@XZ 004275a0 f   ToolkitPro1501vc60S:XTPButton.obj
 0001:00026620       ?IsPushButton@CXTPButton@@QBEHXZ 00427620 f   ToolkitPro1501vc60S:XTPButton.obj
 0001:00026660       ?OnSetTheme@CXTPButton@@IAEJIJ@Z 00427660 f   ToolkitPro1501vc60S:XTPButton.obj
 0001:00026680       ?RefreshMetrics@CXTPButton@@MAEXXZ 00427680 f   ToolkitPro1501vc60S:XTPButton.obj
 0001:000266c0       ?SetTheme@CXTPButton@@UAEHW4XTPControlTheme@@@Z 004276c0 f   ToolkitPro1501vc60S:XTPButton.obj
 0001:00026880       ?GetChecked@CXTPButton@@UAEHXZ 00427880 f   ToolkitPro1501vc60S:XTPButton.obj
 0001:000268b0       ?SetIcon@CXTPButton@@UAEHVCSize@@IIH@Z 004278b0 f   ToolkitPro1501vc60S:XTPButton.obj
 0001:000268e0       ?SetIcon@CXTPButton@@UAEHVCSize@@PBD1H@Z 004278e0 f   ToolkitPro1501vc60S:XTPButton.obj
 0001:000269e0       ?SetIcon@CXTPButton@@QAEHVCSize@@PAVCXTPImageManagerIcon@@H@Z 004279e0 f   ToolkitPro1501vc60S:XTPButton.obj
 0001:00026a20       ?SetIcon@CXTPButton@@UAEHVCSize@@ABVCXTPImageManagerIconHandle@@1H@Z 00427a20 f   ToolkitPro1501vc60S:XTPButton.obj
 0001:00026af0       ?SetIcon@CXTPButton@@UAEHVCSize@@PAUHICON__@@1H@Z 00427af0 f   ToolkitPro1501vc60S:XTPButton.obj
 0001:00026b90       ?SetBitmap@CXTPButton@@UAEHVCSize@@IH@Z 00427b90 f   ToolkitPro1501vc60S:XTPButton.obj
 0001:00026d10       ?OnToolHitTest@CXTPButton@@MBEHVCPoint@@PAUtagTOOLINFOA@@@Z 00427d10 f   ToolkitPro1501vc60S:XTPButton.obj
 0001:00026e40       ?GetTooltip@CXTPButton@@QBE?AVCString@@XZ 00427e40 f i ToolkitPro1501vc60S:XTPButton.obj
 0001:00026e70       ??_ECButton@@UAEPAXI@Z     00427e70 f i ToolkitPro1501vc60S:XTPButton.obj
 0001:00026e70       ??_GCButton@@UAEPAXI@Z     00427e70 f i ToolkitPro1501vc60S:XTPButton.obj
 0001:00026e90       ?GetRuntimeClass@CXTPTabManagerItem@@UBEPAUCRuntimeClass@@XZ 00427e90 f   ToolkitPro1501vc60S:XTPTabManager.obj
 0001:00026ea0       ??0CXTPTabManagerItem@@IAE@XZ 00427ea0 f   ToolkitPro1501vc60S:XTPTabManager.obj
 0001:00026f60       ??_ECXTPTabManagerItem@@MAEPAXI@Z 00427f60 f i ToolkitPro1501vc60S:XTPTabManager.obj
 0001:00026f60       ??_GCXTPTabManagerItem@@MAEPAXI@Z 00427f60 f i ToolkitPro1501vc60S:XTPTabManager.obj
 0001:00026f80       ?OnRemoved@CXTPTabManagerItem@@MAEXXZ 00427f80 f   ToolkitPro1501vc60S:XTPTabManager.obj
 0001:00026f90       ??1CXTPTabManagerItem@@MAE@XZ 00427f90 f   ToolkitPro1501vc60S:XTPTabManager.obj
 0001:00027020       ?Reposition@CXTPTabManagerItem@@IAEXXZ 00428020 f   ToolkitPro1501vc60S:XTPTabManager.obj
 0001:00027030       ?SetCaption@CXTPTabManagerItem@@QAEXPBD@Z 00428030 f   ToolkitPro1501vc60S:XTPTabManager.obj
 0001:000270f0       ?SetColor@CXTPTabManagerItem@@QAEXK@Z 004280f0 f   ToolkitPro1501vc60S:XTPTabManager.obj
 0001:00027140       ?GetCaption@CXTPTabManagerItem@@QBE?AVCString@@XZ 00428140 f   ToolkitPro1501vc60S:XTPTabManager.obj
 0001:00027170       ?GetColor@CXTPTabManagerItem@@QAEKXZ 00428170 f   ToolkitPro1501vc60S:XTPTabManager.obj
 0001:00027180       ?Remove@CXTPTabManagerItem@@QAEXXZ 00428180 f   ToolkitPro1501vc60S:XTPTabManager.obj
 0001:000271a0       ?Select@CXTPTabManagerItem@@QAEXXZ 004281a0 f   ToolkitPro1501vc60S:XTPTabManager.obj
 0001:000271b0       ?SetVisible@CXTPTabManagerItem@@UAEXH@Z 004281b0 f   ToolkitPro1501vc60S:XTPTabManager.obj
 0001:000271d0       ?IsEnabled@CXTPTabManagerItem@@QBEHXZ 004281d0 f   ToolkitPro1501vc60S:XTPTabManager.obj
 0001:000271d0       ?GetBaseline@CXTPMarkupRun@@MBEHXZ 004281d0 f   ToolkitPro1501vc60S:XTPTabManager.obj
 0001:000271e0       ?SetEnabled@CXTPTabManagerItem@@QAEXH@Z 004281e0 f   ToolkitPro1501vc60S:XTPTabManager.obj
 0001:00027200       ?DrawRotatedImage@CXTPTabManagerItem@@AAEHPAVCDC@@VCRect@@PAVCXTPImageManagerIcon@@@Z 00428200 f   ToolkitPro1501vc60S:XTPTabManager.obj
 0001:000274b0       ?DrawImage@CXTPTabManagerItem@@QAEXPAVCDC@@VCRect@@PAVCXTPImageManagerIcon@@@Z 004284b0 f   ToolkitPro1501vc60S:XTPTabManager.obj
 0001:000275a0       ?SetRect@CXTPTabManagerItem@@QAEXVCRect@@@Z 004285a0 f   ToolkitPro1501vc60S:XTPTabManager.obj
 0001:00027610       ??0CXTPTabManagerNavigateButtons@@QAE@XZ 00428610 f   ToolkitPro1501vc60S:XTPTabManager.obj
 0001:00027630       ??_ECXTPTabManagerNavigateButtons@@UAEPAXI@Z 00428630 f i ToolkitPro1501vc60S:XTPTabManager.obj
 0001:00027630       ??_GCXTPTabManagerNavigateButtons@@UAEPAXI@Z 00428630 f i ToolkitPro1501vc60S:XTPTabManager.obj
 0001:00027650       ??1CXTPTabManagerNavigateButtons@@UAE@XZ 00428650 f   ToolkitPro1501vc60S:XTPTabManager.obj
 0001:000276c0       ?RemoveAll@CXTPTabManagerNavigateButtons@@QAEXXZ 004286c0 f   ToolkitPro1501vc60S:XTPTabManager.obj
 0001:00027710       ??0CXTPTabManagerNavigateButton@@QAE@PAVCXTPTabManager@@IW4XTPTabNavigateButtonFlags@@@Z 00428710 f   ToolkitPro1501vc60S:XTPTabManager.obj
 0001:00027760       ??_ECXTPTabManagerNavigateButton@@MAEPAXI@Z 00428760 f i ToolkitPro1501vc60S:XTPTabManager.obj
 0001:00027760       ??_GCXTPTabManagerNavigateButton@@MAEPAXI@Z 00428760 f i ToolkitPro1501vc60S:XTPTabManager.obj
 0001:00027780       ??1CXTPTabManagerNavigateButton@@MAE@XZ 00428780 f   ToolkitPro1501vc60S:XTPTabManager.obj
 0001:000277a0       ?GetSize@CXTPTabManagerNavigateButton@@UBE?AVCSize@@XZ 004287a0 f   ToolkitPro1501vc60S:XTPTabManager.obj
 0001:000277d0       ?AdjustWidth@CXTPTabManagerNavigateButton@@UAEXAAH@Z 004287d0 f   ToolkitPro1501vc60S:XTPTabManager.obj
 0001:00027840       ?SetRect@CXTPTabManagerNavigateButton@@QAEXVCRect@@@Z 00428840 f   ToolkitPro1501vc60S:XTPTabManager.obj
 0001:00027870       ?Reposition@CXTPTabManagerNavigateButton@@UAEXAAVCRect@@@Z 00428870 f   ToolkitPro1501vc60S:XTPTabManager.obj
 0001:00027970       ?Draw@CXTPTabManagerNavigateButton@@QAEXPAVCDC@@@Z 00428970 f   ToolkitPro1501vc60S:XTPTabManager.obj
 0001:000279d0       ?PerformClick@CXTPTabManagerNavigateButton@@UAEXPAUHWND__@@VCPoint@@@Z 004289d0 f   ToolkitPro1501vc60S:XTPTabManager.obj
 0001:00027b40       ?OnExecute@CXTPTabManagerNavigateButton@@UAEXH@Z 00428b40 f   ToolkitPro1501vc60S:XTPTabManager.obj
 0001:00027b60       ??0CRowIndexer@CXTPTabManager@@QAE@PAV1@@Z 00428b60 f   ToolkitPro1501vc60S:XTPTabManager.obj
 0001:00027b90       ??1SLIDERTICKS@CXTPScrollBase@@QAE@XZ 00428b90 f   ToolkitPro1501vc60S:XTPTabManager.obj
 0001:00027b90       ??1CRowIndexer@CXTPTabManager@@QAE@XZ 00428b90 f   ToolkitPro1501vc60S:XTPTabManager.obj
 0001:00027bb0       ?CreateIndexer@CRowIndexer@CXTPTabManager@@QAEPAUROW_ITEMS@2@H@Z 00428bb0 f   ToolkitPro1501vc60S:XTPTabManager.obj
 0001:00027c10       ?DrawEntry@CNavigateButtonClose@CXTPTabManager@@MAEXPAVCDC@@VCRect@@@Z 00428c10 f   ToolkitPro1501vc60S:XTPTabManager.obj
 0001:00027ce0       ?DrawEntry@CNavigateButtonArrowRight@CXTPTabManager@@MAEXPAVCDC@@VCRect@@@Z 00428ce0 f   ToolkitPro1501vc60S:XTPTabManager.obj
 0001:00027da0       ?AdjustWidth@CNavigateButtonArrow@CXTPTabManager@@MAEXAAH@Z 00428da0 f   ToolkitPro1501vc60S:XTPTabManager.obj
 0001:00027e00       ?Reposition@CNavigateButtonArrow@CXTPTabManager@@MAEXAAVCRect@@@Z 00428e00 f   ToolkitPro1501vc60S:XTPTabManager.obj
 0001:00027f20       ?Reposition@CNavigateButtonArrowRight@CXTPTabManager@@MAEXAAVCRect@@@Z 00428f20 f   ToolkitPro1501vc60S:XTPTabManager.obj
 0001:00028020       ?OnExecute@CNavigateButtonArrowRight@CXTPTabManager@@MAEXH@Z 00429020 f   ToolkitPro1501vc60S:XTPTabManager.obj
 0001:00028040       ?OnScrollHeader@CXTPTabManager@@UAEXH@Z 00429040 f   ToolkitPro1501vc60S:XTPTabManager.obj
 0001:00028070       ?DrawEntry@CNavigateButtonArrowLeft@CXTPTabManager@@MAEXPAVCDC@@VCRect@@@Z 00429070 f   ToolkitPro1501vc60S:XTPTabManager.obj
 0001:00028130       ?Reposition@CNavigateButtonArrowLeft@CXTPTabManager@@MAEXAAVCRect@@@Z 00429130 f   ToolkitPro1501vc60S:XTPTabManager.obj
 0001:000281a0       ?OnExecute@CNavigateButtonArrowLeft@CXTPTabManager@@MAEXH@Z 004291a0 f   ToolkitPro1501vc60S:XTPTabManager.obj
 0001:000281c0       ??0CXTPTabManager@@QAE@XZ  004291c0 f   ToolkitPro1501vc60S:XTPTabManager.obj
 0001:000283b0       ?OnPropertyChanged@CXTPTabManagerAtom@@UAEXXZ 004293b0 f i ToolkitPro1501vc60S:XTPTabManager.obj
 0001:000283c0       ??1CXTPTabManagerAtom@@MAE@XZ 004293c0 f i ToolkitPro1501vc60S:XTPTabManager.obj
 0001:000283d0       ??_GCXTPTabManagerAtom@@MAEPAXI@Z 004293d0 f i ToolkitPro1501vc60S:XTPTabManager.obj
 0001:000283d0       ??_ECXTPTabManagerAtom@@MAEPAXI@Z 004293d0 f i ToolkitPro1501vc60S:XTPTabManager.obj
 0001:000283f0       ?OnNavigateButtonClick@CXTPTabManager@@MAEXPAVCXTPTabManagerNavigateButton@@@Z 004293f0 f i ToolkitPro1501vc60S:XTPTabManager.obj
 0001:00028410       ?IsAllowReorder@CXTPTabManager@@UBEHXZ 00429410 f i ToolkitPro1501vc60S:XTPTabManager.obj
 0001:00028420       ?SetAllowReorder@CXTPTabManager@@UAEXH@Z 00429420 f i ToolkitPro1501vc60S:XTPTabManager.obj
 0001:00028430       ?DrawParentBackground@CXTPTabManager@@UAEHPAVCDC@@VCRect@@@Z 00429430 f i ToolkitPro1501vc60S:XTPTabManager.obj
 0001:00028440       ?GetMarkupContext@CXTPTabManager@@UBEPAVCXTPMarkupContext@@XZ 00429440 f i ToolkitPro1501vc60S:XTPTabManager.obj
 0001:00028450       ?GetText@CXTPControlComboBoxPopupBar@@UBEXHAAVCString@@@Z 00429450 f i ToolkitPro1501vc60S:XTPTabManager.obj
 0001:00028450       ?OnSwitchItem@CXTPTabManager@@MAEXPAVCXTPTabManagerItem@@0@Z 00429450 f i ToolkitPro1501vc60S:XTPTabManager.obj
 0001:00028450       ?OnLButtonUp@CXTPControl@@MAEXVCPoint@@@Z 00429450 f i ToolkitPro1501vc60S:XTPTabManager.obj
 0001:00028450       ?OnMouseMove@CXTPControl@@MAEXVCPoint@@@Z 00429450 f i ToolkitPro1501vc60S:XTPTabManager.obj
 0001:00028450       ?DrawSingleButton@CAppearanceSet@CXTPTabPaintManager@@UAEXPAVCDC@@PAVCXTPTabManagerItem@@@Z 00429450 f i ToolkitPro1501vc60S:XTPTabManager.obj
 0001:00028460       ?OnClick@CXTPControl@@UAEXHVCPoint@@@Z 00429460 f i ToolkitPro1501vc60S:XTPTabManager.obj
 0001:00028460       ?OnPopupRButtonUp@CXTPCommandBar@@UAEXPAV1@VCPoint@@@Z 00429460 f i ToolkitPro1501vc60S:XTPTabManager.obj
 0001:00028460       ?OnItemHandleChanged@CXTPTabManager@@MAEXPAVCXTPTabManagerItem@@PAUHWND__@@1@Z 00429460 f i ToolkitPro1501vc60S:XTPTabManager.obj
 0001:00028460       ?OnItemOrderChanged@CXTPTabManager@@MAEXPAVCXTPTabManagerItem@@HH@Z 00429460 f i ToolkitPro1501vc60S:XTPTabManager.obj
 0001:00028470       ??1CNavigateButtonClose@CXTPTabManager@@UAE@XZ 00429470 f i ToolkitPro1501vc60S:XTPTabManager.obj
 0001:00028470       ??1CNavigateButtonArrowLeft@CXTPTabManager@@UAE@XZ 00429470 f i ToolkitPro1501vc60S:XTPTabManager.obj
 0001:00028470       ??1CNavigateButtonTabClose@CXTPTabManager@@UAE@XZ 00429470 f i ToolkitPro1501vc60S:XTPTabManager.obj
 0001:00028470       ??1CNavigateButtonArrowRight@CXTPTabManager@@UAE@XZ 00429470 f i ToolkitPro1501vc60S:XTPTabManager.obj
 0001:00028480       ??_ECXTPTabManager@@UAEPAXI@Z 00429480 f i ToolkitPro1501vc60S:XTPTabManager.obj
 0001:00028480       ??_GCXTPTabManager@@UAEPAXI@Z 00429480 f i ToolkitPro1501vc60S:XTPTabManager.obj
 0001:000284a0       ??1CXTPTabManager@@UAE@XZ  004294a0 f   ToolkitPro1501vc60S:XTPTabManager.obj
 0001:00028580       ?SetActive@CXTPTabManager@@QAEXH@Z 00429580 f   ToolkitPro1501vc60S:XTPTabManager.obj
 0001:000285a0       ?IsNavigateButtonVisible@CXTPTabManager@@MAEHPAVCXTPTabManagerNavigateButton@@@Z 004295a0 f   ToolkitPro1501vc60S:XTPTabManager.obj
 0001:000285e0       ?IsNavigateButtonAutomaticVisible@CXTPTabManager@@MAEHPAVCXTPTabManagerNavigateButton@@@Z 004295e0 f   ToolkitPro1501vc60S:XTPTabManager.obj
 0001:00028620       ?FindNavigateButton@CXTPTabManager@@QBEPAVCXTPTabManagerNavigateButton@@I@Z 00429620 f   ToolkitPro1501vc60S:XTPTabManager.obj
 0001:00028660       ?SetHeaderOffset@CXTPTabManager@@QAEXH@Z 00429660 f   ToolkitPro1501vc60S:XTPTabManager.obj
 0001:00028680       ?GetItemsLength@CXTPTabManager@@UBEHXZ 00429680 f   ToolkitPro1501vc60S:XTPTabManager.obj
 0001:000286e0       ?DeleteAllItems@CXTPTabManager@@QAEXXZ 004296e0 f   ToolkitPro1501vc60S:XTPTabManager.obj
 0001:00028740       ?DeleteItem@CXTPTabManager@@QAEHH@Z 00429740 f   ToolkitPro1501vc60S:XTPTabManager.obj
 0001:000287d0       ?AddItem@CXTPTabManager@@IAEPAVCXTPTabManagerItem@@HPAV2@@Z 004297d0 f   ToolkitPro1501vc60S:XTPTabManager.obj
 0001:000289a0       ??_GCNavigateButtonArrowRight@CXTPTabManager@@UAEPAXI@Z 004299a0 f i ToolkitPro1501vc60S:XTPTabManager.obj
 0001:000289a0       ??_ECNavigateButtonClose@CXTPTabManager@@UAEPAXI@Z 004299a0 f i ToolkitPro1501vc60S:XTPTabManager.obj
 0001:000289a0       ??_GCNavigateButtonArrowLeft@CXTPTabManager@@UAEPAXI@Z 004299a0 f i ToolkitPro1501vc60S:XTPTabManager.obj
 0001:000289a0       ??_ECNavigateButtonArrowRight@CXTPTabManager@@UAEPAXI@Z 004299a0 f i ToolkitPro1501vc60S:XTPTabManager.obj
 0001:000289a0       ??_ECNavigateButtonTabClose@CXTPTabManager@@UAEPAXI@Z 004299a0 f i ToolkitPro1501vc60S:XTPTabManager.obj
 0001:000289a0       ??_GCNavigateButtonTabClose@CXTPTabManager@@UAEPAXI@Z 004299a0 f i ToolkitPro1501vc60S:XTPTabManager.obj
 0001:000289a0       ??_GCNavigateButtonClose@CXTPTabManager@@UAEPAXI@Z 004299a0 f i ToolkitPro1501vc60S:XTPTabManager.obj
 0001:000289a0       ??_ECNavigateButtonArrowLeft@CXTPTabManager@@UAEPAXI@Z 004299a0 f i ToolkitPro1501vc60S:XTPTabManager.obj
 0001:000289c0       ?OnItemsChanged@CXTPTabManager@@UAEXXZ 004299c0 f   ToolkitPro1501vc60S:XTPTabManager.obj
 0001:000289f0       ?GetItemCaption@CXTPTabManager@@UBE?AVCString@@PBVCXTPTabManagerItem@@@Z 004299f0 f   ToolkitPro1501vc60S:XTPTabManager.obj
 0001:00028a20       ?GetItemIcon@CXTPTabManager@@UBEPAUHICON__@@PBVCXTPTabManagerItem@@@Z 00429a20 f   ToolkitPro1501vc60S:XTPTabManager.obj
 0001:00028a30       ?GetItemColor@CXTPTabManager@@UBEKPBVCXTPTabManagerItem@@@Z 00429a30 f   ToolkitPro1501vc60S:XTPTabManager.obj
 0001:00028a60       ?SetCurSel@CXTPTabManager@@QAEXH@Z 00429a60 f   ToolkitPro1501vc60S:XTPTabManager.obj
 0001:00028ab0       ?GetCurSel@CXTPTabManager@@QBEHXZ 00429ab0 f   ToolkitPro1501vc60S:XTPTabManager.obj
 0001:00028ac0       ?SetSelectedItem@CXTPTabManager@@UAEXPAVCXTPTabManagerItem@@@Z 00429ac0 f   ToolkitPro1501vc60S:XTPTabManager.obj
 0001:00028af0       ?EnsureVisible@CXTPTabManager@@QAEXPAVCXTPTabManagerItem@@@Z 00429af0 f   ToolkitPro1501vc60S:XTPTabManager.obj
 0001:00028b10       ?HitTest@CXTPTabManager@@QBEPAVCXTPTabManagerItem@@VCPoint@@@Z 00429b10 f   ToolkitPro1501vc60S:XTPTabManager.obj
 0001:00028be0       ?GetPosition@CXTPTabManager@@UBE?AW4XTPTabPosition@@XZ 00429be0 f   ToolkitPro1501vc60S:XTPTabManager.obj
 0001:00028bf0       ?GetLayout@CXTPTabManager@@QBE?AW4XTPTabLayoutStyle@@XZ 00429bf0 f   ToolkitPro1501vc60S:XTPTabManager.obj
 0001:00028c00       ?TrackClick@CXTPTabManager@@IAEXPAUHWND__@@VCPoint@@PAVCXTPTabManagerItem@@@Z 00429c00 f   ToolkitPro1501vc60S:XTPTabManager.obj
 0001:00028dc0       ?ReOrder@CXTPTabManager@@MAEXPAUHWND__@@VCPoint@@PAVCXTPTabManagerItem@@@Z 00429dc0 f   ToolkitPro1501vc60S:XTPTabManager.obj
 0001:00029030       ?OnItemClick@CXTPTabManager@@MAEXPAVCXTPTabManagerItem@@@Z 0042a030 f   ToolkitPro1501vc60S:XTPTabManager.obj
 0001:00029040       ?SetFocusedItem@CXTPTabManager@@UAEXPAVCXTPTabManagerItem@@@Z 0042a040 f   ToolkitPro1501vc60S:XTPTabManager.obj
 0001:00029070       ?FindNextFocusable@CXTPTabManager@@QBEPAVCXTPTabManagerItem@@HH@Z 0042a070 f   ToolkitPro1501vc60S:XTPTabManager.obj
 0001:000290c0       ?PerformKeyDown@CXTPTabManager@@UAEHPAUHWND__@@I@Z 0042a0c0 f   ToolkitPro1501vc60S:XTPTabManager.obj
 0001:00029200       ?HitTestNavigateButton@CXTPTabManager@@QBEPAVCXTPTabManagerNavigateButton@@VCPoint@@HPAH@Z 0042a200 f   ToolkitPro1501vc60S:XTPTabManager.obj
 0001:000292d0       ?PerformClick@CXTPTabManager@@QAEHPAUHWND__@@VCPoint@@H@Z 0042a2d0 f   ToolkitPro1501vc60S:XTPTabManager.obj
 0001:000293a0       ?PerformMouseMove@CXTPTabManager@@QAEXPAUHWND__@@VCPoint@@@Z 0042a3a0 f   ToolkitPro1501vc60S:XTPTabManager.obj
 0001:000295a0       ?GetItemTooltip@CXTPTabManager@@UBE?AVCString@@PBVCXTPTabManagerItem@@@Z 0042a5a0 f   ToolkitPro1501vc60S:XTPTabManager.obj
 0001:000295d0       ?PerformToolHitTest@CXTPTabManager@@UBEHPAUHWND__@@VCPoint@@PAUtagTOOLINFOA@@@Z 0042a5d0 f   ToolkitPro1501vc60S:XTPTabManager.obj
 0001:000297b0       ?GetItemMetrics@CXTPTabManager@@UBEXPAVCSize@@00@Z 0042a7b0 f   ToolkitPro1501vc60S:XTPTabManager.obj
 0001:00029800       ?IsDrawStaticFrame@CXTPTabManager@@UBEHXZ 0042a800 f   ToolkitPro1501vc60S:XTPTabManager.obj
 0001:00029810       ?SetColor@CXTPTabManager@@QAEPAVCColorSet@CXTPTabPaintManager@@W4XTPTabColorStyle@@@Z 0042a810 f   ToolkitPro1501vc60S:XTPTabManager.obj
 0001:00029840       ??1?$CArray@PAVCXTPTabManagerNavigateButton@@PAV1@@@UAE@XZ 0042a840 f i ToolkitPro1501vc60S:XTPTabManager.obj
 0001:00029890       ??1?$CArray@PAVCXTPTabManagerItem@@PAV1@@@UAE@XZ 0042a890 f i ToolkitPro1501vc60S:XTPTabManager.obj
 0001:000298e0       ??1?$CArray@VCRect@@AAV1@@@UAE@XZ 0042a8e0 f i ToolkitPro1501vc60S:XTPTabManager.obj
 0001:00029930       ?Serialize@?$CArray@VCRect@@AAV1@@@UAEXAAVCArchive@@@Z 0042a930 f i ToolkitPro1501vc60S:XTPTabManager.obj
 0001:00029ab0       ??_E?$CArray@PAVCXTPTabManagerNavigateButton@@PAV1@@@UAEPAXI@Z 0042aab0 f i ToolkitPro1501vc60S:XTPTabManager.obj
 0001:00029ab0       ??_G?$CArray@PAVCXTPTabManagerNavigateButton@@PAV1@@@UAEPAXI@Z 0042aab0 f i ToolkitPro1501vc60S:XTPTabManager.obj
 0001:00029ad0       ??_E?$CArray@PAVCXTPTabManagerItem@@PAV1@@@UAEPAXI@Z 0042aad0 f i ToolkitPro1501vc60S:XTPTabManager.obj
 0001:00029ad0       ??_G?$CArray@PAVCXTPTabManagerItem@@PAV1@@@UAEPAXI@Z 0042aad0 f i ToolkitPro1501vc60S:XTPTabManager.obj
 0001:00029af0       ??_G?$CArray@VCRect@@AAV1@@@UAEPAXI@Z 0042aaf0 f i ToolkitPro1501vc60S:XTPTabManager.obj
 0001:00029af0       ??_E?$CArray@VCRect@@AAV1@@@UAEPAXI@Z 0042aaf0 f i ToolkitPro1501vc60S:XTPTabManager.obj
 0001:00029b10       ?SetAtGrow@?$CArray@VCRect@@AAV1@@@QAEXHAAVCRect@@@Z 0042ab10 f i ToolkitPro1501vc60S:XTPTabManager.obj
 0001:00029c70       ?ConstructElements@@YGXPAVCRect@@H@Z 0042ac70 f i ToolkitPro1501vc60S:XTPTabManager.obj
 0001:00029c90       ?OnCustomDraw@CXTPListViewBase@@IAEXPAUtagNMHDR@@PAJ@Z 0042ac90 f i ToolkitPro1501vc60S:XTPListCtrlView.obj
 0001:00029cb0       ?OnSettingChange@CXTPListViewBase@@IAEXIPBD@Z 0042acb0 f i ToolkitPro1501vc60S:XTPListCtrlView.obj
 0001:00029ce0       ?OnDestroy@CXTPListViewBase@@IAEXXZ 0042ace0 f i ToolkitPro1501vc60S:XTPListCtrlView.obj
 0001:00029d00       ?OnEraseBkgnd@CXTPListViewBase@@IAEHPAVCDC@@@Z 0042ad00 f i ToolkitPro1501vc60S:XTPListCtrlView.obj
 0001:00029d10       ?OnPaint@CXTPListViewBase@@IAEXXZ 0042ad10 f i ToolkitPro1501vc60S:XTPListCtrlView.obj
 0001:00029d20       ?OnPrintClient@CXTPListViewBase@@IAEJIJ@Z 0042ad20 f i ToolkitPro1501vc60S:XTPListCtrlView.obj
 0001:00029d40       ?OnCreate@CXTPListViewBase@@IAEHPAUtagCREATESTRUCTA@@@Z 0042ad40 f i ToolkitPro1501vc60S:XTPListCtrlView.obj
 0001:00029d70       ?OnCustomDraw@CXTPListCtrlBase@@IAEXPAUtagNMHDR@@PAJ@Z 0042ad70 f i ToolkitPro1501vc60S:XTPListCtrlView.obj
 0001:00029d90       ?OnSettingChange@CXTPListCtrlBase@@IAEXIPBD@Z 0042ad90 f i ToolkitPro1501vc60S:XTPListCtrlView.obj
 0001:00029dc0       ?OnDestroy@CXTPListCtrlBase@@IAEXXZ 0042adc0 f i ToolkitPro1501vc60S:XTPListCtrlView.obj
 0001:00029de0       ?OnEraseBkgnd@CXTPListCtrlBase@@IAEHPAVCDC@@@Z 0042ade0 f i ToolkitPro1501vc60S:XTPListCtrlView.obj
 0001:00029df0       ?OnPaint@CXTPListCtrlBase@@IAEXXZ 0042adf0 f i ToolkitPro1501vc60S:XTPListCtrlView.obj
 0001:00029e00       ?OnPrintClient@CXTPListCtrlBase@@IAEJIJ@Z 0042ae00 f i ToolkitPro1501vc60S:XTPListCtrlView.obj
 0001:00029e20       ?OnCreate@CXTPListCtrlBase@@IAEHPAUtagCREATESTRUCTA@@@Z 0042ae20 f i ToolkitPro1501vc60S:XTPListCtrlView.obj
 0001:00029e50       ??0CXTPListView@@QAE@XZ    0042ae50 f   ToolkitPro1501vc60S:XTPListCtrlView.obj
 0001:00029ed0       ??1CXTPListViewBase@@UAE@XZ 0042aed0 f i ToolkitPro1501vc60S:XTPListCtrlView.obj
 0001:00029f30       ??_ECXTPListView@@UAEPAXI@Z 0042af30 f i ToolkitPro1501vc60S:XTPListCtrlView.obj
 0001:00029f30       ??_GCXTPListView@@UAEPAXI@Z 0042af30 f i ToolkitPro1501vc60S:XTPListCtrlView.obj
 0001:00029f50       ??1CXTPListView@@UAE@XZ    0042af50 f   ToolkitPro1501vc60S:XTPListCtrlView.obj
 0001:00029fc0       ?CreateObject@CXTPListView@@SGPAVCObject@@XZ 0042afc0 f   ToolkitPro1501vc60S:XTPListCtrlView.obj
 0001:0002a020       ?GetRuntimeClass@CXTPListView@@UBEPAUCRuntimeClass@@XZ 0042b020 f   ToolkitPro1501vc60S:XTPListCtrlView.obj
 0001:0002a030       ?GetMessageMap@CXTPListView@@MBEPBUAFX_MSGMAP@@XZ 0042b030 f   ToolkitPro1501vc60S:XTPListCtrlView.obj
 0001:0002a040       ??0CXTPListCtrl@@QAE@XZ    0042b040 f   ToolkitPro1501vc60S:XTPListCtrlView.obj
 0001:0002a0c0       ?GetExtendedStyle@CXTPListCtrlBase@@UAEKXZ 0042b0c0 f i ToolkitPro1501vc60S:XTPListCtrlView.obj
 0001:0002a0e0       ?SetExtendedStyle@CXTPListCtrlBase@@UAEXK@Z 0042b0e0 f i ToolkitPro1501vc60S:XTPListCtrlView.obj
 0001:0002a110       ?OnNotify@CXTPListCtrlBase@@MAEHIJPAJ@Z 0042b110 f i ToolkitPro1501vc60S:XTPListCtrlView.obj
 0001:0002a130       ?Init@CXTPListCtrlBase@@MAE_NXZ 0042b130 f i ToolkitPro1501vc60S:XTPListCtrlView.obj
 0001:0002a140       ?PreSubclassWindow@CXTPListCtrlBase@@MAEXXZ 0042b140 f i ToolkitPro1501vc60S:XTPListCtrlView.obj
 0001:0002a160       ?PreCreateWindow@CXTPListCtrlBase@@MAEHAAUtagCREATESTRUCTA@@@Z 0042b160 f i ToolkitPro1501vc60S:XTPListCtrlView.obj
 0001:0002a190       ??1CXTPListCtrlBase@@UAE@XZ 0042b190 f i ToolkitPro1501vc60S:XTPListCtrlView.obj
 0001:0002a1e0       ??_ECXTPListCtrl@@UAEPAXI@Z 0042b1e0 f i ToolkitPro1501vc60S:XTPListCtrlView.obj
 0001:0002a1e0       ??_GCXTPListCtrl@@UAEPAXI@Z 0042b1e0 f i ToolkitPro1501vc60S:XTPListCtrlView.obj
 0001:0002a200       ??1CXTPListCtrl@@UAE@XZ    0042b200 f   ToolkitPro1501vc60S:XTPListCtrlView.obj
 0001:0002a260       ?GetRuntimeClass@CXTPListCtrl@@UBEPAUCRuntimeClass@@XZ 0042b260 f   ToolkitPro1501vc60S:XTPListCtrlView.obj
 0001:0002a270       ?GetMessageMap@CXTPListCtrl@@MBEPBUAFX_MSGMAP@@XZ 0042b270 f   ToolkitPro1501vc60S:XTPListCtrlView.obj
 0001:0002a280       ?OnNotify@CXTPListViewBase@@OEI@AEHIJPAJ@Z 0042b280 f i ToolkitPro1501vc60S:XTPListCtrlView.obj
 0001:0002a290       ?OnNotify@CXTPListCtrlBase@@ODM@AEHIJPAJ@Z 0042b290 f i ToolkitPro1501vc60S:XTPListCtrlView.obj
 0001:0002a2a0       ??_ECXTPListView@@WEI@AEPAXI@Z 0042b2a0 f i ToolkitPro1501vc60S:XTPListCtrlView.obj
 0001:0002a2b0       ??_ECXTPListCtrl@@WDM@AEPAXI@Z 0042b2b0 f i ToolkitPro1501vc60S:XTPListCtrlView.obj
 0001:0002a2c0       ??_ECListView@@UAEPAXI@Z   0042b2c0 f i ToolkitPro1501vc60S:XTPListCtrlView.obj
 0001:0002a2c0       ??_GCListView@@UAEPAXI@Z   0042b2c0 f i ToolkitPro1501vc60S:XTPListCtrlView.obj
 0001:0002a2e0       ??1CListView@@UAE@XZ       0042b2e0 f i ToolkitPro1501vc60S:XTPListCtrlView.obj
 0001:0002a330       ??0CXTPListBase@@QAE@XZ    0042b330 f   ToolkitPro1501vc60S:XTPListBase.obj
 0001:0002a3f0       ??_ECXTPListBase@@UAEPAXI@Z 0042b3f0 f i ToolkitPro1501vc60S:XTPListBase.obj
 0001:0002a3f0       ??_GCXTPListBase@@UAEPAXI@Z 0042b3f0 f i ToolkitPro1501vc60S:XTPListBase.obj
 0001:0002a410       ??1CXTPListBase@@UAE@XZ    0042b410 f   ToolkitPro1501vc60S:XTPListBase.obj
 0001:0002a4c0       ?RefreshMetrics@CXTPListBase@@IAEXXZ 0042b4c0 f   ToolkitPro1501vc60S:XTPListBase.obj
 0001:0002a510       ?Lookup@CXTPListBase@@UAEPAUROWCOLOR@1@H@Z 0042b510 f   ToolkitPro1501vc60S:XTPListBase.obj
 0001:0002a540       ?ImplAttach@CXTPListBase@@IAEXPAVCListCtrl@@@Z 0042b540 f   ToolkitPro1501vc60S:XTPListBase.obj
 0001:0002a550       ?MoveRow@CXTPListBase@@UAE_NHH@Z 0042b550 f   ToolkitPro1501vc60S:XTPListBase.obj
 0001:0002a5a0       ?CopyRow@CXTPListBase@@UAEHHH@Z 0042b5a0 f   ToolkitPro1501vc60S:XTPListBase.obj
 0001:0002a6e0       ?GetColumnCount@CXTPListBase@@UAEHXZ 0042b6e0 f   ToolkitPro1501vc60S:XTPListBase.obj
 0001:0002a730       ?ModifyExtendedStyle@CXTPListBase@@UAEHKK@Z 0042b730 f   ToolkitPro1501vc60S:XTPListBase.obj
 0001:0002a790       ?OnCustomDraw@CXTPListBase@@IAEXPAUtagNMHDR@@PAJ@Z 0042b790 f   ToolkitPro1501vc60S:XTPListBase.obj
 0001:0002a950       ?SetSortImage@CXTPListBase@@UAEHHH@Z 0042b950 f   ToolkitPro1501vc60S:XTPListBase.obj
 0001:0002a9c0       ?OnNotify@CXTPListBase@@MAEHIJPAJ@Z 0042b9c0 f   ToolkitPro1501vc60S:XTPListBase.obj
 0001:0002aac0       ?SortList@CXTPListBase@@UAE_NH_N@Z 0042bac0 f   ToolkitPro1501vc60S:XTPListBase.obj
 0001:0002aad0       ?AddColumn@CXTPListBase@@UAEHPBDHH@Z 0042bad0 f   ToolkitPro1501vc60S:XTPListBase.obj
 0001:0002ab80       ?BuildColumns@CXTPListBase@@UAE_NHPAH0@Z 0042bb80 f   ToolkitPro1501vc60S:XTPListBase.obj
 0001:0002ac30       ?BuildColumns@CXTPListBase@@UAE_NHPAHPAVCString@@@Z 0042bc30 f   ToolkitPro1501vc60S:XTPListBase.obj
 0001:0002ac90       ?HitTestEx@CXTPListBase@@UBEHAAVCPoint@@PAH@Z 0042bc90 f   ToolkitPro1501vc60S:XTPListBase.obj
 0001:0002ae50       ?SubclassHeader@CXTPListBase@@UAE_N_N@Z 0042be50 f   ToolkitPro1501vc60S:XTPListBase.obj
 0001:0002aed0       ?AutoSaveColumns@CXTPListBase@@UAEXPBD00@Z 0042bed0 f   ToolkitPro1501vc60S:XTPListBase.obj
 0001:0002af30       ?SaveColumnWidths@CXTPListBase@@UAEXXZ 0042bf30 f   ToolkitPro1501vc60S:XTPListBase.obj
 0001:0002b080       ?LoadColumnWidths@CXTPListBase@@UAEXXZ 0042c080 f   ToolkitPro1501vc60S:XTPListBase.obj
 0001:0002b120       ?SetStoredWidth@CXTPListBase@@UAEXH@Z 0042c120 f   ToolkitPro1501vc60S:XTPListBase.obj
 0001:0002b150       ?GetStoredWidth@CXTPListBase@@UAEHH@Z 0042c150 f   ToolkitPro1501vc60S:XTPListBase.obj
 0001:0002b250       ?OnDestroy@CXTPListBase@@IAEXXZ 0042c250 f   ToolkitPro1501vc60S:XTPListBase.obj
 0001:0002b260       ?AutoSizeColumn@CXTPListBase@@UAEXH@Z 0042c260 f   ToolkitPro1501vc60S:XTPListBase.obj
 0001:0002b4c0       ?OnPrintClient@CXTPListBase@@IAEJIJ@Z 0042c4c0 f   ToolkitPro1501vc60S:XTPListBase.obj
 0001:0002b500       ?OnPaint@CXTPListBase@@IAEXXZ 0042c500 f   ToolkitPro1501vc60S:XTPListBase.obj
 0001:0002b7d0       ?Init@CXTPListBase@@MAE_NXZ 0042c7d0 f   ToolkitPro1501vc60S:XTPListBase.obj
 0001:0002b840       ?OnSettingChange@CXTPListBase@@IAEXIPBD@Z 0042c840 f   ToolkitPro1501vc60S:XTPListBase.obj
 0001:0002b850       ?_xtGetHeaderCtrl@CXTPListBase@@QBEPAVCHeaderCtrl@@XZ 0042c850 f   ToolkitPro1501vc60S:XTPListBase.obj
 0001:0002b870       ?XTPGetHeaderCtrl@CXTPListBase@@QBEPAVCXTPHeaderCtrl@@XZ 0042c870 f   ToolkitPro1501vc60S:XTPListBase.obj
 0001:0002b890       ??1?$CList@UROWCOLOR@CXTPListBase@@AAU12@@@UAE@XZ 0042c890 f i ToolkitPro1501vc60S:XTPListBase.obj
 0001:0002b8f0       ?Serialize@?$CList@UROWCOLOR@CXTPListBase@@AAU12@@@UAEXAAVCArchive@@@Z 0042c8f0 f i ToolkitPro1501vc60S:XTPListBase.obj
 0001:0002ba30       ??_G?$CList@UROWCOLOR@CXTPListBase@@AAU12@@@UAEPAXI@Z 0042ca30 f i ToolkitPro1501vc60S:XTPListBase.obj
 0001:0002ba30       ??_E?$CList@UROWCOLOR@CXTPListBase@@AAU12@@@UAEPAXI@Z 0042ca30 f i ToolkitPro1501vc60S:XTPListBase.obj
 0001:0002ba50       ??0CXTPHeaderCtrl@@QAE@XZ  0042ca50 f   ToolkitPro1501vc60S:XTPHeaderCtrl.obj
 0001:0002bb10       ??_ECXTPHeaderCtrl@@UAEPAXI@Z 0042cb10 f i ToolkitPro1501vc60S:XTPHeaderCtrl.obj
 0001:0002bb10       ??_GCXTPHeaderCtrl@@UAEPAXI@Z 0042cb10 f i ToolkitPro1501vc60S:XTPHeaderCtrl.obj
 0001:0002bb30       ??1CXTPHeaderCtrl@@UAE@XZ  0042cb30 f   ToolkitPro1501vc60S:XTPHeaderCtrl.obj
 0001:0002bbf0       ?GetMessageMap@CXTPHeaderCtrl@@MBEPBUAFX_MSGMAP@@XZ 0042cbf0 f   ToolkitPro1501vc60S:XTPHeaderCtrl.obj
 0001:0002bc00       ?GetRuntimeClass@CXTPHeaderCtrl@@UBEPAUCRuntimeClass@@XZ 0042cc00 f   ToolkitPro1501vc60S:XTPHeaderCtrl.obj
 0001:0002bc10       ?OnThemeChanged@CXTPHeaderCtrl@@UAEXXZ 0042cc10 f   ToolkitPro1501vc60S:XTPHeaderCtrl.obj
 0001:0002bc20       ?IsThemeValid@CXTPHeaderCtrl@@QBEHXZ 0042cc20 f   ToolkitPro1501vc60S:XTPHeaderCtrl.obj
 0001:0002bc30       ?ApplyFieldWidths@CXTPHeaderCtrl@@MAEXH@Z 0042cc30 f   ToolkitPro1501vc60S:XTPHeaderCtrl.obj
 0001:0002bcc0       ?FitFieldWidths@CXTPHeaderCtrl@@MAEXH@Z 0042ccc0 f   ToolkitPro1501vc60S:XTPHeaderCtrl.obj
 0001:0002bd30       ?OnWindowPosChanging@CXTPHeaderCtrl@@IAEXPAUtagWINDOWPOS@@@Z 0042cd30 f   ToolkitPro1501vc60S:XTPHeaderCtrl.obj
 0001:0002bdc0       ?OnSetCursor@CXTPHeaderCtrl@@IAEHPAVCWnd@@II@Z 0042cdc0 f   ToolkitPro1501vc60S:XTPHeaderCtrl.obj
 0001:0002bef0       ?OnItemchanging@CXTPHeaderCtrl@@IAEHPAUtagNMHDR@@PAJ@Z 0042cef0 f   ToolkitPro1501vc60S:XTPHeaderCtrl.obj
 0001:0002bf50       ?IsColFrozen@CXTPHeaderCtrl@@QAE_NH@Z 0042cf50 f   ToolkitPro1501vc60S:XTPHeaderCtrl.obj
 0001:0002bf70       ?DetermineRTL@CXTPHeaderCtrl@@MAE_NXZ 0042cf70 f   ToolkitPro1501vc60S:XTPHeaderCtrl.obj
 0001:0002bff0       ?GetFrozenColWidth@CXTPHeaderCtrl@@MAEHXZ 0042cff0 f   ToolkitPro1501vc60S:XTPHeaderCtrl.obj
 0001:0002c050       ?OnPaint@CXTPHeaderCtrl@@IAEXXZ 0042d050 f   ToolkitPro1501vc60S:XTPHeaderCtrl.obj
 0001:0002c110       ?OnPrintClient@CXTPHeaderCtrl@@IAEJIJ@Z 0042d110 f   ToolkitPro1501vc60S:XTPHeaderCtrl.obj
 0001:0002c160       ?OnLButtonDown@CXTPHeaderCtrl@@IAEXIVCPoint@@@Z 0042d160 f   ToolkitPro1501vc60S:XTPHeaderCtrl.obj
 0001:0002c170       ?OnLButtonUp@CXTPHeaderCtrl@@IAEXIVCPoint@@@Z 0042d170 f   ToolkitPro1501vc60S:XTPHeaderCtrl.obj
 0001:0002c180       ?OnMouseMove@CXTPHeaderCtrl@@IAEXIVCPoint@@@Z 0042d180 f   ToolkitPro1501vc60S:XTPHeaderCtrl.obj
 0001:0002c1c0       ?HitTest@CXTPHeaderCtrl@@QBEHVCPoint@@PAI@Z 0042d1c0 f   ToolkitPro1501vc60S:XTPHeaderCtrl.obj
 0001:0002c200       ?ItemPressed@CXTPHeaderCtrl@@UAEHH@Z 0042d200 f   ToolkitPro1501vc60S:XTPHeaderCtrl.obj
 0001:0002c270       ?OnTimer@CXTPHeaderCtrl@@IAEXI@Z 0042d270 f   ToolkitPro1501vc60S:XTPHeaderCtrl.obj
 0001:0002c330       ?OnLayout@CXTPHeaderCtrl@@IAEJIJ@Z 0042d330 f   ToolkitPro1501vc60S:XTPHeaderCtrl.obj
 0001:0002c370       ?SetSortImage@CXTPHeaderCtrl@@QAEHHH@Z 0042d370 f   ToolkitPro1501vc60S:XTPHeaderCtrl.obj
 0001:0002c3a0       ?GetSortedCol@CXTPHeaderCtrl@@QAEHPAH@Z 0042d3a0 f   ToolkitPro1501vc60S:XTPHeaderCtrl.obj
 0001:0002c3c0       ?RecalcLayout@CXTPHeaderCtrl@@QAEHXZ 0042d3c0 f   ToolkitPro1501vc60S:XTPHeaderCtrl.obj
 0001:0002c4d0       ?OnDestroy@CXTPHeaderCtrl@@IAEXXZ 0042d4d0 f   ToolkitPro1501vc60S:XTPHeaderCtrl.obj
 0001:0002c500       ?InitializeHeader@CXTPHeaderCtrl@@UAEXH@Z 0042d500 f   ToolkitPro1501vc60S:XTPHeaderCtrl.obj
 0001:0002c550       ?OnWndMsg@CXTPHeaderCtrl@@MAEHIIJPAJ@Z 0042d550 f   ToolkitPro1501vc60S:XTPHeaderCtrl.obj
 0001:0002c590       ?OnRButtonDown@CXTPHeaderCtrl@@IAEXIVCPoint@@@Z 0042d590 f   ToolkitPro1501vc60S:XTPHeaderCtrl.obj
 0001:0002c850       ?SetMenuID@CXTPHeaderCtrl@@UAEXIH@Z 0042d850 f   ToolkitPro1501vc60S:XTPHeaderCtrl.obj
 0001:0002c870       ?SendNotify@CXTPHeaderCtrl@@IAEXH@Z 0042d870 f   ToolkitPro1501vc60S:XTPHeaderCtrl.obj
 0001:0002c970       ?OnSortAsc@CXTPHeaderCtrl@@IAEXXZ 0042d970 f   ToolkitPro1501vc60S:XTPHeaderCtrl.obj
 0001:0002c9b0       ?OnSortDsc@CXTPHeaderCtrl@@IAEXXZ 0042d9b0 f   ToolkitPro1501vc60S:XTPHeaderCtrl.obj
 0001:0002c9f0       ?SetAlingment@CXTPHeaderCtrl@@UAEHH@Z 0042d9f0 f   ToolkitPro1501vc60S:XTPHeaderCtrl.obj
 0001:0002cab0       ?OnAlignLeft@CXTPHeaderCtrl@@IAEXXZ 0042dab0 f   ToolkitPro1501vc60S:XTPHeaderCtrl.obj
 0001:0002cac0       ?OnAlignCenter@CXTPHeaderCtrl@@IAEXXZ 0042dac0 f   ToolkitPro1501vc60S:XTPHeaderCtrl.obj
 0001:0002cad0       ?OnAlignRight@CXTPHeaderCtrl@@IAEXXZ 0042dad0 f   ToolkitPro1501vc60S:XTPHeaderCtrl.obj
 0001:0002cae0       ?HasSortArrow@CXTPHeaderCtrl@@QAEHXZ 0042dae0 f   ToolkitPro1501vc60S:XTPHeaderCtrl.obj
 0001:0002cb10       ?ShowSortArrow@CXTPHeaderCtrl@@UAEXH@Z 0042db10 f   ToolkitPro1501vc60S:XTPHeaderCtrl.obj
 0001:0002cb50       ?SetFontBold@CXTPHeaderCtrl@@UAEXH@Z 0042db50 f   ToolkitPro1501vc60S:XTPHeaderCtrl.obj
 0001:0002cba0       ?RefreshMetrics@CXTPHeaderCtrl@@MAEXXZ 0042dba0 f   ToolkitPro1501vc60S:XTPHeaderCtrl.obj
 0001:0002cbe0       ?SetTheme@CXTPHeaderCtrl@@QAEHPAVCXTPHeaderCtrlTheme@@@Z 0042dbe0 f   ToolkitPro1501vc60S:XTPHeaderCtrl.obj
 0001:0002cc30       ?SetTheme@CXTPHeaderCtrl@@QAEHW4XTPControlTheme@@@Z 0042dc30 f   ToolkitPro1501vc60S:XTPHeaderCtrl.obj
 0001:0002cd40       ?OnSetTheme@CXTPHeaderCtrl@@IAEJIJ@Z 0042dd40 f   ToolkitPro1501vc60S:XTPHeaderCtrl.obj
 0001:0002cd50       ??1?$CList@HAAH@@UAE@XZ    0042dd50 f i ToolkitPro1501vc60S:XTPHeaderCtrl.obj
 0001:0002cdb0       ?Serialize@?$CList@HAAH@@UAEXAAVCArchive@@@Z 0042ddb0 f i ToolkitPro1501vc60S:XTPHeaderCtrl.obj
 0001:0002cec0       ??_E?$CList@HAAH@@UAEPAXI@Z 0042dec0 f i ToolkitPro1501vc60S:XTPHeaderCtrl.obj
 0001:0002cec0       ??_G?$CList@HAAH@@UAEPAXI@Z 0042dec0 f i ToolkitPro1501vc60S:XTPHeaderCtrl.obj
 0001:0002cee0       ??_GCHeaderCtrl@@UAEPAXI@Z 0042dee0 f i ToolkitPro1501vc60S:XTPHeaderCtrl.obj
 0001:0002cee0       ??_ECHeaderCtrl@@UAEPAXI@Z 0042dee0 f i ToolkitPro1501vc60S:XTPHeaderCtrl.obj
 0001:0002cf00       ??0CXTPHeaderCtrlTheme@@QAE@XZ 0042df00 f   ToolkitPro1501vc60S:XTPHeaderCtrlTheme.obj
 0001:0002cf80       ??_GCXTPHeaderCtrlTheme@@UAEPAXI@Z 0042df80 f i ToolkitPro1501vc60S:XTPHeaderCtrlTheme.obj
 0001:0002cf80       ??_ECXTPHeaderCtrlTheme@@UAEPAXI@Z 0042df80 f i ToolkitPro1501vc60S:XTPHeaderCtrlTheme.obj
 0001:0002cfa0       ??1CXTPHeaderCtrlTheme@@UAE@XZ 0042dfa0 f   ToolkitPro1501vc60S:XTPHeaderCtrlTheme.obj
 0001:0002d000       ?RefreshMetrics@CXTPHeaderCtrlTheme@@UAEXPAVCXTPHeaderCtrl@@@Z 0042e000 f   ToolkitPro1501vc60S:XTPHeaderCtrlTheme.obj
 0001:0002d070       ?OnDrawBackground@CXTPHeaderCtrlTheme@@MAEXPAUtagDRAWITEMSTRUCT@@@Z 0042e070 f   ToolkitPro1501vc60S:XTPHeaderCtrlTheme.obj
 0001:0002d100       ?OnDrawItemBackground@CXTPHeaderCtrlTheme@@MAEXPAUtagDRAWITEMSTRUCT@@@Z 0042e100 f   ToolkitPro1501vc60S:XTPHeaderCtrlTheme.obj
 0001:0002d2a0       ?OnDrawBackgroundWinThemed@CXTPHeaderCtrlTheme@@MAEHPAUtagDRAWITEMSTRUCT@@@Z 0042e2a0 f   ToolkitPro1501vc60S:XTPHeaderCtrlTheme.obj
 0001:0002d2e0       ?OnDrawItemBackgroundWinThemed@CXTPHeaderCtrlTheme@@MAEHPAUtagDRAWITEMSTRUCT@@@Z 0042e2e0 f   ToolkitPro1501vc60S:XTPHeaderCtrlTheme.obj
 0001:0002d320       ?DrawSortArrow@CXTPHeaderCtrlTheme@@MAEXPAVCDC@@PAUtagPOINT@@H@Z 0042e320 f   ToolkitPro1501vc60S:XTPHeaderCtrlTheme.obj
 0001:0002d430       ?OnDrawItemSortArrow@CXTPHeaderCtrlTheme@@MAEXPAUtagDRAWITEMSTRUCT@@H@Z 0042e430 f   ToolkitPro1501vc60S:XTPHeaderCtrlTheme.obj
 0001:0002d4f0       ?OnDrawItemText@CXTPHeaderCtrlTheme@@MAEXPAUtagDRAWITEMSTRUCT@@PAVCXTPHeaderCtrl@@@Z 0042e4f0 f   ToolkitPro1501vc60S:XTPHeaderCtrlTheme.obj
 0001:0002d7d0       ?DrawHeader@CXTPHeaderCtrlTheme@@UAEXPAVCDC@@PAVCXTPHeaderCtrl@@@Z 0042e7d0 f   ToolkitPro1501vc60S:XTPHeaderCtrlTheme.obj
 0001:0002dac0       ?UseWinXPThemes@CXTPHeaderCtrlTheme@@UAEHPAVCXTPHeaderCtrl@@@Z 0042eac0 f   ToolkitPro1501vc60S:XTPHeaderCtrlTheme.obj
 0001:0002db10       ?SetDrawStyle@CXTPHeaderCtrlTheme@@UAEXKPAVCXTPHeaderCtrl@@@Z 0042eb10 f   ToolkitPro1501vc60S:XTPHeaderCtrlTheme.obj
 0001:0002db40       ?Layout@CXTPHeaderCtrlTheme@@UAEHPAU_HD_LAYOUT@@PAVCXTPHeaderCtrl@@@Z 0042eb40 f   ToolkitPro1501vc60S:XTPHeaderCtrlTheme.obj
 0001:0002db60       ?SetBitmap@CXTPHeaderCtrlTheme@@UAEHHIHKPAVCXTPHeaderCtrl@@@Z 0042eb60 f   ToolkitPro1501vc60S:XTPHeaderCtrlTheme.obj
 0001:0002dcd0       ?OnDrawItemBitmap@CXTPHeaderCtrlTheme@@MAEXPAUtagDRAWITEMSTRUCT@@AAVCRect@@PAVCXTPHeaderCtrl@@@Z 0042ecd0 f   ToolkitPro1501vc60S:XTPHeaderCtrlTheme.obj
 0001:0002def0       ?CleanUp@CXTPHeaderCtrlTheme@@UAEXPAVCXTPHeaderCtrl@@@Z 0042eef0 f   ToolkitPro1501vc60S:XTPHeaderCtrlTheme.obj
 0001:0002df70       ??0CXTPHeaderCtrlThemeOfficeXP@@QAE@XZ 0042ef70 f   ToolkitPro1501vc60S:XTPHeaderCtrlTheme.obj
 0001:0002df90       ??_GCXTPHeaderCtrlThemeOfficeXP@@UAEPAXI@Z 0042ef90 f i ToolkitPro1501vc60S:XTPHeaderCtrlTheme.obj
 0001:0002df90       ??_ECXTPHeaderCtrlThemeOfficeXP@@UAEPAXI@Z 0042ef90 f i ToolkitPro1501vc60S:XTPHeaderCtrlTheme.obj
 0001:0002dfb0       ??1CXTPHeaderCtrlThemeOfficeXP@@UAE@XZ 0042efb0 f   ToolkitPro1501vc60S:XTPHeaderCtrlTheme.obj
 0001:0002dfc0       ?OnDrawBackground@CXTPHeaderCtrlThemeOfficeXP@@MAEXPAUtagDRAWITEMSTRUCT@@@Z 0042efc0 f   ToolkitPro1501vc60S:XTPHeaderCtrlTheme.obj
 0001:0002dfc0       ?OnDrawBackground@CXTPHeaderCtrlThemeExplorer@@MAEXPAUtagDRAWITEMSTRUCT@@@Z 0042efc0 f   ToolkitPro1501vc60S:XTPHeaderCtrlTheme.obj
 0001:0002e020       ?OnDrawItemBackground@CXTPHeaderCtrlThemeOfficeXP@@MAEXPAUtagDRAWITEMSTRUCT@@@Z 0042f020 f   ToolkitPro1501vc60S:XTPHeaderCtrlTheme.obj
 0001:0002e180       ??0CXTPHeaderCtrlThemeOffice2003@@QAE@XZ 0042f180 f   ToolkitPro1501vc60S:XTPHeaderCtrlTheme.obj
 0001:0002e1b0       ??_ECXTPHeaderCtrlThemeOffice2003@@UAEPAXI@Z 0042f1b0 f i ToolkitPro1501vc60S:XTPHeaderCtrlTheme.obj
 0001:0002e1b0       ??_GCXTPHeaderCtrlThemeOffice2003@@UAEPAXI@Z 0042f1b0 f i ToolkitPro1501vc60S:XTPHeaderCtrlTheme.obj
 0001:0002e1d0       ??1CXTPHeaderCtrlThemeOffice2003@@UAE@XZ 0042f1d0 f   ToolkitPro1501vc60S:XTPHeaderCtrlTheme.obj
 0001:0002e1e0       ?OnDrawBackground@CXTPHeaderCtrlThemeOffice2003@@MAEXPAUtagDRAWITEMSTRUCT@@@Z 0042f1e0 f   ToolkitPro1501vc60S:XTPHeaderCtrlTheme.obj
 0001:0002e510       ?OnDrawItemBackground@CXTPHeaderCtrlThemeOffice2003@@MAEXPAUtagDRAWITEMSTRUCT@@@Z 0042f510 f   ToolkitPro1501vc60S:XTPHeaderCtrlTheme.obj
 0001:0002e670       ?Layout@CXTPHeaderCtrlThemeOffice2003@@UAEHPAU_HD_LAYOUT@@PAVCXTPHeaderCtrl@@@Z 0042f670 f   ToolkitPro1501vc60S:XTPHeaderCtrlTheme.obj
 0001:0002e750       ??0CXTPHeaderCtrlThemeExplorer@@QAE@XZ 0042f750 f   ToolkitPro1501vc60S:XTPHeaderCtrlTheme.obj
 0001:0002e790       ??_GCXTPHeaderCtrlThemeExplorer@@UAEPAXI@Z 0042f790 f i ToolkitPro1501vc60S:XTPHeaderCtrlTheme.obj
 0001:0002e790       ??_ECXTPHeaderCtrlThemeExplorer@@UAEPAXI@Z 0042f790 f i ToolkitPro1501vc60S:XTPHeaderCtrlTheme.obj
 0001:0002e7b0       ??1CXTPHeaderCtrlThemeExplorer@@UAE@XZ 0042f7b0 f   ToolkitPro1501vc60S:XTPHeaderCtrlTheme.obj
 0001:0002e7c0       ?OnDrawItemBackgroundWinThemed@CXTPHeaderCtrlThemeExplorer@@MAEHPAUtagDRAWITEMSTRUCT@@@Z 0042f7c0 f   ToolkitPro1501vc60S:XTPHeaderCtrlTheme.obj
 0001:0002e7d0       ?Layout@CXTPHeaderCtrlThemeExplorer@@UAEHPAU_HD_LAYOUT@@PAVCXTPHeaderCtrl@@@Z 0042f7d0 f   ToolkitPro1501vc60S:XTPHeaderCtrlTheme.obj
 0001:0002e8b0       ?DrawSortArrow@CXTPHeaderCtrlThemeExplorer@@MAEXPAVCDC@@PAUtagPOINT@@H@Z 0042f8b0 f   ToolkitPro1501vc60S:XTPHeaderCtrlTheme.obj
 0001:0002e950       ??0CSize@@QAE@K@Z          0042f950 f i ToolkitPro1501vc60S:XTPHeaderCtrlTheme.obj
 0001:0002e950       ??0CPoint@@QAE@K@Z         0042f950 f i ToolkitPro1501vc60S:XTPHeaderCtrlTheme.obj
 0001:0002e970       ?Compare@CXTPSortClass@@SGHJJJ@Z 0042f970 f   ToolkitPro1501vc60S:XTPSortClass.obj
 0001:0002ea10       ??0CXTPSortClass@@QAE@PAVCListCtrl@@HP6GHJJJ@Z@Z 0042fa10 f   ToolkitPro1501vc60S:XTPSortClass.obj
 0001:0002eb30       ??_GCXTPSortClass@@UAEPAXI@Z 0042fb30 f i ToolkitPro1501vc60S:XTPSortClass.obj
 0001:0002eb30       ??_ECXTPSortClass@@UAEPAXI@Z 0042fb30 f i ToolkitPro1501vc60S:XTPSortClass.obj
 0001:0002eb50       ??1CXTPSortClass@@UAE@XZ   0042fb50 f   ToolkitPro1501vc60S:XTPSortClass.obj
 0001:0002ebf0       ?Sort@CXTPSortClass@@UAEX_NH@Z 0042fbf0 f   ToolkitPro1501vc60S:XTPSortClass.obj
 0001:0002ec40       ?SortInt@CXTPSortClass@@SAHPBD0F@Z 0042fc40 f   ToolkitPro1501vc60S:XTPSortClass.obj
 0001:0002ed40       ?SortString@CXTPSortClass@@SAHPBD0F@Z 0042fd40 f   ToolkitPro1501vc60S:XTPSortClass.obj
 0001:0002ed60       ?SortDateTime@CXTPSortClass@@SAHPBD0F@Z 0042fd60 f   ToolkitPro1501vc60S:XTPSortClass.obj
 0001:0002ee10       ?SortDecimal@CXTPSortClass@@SAHPBD0F@Z 0042fe10 f   ToolkitPro1501vc60S:XTPSortClass.obj
 0001:0002ee80       ?RemoveNonNumeric@CXTPSortClass@@SAHAAVCString@@@Z 0042fe80 f   ToolkitPro1501vc60S:XTPSortClass.obj
 0001:0002ef20       ??0CXTPSystemVersion@@AAE@XZ 0042ff20 f   ToolkitPro1501vc60S:XTPSystemHelpers.obj
 0001:0002ef50       ?XTPSystemVersion@@YGPAVCXTPSystemVersion@@XZ 0042ff50 f   ToolkitPro1501vc60S:XTPSystemHelpers.obj
 0001:0002efa0       ?IsWin95@CXTPSystemVersion@@QBE_NXZ 0042ffa0 f   ToolkitPro1501vc60S:XTPSystemHelpers.obj
 0001:0002efc0       ?IsWin98@CXTPSystemVersion@@QBE_NXZ 0042ffc0 f   ToolkitPro1501vc60S:XTPSystemHelpers.obj
 0001:0002efe0       ?IsWin9x@CXTPSystemVersion@@QBE_NXZ 0042ffe0 f   ToolkitPro1501vc60S:XTPSystemHelpers.obj
 0001:0002eff0       ?IsWinNT4@CXTPSystemVersion@@QBE_NXZ 0042fff0 f   ToolkitPro1501vc60S:XTPSystemHelpers.obj
 0001:0002f010       ?IsWin2K@CXTPSystemVersion@@QBE_NXZ 00430010 f   ToolkitPro1501vc60S:XTPSystemHelpers.obj
 0001:0002f030       ?IsWinXP@CXTPSystemVersion@@QBE_NXZ 00430030 f   ToolkitPro1501vc60S:XTPSystemHelpers.obj
 0001:0002f050       ?IsWin2KOrGreater@CXTPSystemVersion@@QBE_NXZ 00430050 f   ToolkitPro1501vc60S:XTPSystemHelpers.obj
 0001:0002f070       ?IsWinXPOrGreater@CXTPSystemVersion@@QBE_NXZ 00430070 f   ToolkitPro1501vc60S:XTPSystemHelpers.obj
 0001:0002f090       ?IsWinVistaOrGreater@CXTPSystemVersion@@QBE_NXZ 00430090 f   ToolkitPro1501vc60S:XTPSystemHelpers.obj
 0001:0002f0b0       ?IsWin7OrGreater@CXTPSystemVersion@@QBE_NXZ 004300b0 f   ToolkitPro1501vc60S:XTPSystemHelpers.obj
 0001:0002f0d0       ?GreaterThanEqualTo@CXTPSystemVersion@@ABE_NKK@Z 004300d0 f   ToolkitPro1501vc60S:XTPSystemHelpers.obj
 0001:0002f100       ?EqualTo@CXTPSystemVersion@@ABE_NKK@Z 00430100 f   ToolkitPro1501vc60S:XTPSystemHelpers.obj
 0001:0002f130       ?GetComCtlVersion@CXTPSystemVersion@@QBEKXZ 00430130 f   ToolkitPro1501vc60S:XTPSystemHelpers.obj
 0001:0002f1b0       ?IsClearTypeTextQualitySupported@CXTPSystemVersion@@QBEHXZ 004301b0 f   ToolkitPro1501vc60S:XTPSystemHelpers.obj
 0001:0002f1c0       ?GetMaxCharSize@CXTPSystemVersion@@QBEHXZ 004301c0 f   ToolkitPro1501vc60S:XTPSystemHelpers.obj
 0001:0002f1f0       ?XTPMultiMonitor@@YAPAVCXTPMultiMonitor@@XZ 004301f0 f   ToolkitPro1501vc60S:XTPSystemHelpers.obj
 0001:0002f240       ??1CXTPMultiMonitor@@QAE@XZ 00430240 f i ToolkitPro1501vc60S:XTPSystemHelpers.obj
 0001:0002f250       ??0CXTPMultiMonitor@@AAE@XZ 00430250 f   ToolkitPro1501vc60S:XTPSystemHelpers.obj
 0001:0002f320       ?GetMonitorInfoA@CXTPMultiMonitor@@AAEHPAUXTP_HMONITOR__@1@PAUXTP_MONITORINFO@1@@Z 00430320 f   ToolkitPro1501vc60S:XTPSystemHelpers.obj
 0001:0002f350       ?GetWorkArea@CXTPMultiMonitor@@AAE?AVCRect@@PAUXTP_HMONITOR__@1@@Z 00430350 f   ToolkitPro1501vc60S:XTPSystemHelpers.obj
 0001:0002f3b0       ?GetScreenArea@CXTPMultiMonitor@@AAE?AVCRect@@PAUXTP_HMONITOR__@1@@Z 004303b0 f   ToolkitPro1501vc60S:XTPSystemHelpers.obj
 0001:0002f420       ?GetScreenArea@CXTPMultiMonitor@@QAE?AVCRect@@ABUtagPOINT@@@Z 00430420 f   ToolkitPro1501vc60S:XTPSystemHelpers.obj
 0001:0002f480       ?GetScreenArea@CXTPMultiMonitor@@QAE?AVCRect@@PBUtagRECT@@@Z 00430480 f   ToolkitPro1501vc60S:XTPSystemHelpers.obj
 0001:0002f4d0       ?GetWorkArea@CXTPMultiMonitor@@QAE?AVCRect@@PAUHWND__@@@Z 004304d0 f   ToolkitPro1501vc60S:XTPSystemHelpers.obj
 0001:0002f520       ?GetWorkArea@CXTPMultiMonitor@@QAE?AVCRect@@ABUtagPOINT@@@Z 00430520 f   ToolkitPro1501vc60S:XTPSystemHelpers.obj
 0001:0002f580       ?GetWorkArea@CXTPMultiMonitor@@QAE?AVCRect@@PBUtagRECT@@@Z 00430580 f   ToolkitPro1501vc60S:XTPSystemHelpers.obj
 0001:0002f5d0       ?GetWorkArea@CXTPMultiMonitor@@QAE?AVCRect@@PBVCWnd@@@Z 004305d0 f   ToolkitPro1501vc60S:XTPSystemHelpers.obj
 0001:0002f610       ?GetWorkArea@CXTPMultiMonitor@@QAE?AVCRect@@XZ 00430610 f   ToolkitPro1501vc60S:XTPSystemHelpers.obj
 0001:0002f660       ??0CXTPModuleHandle@@QAE@XZ 00430660 f   ToolkitPro1501vc60S:XTPSystemHelpers.obj
 0001:0002f690       ??_GCXTPModuleHandle@@UAEPAXI@Z 00430690 f i ToolkitPro1501vc60S:XTPSystemHelpers.obj
 0001:0002f690       ??_ECXTPModuleHandle@@UAEPAXI@Z 00430690 f i ToolkitPro1501vc60S:XTPSystemHelpers.obj
 0001:0002f6b0       ??0CXTPModuleHandle@@QAE@PBD@Z 004306b0 f   ToolkitPro1501vc60S:XTPSystemHelpers.obj
 0001:0002f720       ??1CXTPModuleHandle@@UAE@XZ 00430720 f   ToolkitPro1501vc60S:XTPSystemHelpers.obj
 0001:0002f770       ?Init@CXTPModuleHandle@@QAEHPBD@Z 00430770 f   ToolkitPro1501vc60S:XTPSystemHelpers.obj
 0001:0002f7a0       ?GetModuleHandleA@CXTPModuleHandle@@QAEHPBD@Z 004307a0 f   ToolkitPro1501vc60S:XTPSystemHelpers.obj
 0001:0002f7e0       ?LoadLibraryA@CXTPModuleHandle@@QAEHPBD@Z 004307e0 f   ToolkitPro1501vc60S:XTPSystemHelpers.obj
 0001:0002f820       ?FreeLibrary@CXTPModuleHandle@@QAEHXZ 00430820 f   ToolkitPro1501vc60S:XTPSystemHelpers.obj
 0001:0002f860       ?GetVersionInfo@CXTPModuleHandle@@AAEHXZ 00430860 f   ToolkitPro1501vc60S:XTPSystemHelpers.obj
 0001:0002f890       ?GetVersion@CXTPModuleHandle@@QAEKXZ 00430890 f   ToolkitPro1501vc60S:XTPSystemHelpers.obj
 0001:0002f8c0       ?GetProcAddress@CXTPModuleHandle@@QAEHPAP6GHXZPBDK@Z 004308c0 f   ToolkitPro1501vc60S:XTPSystemHelpers.obj
 0001:0002f930       ??0CXTPLockGuard@@QAE@AAU_RTL_CRITICAL_SECTION@@@Z 00430930 f   ToolkitPro1501vc60S:XTPSystemHelpers.obj
 0001:0002f950       ??1CXTPLockGuard@@QAE@XZ   00430950 f   ToolkitPro1501vc60S:XTPSystemHelpers.obj
 0001:0002f960       ?LockThread@CXTPLockGuard@@QAEXXZ 00430960 f   ToolkitPro1501vc60S:XTPSystemHelpers.obj
 0001:0002f970       ?UnLockThread@CXTPLockGuard@@QAEXXZ 00430970 f   ToolkitPro1501vc60S:XTPSystemHelpers.obj
 0001:0002f980       ??0CXTPAccessible@@QAE@XZ  00430980 f   ToolkitPro1501vc60S:XTPSystemHelpers.obj
 0001:0002f9b0       ??_GCXTPAccessible@@UAEPAXI@Z 004309b0 f i ToolkitPro1501vc60S:XTPSystemHelpers.obj
 0001:0002f9b0       ??_ECXTPAccessible@@UAEPAXI@Z 004309b0 f i ToolkitPro1501vc60S:XTPSystemHelpers.obj
 0001:0002f9d0       ??1CXTPAccessible@@UAE@XZ  004309d0 f   ToolkitPro1501vc60S:XTPSystemHelpers.obj
 0001:0002f9f0       ?AccessibleNotifyWinEvent@CXTPAccessible@@QAEXKPAUHWND__@@JJ@Z 004309f0 f   ToolkitPro1501vc60S:XTPSystemHelpers.obj
 0001:0002fa60       ?AccessibleObjectFromWindow@CXTPAccessible@@IAEJPAUHWND__@@KABU_GUID@@PAPAX@Z 00430a60 f   ToolkitPro1501vc60S:XTPSystemHelpers.obj
 0001:0002faf0       ?LresultFromObject@CXTPAccessible@@IAEJABU_GUID@@IPAUIUnknown@@@Z 00430af0 f   ToolkitPro1501vc60S:XTPSystemHelpers.obj
 0001:0002fb80       ?GetChildIndex@CXTPAccessible@@IAEJPAUtagVARIANT@@@Z 00430b80 f   ToolkitPro1501vc60S:XTPSystemHelpers.obj
 0001:0002fbf0       ?AddRef@XAccessible@CXTPAccessible@@UAGKXZ 00430bf0 f   ToolkitPro1501vc60S:XTPSystemHelpers.obj
 0001:0002fc10       ?Release@XAccessible@CXTPAccessible@@UAGKXZ 00430c10 f   ToolkitPro1501vc60S:XTPSystemHelpers.obj
 0001:0002fc30       ?QueryInterface@XAccessible@CXTPAccessible@@UAGJABU_GUID@@PAPAX@Z 00430c30 f   ToolkitPro1501vc60S:XTPSystemHelpers.obj
 0001:0002fc60       ?GetTypeInfoCount@XAccessible@CXTPAccessible@@UAGJPAI@Z 00430c60 f   ToolkitPro1501vc60S:XTPSystemHelpers.obj
 0001:0002fc60       ?GetExternal@XDocHostUIHandler@CHTMLToolTip@CXTPToolTipContext@@UAGJPAPAUIDispatch@@@Z 00430c60 f   ToolkitPro1501vc60S:XTPSystemHelpers.obj
 0001:0002fc60       ?OnFrameWindowActivate@XDocHostUIHandler@CHTMLToolTip@CXTPToolTipContext@@UAGJH@Z 00430c60 f   ToolkitPro1501vc60S:XTPSystemHelpers.obj
 0001:0002fc60       ?OnDocWindowActivate@XDocHostUIHandler@CHTMLToolTip@CXTPToolTipContext@@UAGJH@Z 00430c60 f   ToolkitPro1501vc60S:XTPSystemHelpers.obj
 0001:0002fc60       ?EnableModeless@XDocHostUIHandler@CHTMLToolTip@CXTPToolTipContext@@UAGJH@Z 00430c60 f   ToolkitPro1501vc60S:XTPSystemHelpers.obj
 0001:0002fc70       ?GetTypeInfo@XAccessible@CXTPAccessible@@UAGJIKPAPAUITypeInfo@@@Z 00430c70 f   ToolkitPro1501vc60S:XTPSystemHelpers.obj
 0001:0002fc70       ?TranslateUrl@XDocHostUIHandler@CHTMLToolTip@CXTPToolTipContext@@UAGJKPAGPAPAG@Z 00430c70 f   ToolkitPro1501vc60S:XTPSystemHelpers.obj
 0001:0002fc70       ?ResizeBorder@XDocHostUIHandler@CHTMLToolTip@CXTPToolTipContext@@UAGJPBUtagRECT@@PAUIOleInPlaceUIWindow@@H@Z 00430c70 f   ToolkitPro1501vc60S:XTPSystemHelpers.obj
 0001:0002fc70       ?AccessibleDoDefaultAction@CXTPAccessible@@UAEJUtagVARIANT@@@Z 00430c70 f   ToolkitPro1501vc60S:XTPSystemHelpers.obj
 0001:0002fc80       ?GetIDsOfNames@XAccessible@CXTPAccessible@@UAGJABU_GUID@@PAPAGIKPAJ@Z 00430c80 f   ToolkitPro1501vc60S:XTPSystemHelpers.obj
 0001:0002fc80       ?GetAccessibleHelpTopic@CXTPAccessible@@UAEJPAPAGUtagVARIANT@@PAJ@Z 00430c80 f   ToolkitPro1501vc60S:XTPSystemHelpers.obj
 0001:0002fc80       ?AccessibleNavigate@CXTPAccessible@@UAEJJUtagVARIANT@@PAU2@@Z 00430c80 f   ToolkitPro1501vc60S:XTPSystemHelpers.obj
 0001:0002fc90       ?get_accParent@XAccessible@CXTPAccessible@@UAGJPAPAUIDispatch@@@Z 00430c90 f   ToolkitPro1501vc60S:XTPSystemHelpers.obj
 0001:0002fcb0       ?get_accChildCount@XAccessible@CXTPAccessible@@UAGJPAJ@Z 00430cb0 f   ToolkitPro1501vc60S:XTPSystemHelpers.obj
 0001:0002fcd0       ?get_accChild@XAccessible@CXTPAccessible@@UAGJUtagVARIANT@@PAPAUIDispatch@@@Z 00430cd0 f   ToolkitPro1501vc60S:XTPSystemHelpers.obj
 0001:0002fd10       ?get_accName@XAccessible@CXTPAccessible@@UAGJUtagVARIANT@@PAPAG@Z 00430d10 f   ToolkitPro1501vc60S:XTPSystemHelpers.obj
 0001:0002fd50       ?get_accValue@XAccessible@CXTPAccessible@@UAGJUtagVARIANT@@PAPAG@Z 00430d50 f   ToolkitPro1501vc60S:XTPSystemHelpers.obj
 0001:0002fd90       ?get_accDescription@XAccessible@CXTPAccessible@@UAGJUtagVARIANT@@PAPAG@Z 00430d90 f   ToolkitPro1501vc60S:XTPSystemHelpers.obj
 0001:0002fdd0       ?get_accRole@XAccessible@CXTPAccessible@@UAGJUtagVARIANT@@PAU3@@Z 00430dd0 f   ToolkitPro1501vc60S:XTPSystemHelpers.obj
 0001:0002fe10       ?get_accState@XAccessible@CXTPAccessible@@UAGJUtagVARIANT@@PAU3@@Z 00430e10 f   ToolkitPro1501vc60S:XTPSystemHelpers.obj
 0001:0002fe50       ?get_accHelp@XAccessible@CXTPAccessible@@UAGJUtagVARIANT@@PAPAG@Z 00430e50 f   ToolkitPro1501vc60S:XTPSystemHelpers.obj
 0001:0002fe90       ?get_accHelpTopic@XAccessible@CXTPAccessible@@UAGJPAPAGUtagVARIANT@@PAJ@Z 00430e90 f   ToolkitPro1501vc60S:XTPSystemHelpers.obj
 0001:0002fed0       ?get_accKeyboardShortcut@XAccessible@CXTPAccessible@@UAGJUtagVARIANT@@PAPAG@Z 00430ed0 f   ToolkitPro1501vc60S:XTPSystemHelpers.obj
 0001:0002ff10       ?get_accFocus@XAccessible@CXTPAccessible@@UAGJPAUtagVARIANT@@@Z 00430f10 f   ToolkitPro1501vc60S:XTPSystemHelpers.obj
 0001:0002ff30       ?get_accSelection@XAccessible@CXTPAccessible@@UAGJPAUtagVARIANT@@@Z 00430f30 f   ToolkitPro1501vc60S:XTPSystemHelpers.obj
 0001:0002ff50       ?get_accDefaultAction@XAccessible@CXTPAccessible@@UAGJUtagVARIANT@@PAPAG@Z 00430f50 f   ToolkitPro1501vc60S:XTPSystemHelpers.obj
 0001:0002ff90       ?accSelect@XAccessible@CXTPAccessible@@UAGJJUtagVARIANT@@@Z 00430f90 f   ToolkitPro1501vc60S:XTPSystemHelpers.obj
 0001:0002ffd0       ?accLocation@XAccessible@CXTPAccessible@@UAGJPAJ000UtagVARIANT@@@Z 00430fd0 f   ToolkitPro1501vc60S:XTPSystemHelpers.obj
 0001:00030020       ?accNavigate@XAccessible@CXTPAccessible@@UAGJJUtagVARIANT@@PAU3@@Z 00431020 f   ToolkitPro1501vc60S:XTPSystemHelpers.obj
 0001:00030060       ?accHitTest@XAccessible@CXTPAccessible@@UAGJJJPAUtagVARIANT@@@Z 00431060 f   ToolkitPro1501vc60S:XTPSystemHelpers.obj
 0001:00030080       ?accDoDefaultAction@XAccessible@CXTPAccessible@@UAGJUtagVARIANT@@@Z 00431080 f   ToolkitPro1501vc60S:XTPSystemHelpers.obj
 0001:000300c0       ?put_accName@XAccessible@CXTPAccessible@@UAGJUtagVARIANT@@PAG@Z 004310c0 f   ToolkitPro1501vc60S:XTPSystemHelpers.obj
 0001:00030100       ?put_accValue@XAccessible@CXTPAccessible@@UAGJUtagVARIANT@@PAG@Z 00431100 f   ToolkitPro1501vc60S:XTPSystemHelpers.obj
 0001:00030140       ?Invoke@XAccessible@CXTPAccessible@@UAGJJABU_GUID@@KGPAUtagDISPPARAMS@@PAUtagVARIANT@@PAUtagEXCEPINFO@@PAI@Z 00431140 f   ToolkitPro1501vc60S:XTPSystemHelpers.obj
 0001:00030150       ?GetAccessibleParent@CXTPAccessible@@UAEJPAPAUIDispatch@@@Z 00431150 f   ToolkitPro1501vc60S:XTPSystemHelpers.obj
 0001:00030150       ?TxGetExtent@XTextHost@CXTPRichRender@@UAEJPAUtagSIZE@@@Z 00431150 f   ToolkitPro1501vc60S:XTPSystemHelpers.obj
 0001:00030150       ?GetAccessibleChildCount@CXTPAccessible@@UAEJPAJ@Z 00431150 f   ToolkitPro1501vc60S:XTPSystemHelpers.obj
 0001:00030160       ?PutAccessibleName@CXTPAccessible@@UAEJUtagVARIANT@@PAG@Z 00431160 f   ToolkitPro1501vc60S:XTPSystemHelpers.obj
 0001:00030160       ?GetAccessibleValue@CXTPAccessible@@UAEJUtagVARIANT@@PAPAG@Z 00431160 f   ToolkitPro1501vc60S:XTPSystemHelpers.obj
 0001:00030160       ?GetAccessibleChild@CXTPAccessible@@UAEJUtagVARIANT@@PAPAUIDispatch@@@Z 00431160 f   ToolkitPro1501vc60S:XTPSystemHelpers.obj
 0001:00030160       ?GetAccessibleKeyboardShortcut@CXTPAccessible@@UAEJUtagVARIANT@@PAPAG@Z 00431160 f   ToolkitPro1501vc60S:XTPSystemHelpers.obj
 0001:00030160       ?GetAccessibleHelp@CXTPAccessible@@UAEJUtagVARIANT@@PAPAG@Z 00431160 f   ToolkitPro1501vc60S:XTPSystemHelpers.obj
 0001:00030160       ?GetAccessibleRole@CXTPAccessible@@UAEJUtagVARIANT@@PAU2@@Z 00431160 f   ToolkitPro1501vc60S:XTPSystemHelpers.obj
 0001:00030160       ?PutAccessibleValue@CXTPAccessible@@UAEJUtagVARIANT@@PAG@Z 00431160 f   ToolkitPro1501vc60S:XTPSystemHelpers.obj
 0001:00030160       ?GetAccessibleDescription@CXTPAccessible@@UAEJUtagVARIANT@@PAPAG@Z 00431160 f   ToolkitPro1501vc60S:XTPSystemHelpers.obj
 0001:00030160       ?GetAccessibleDefaultAction@CXTPAccessible@@UAEJUtagVARIANT@@PAPAG@Z 00431160 f   ToolkitPro1501vc60S:XTPSystemHelpers.obj
 0001:00030160       ?AccessibleSelect@CXTPAccessible@@UAEJJUtagVARIANT@@@Z 00431160 f   ToolkitPro1501vc60S:XTPSystemHelpers.obj
 0001:00030160       ?GetAccessibleName@CXTPAccessible@@UAEJUtagVARIANT@@PAPAG@Z 00431160 f   ToolkitPro1501vc60S:XTPSystemHelpers.obj
 0001:00030160       ?GetAccessibleState@CXTPAccessible@@UAEJUtagVARIANT@@PAU2@@Z 00431160 f   ToolkitPro1501vc60S:XTPSystemHelpers.obj
 0001:00030170       ?AccessibleLocation@CXTPAccessible@@UAEJPAJ000UtagVARIANT@@@Z 00431170 f   ToolkitPro1501vc60S:XTPSystemHelpers.obj
 0001:00030180       ??0CXTPSoundManager@@AAE@XZ 00431180 f   ToolkitPro1501vc60S:XTPSystemHelpers.obj
 0001:000301b0       ?XTPSoundManager@@YAPAVCXTPSoundManager@@XZ 004311b0 f   ToolkitPro1501vc60S:XTPSystemHelpers.obj
 0001:00030200       ??1CXTPSoundManager@@QAE@XZ 00431200 f   ToolkitPro1501vc60S:XTPSystemHelpers.obj
 0001:00030220       ?SoundThreadProc@CXTPSoundManager@@CGKPAX@Z 00431220 f   ToolkitPro1501vc60S:XTPSystemHelpers.obj
 0001:000302a0       ?StartThread@CXTPSoundManager@@AAEXXZ 004312a0 f   ToolkitPro1501vc60S:XTPSystemHelpers.obj
 0001:000302f0       ?StopThread@CXTPSoundManager@@QAEXXZ 004312f0 f   ToolkitPro1501vc60S:XTPSystemHelpers.obj
 0001:00030380       ?PlaySystemSound@CXTPSoundManager@@QAEXW4XTPSoundManagerState@@@Z 00431380 f   ToolkitPro1501vc60S:XTPSystemHelpers.obj
 0001:000303b0       ??0CXTPZipMemFile@@QAE@XZ  004313b0 f   ToolkitPro1501vc60S:XTPSystemHelpers.obj
 0001:000303d0       ??_GCXTPZipMemFile@@UAEPAXI@Z 004313d0 f i ToolkitPro1501vc60S:XTPSystemHelpers.obj
 0001:000303d0       ??_ECXTPZipMemFile@@UAEPAXI@Z 004313d0 f i ToolkitPro1501vc60S:XTPSystemHelpers.obj
 0001:000303f0       ??0CXTPZipMemFile@@QAE@PAEI@Z 004313f0 f   ToolkitPro1501vc60S:XTPSystemHelpers.obj
 0001:00030450       ??1CXTPZipMemFile@@UAE@XZ  00431450 f   ToolkitPro1501vc60S:XTPSystemHelpers.obj
 0001:00030460       ?AttachCompressedBuffer@CXTPZipMemFile@@QAEXPAEIH@Z 00431460 f   ToolkitPro1501vc60S:XTPSystemHelpers.obj
 0001:000304f0       ?OpenCompressedFile@CXTPZipMemFile@@QAEHPBD@Z 004314f0 f   ToolkitPro1501vc60S:XTPSystemHelpers.obj
 0001:000305c0       ?DetachCompressedBuffer@CXTPZipMemFile@@QAEXAAPAEAAK@Z 004315c0 f   ToolkitPro1501vc60S:XTPSystemHelpers.obj
 0001:00030650       ?SetFilePath@CFile@@UAEXPBD@Z 00431650 f i ToolkitPro1501vc60S:XTPSystemHelpers.obj
 0001:00030660       ??0CXTPCommandBarsContextMenus@@QAE@PAVCXTPCommandBars@@@Z 00431660 f   ToolkitPro1501vc60S:XTPCommandBars.obj
 0001:00030690       ??_GCXTPCommandBarsContextMenus@@UAEPAXI@Z 00431690 f i ToolkitPro1501vc60S:XTPCommandBars.obj
 0001:00030690       ??_ECXTPCommandBarsContextMenus@@UAEPAXI@Z 00431690 f i ToolkitPro1501vc60S:XTPCommandBars.obj
 0001:000306b0       ??1CXTPCommandBarsContextMenus@@UAE@XZ 004316b0 f i ToolkitPro1501vc60S:XTPCommandBars.obj
 0001:000306c0       ?Add@CXTPCommandBarsContextMenus@@UAEPAVCXTPCommandBar@@PAV2@@Z 004316c0 f   ToolkitPro1501vc60S:XTPCommandBars.obj
 0001:00030810       ??0CXTPCommandBarsOptions@@QAE@XZ 00431810 f   ToolkitPro1501vc60S:XTPCommandBars.obj
 0001:00030940       ??_ECXTPCommandBarsOptions@@UAEPAXI@Z 00431940 f i ToolkitPro1501vc60S:XTPCommandBars.obj
 0001:00030940       ??_GCXTPCommandBarsOptions@@UAEPAXI@Z 00431940 f i ToolkitPro1501vc60S:XTPCommandBars.obj
 0001:00030960       ??1CXTPCommandBarsOptions@@UAE@XZ 00431960 f i ToolkitPro1501vc60S:XTPCommandBars.obj
 0001:00030a60       ?ShowKeyboardCues@CXTPCommandBarsOptions@@QAEXW4XTPKeyboardCuesShow@@@Z 00431a60 f   ToolkitPro1501vc60S:XTPCommandBars.obj
 0001:00030af0       ?CreateObject@CXTPCommandBars@@SGPAVCObject@@XZ 00431af0 f   ToolkitPro1501vc60S:XTPCommandBars.obj
 0001:00030b50       ?GetRuntimeClass@CXTPCommandBars@@UBEPAUCRuntimeClass@@XZ 00431b50 f   ToolkitPro1501vc60S:XTPCommandBars.obj
 0001:00030b60       ??0CXTPCommandBars@@IAE@XZ 00431b60 f   ToolkitPro1501vc60S:XTPCommandBars.obj
 0001:00030d90       ??_GCXTPCommandBars@@MAEPAXI@Z 00431d90 f i ToolkitPro1501vc60S:XTPCommandBars.obj
 0001:00030d90       ??_ECXTPCommandBars@@MAEPAXI@Z 00431d90 f i ToolkitPro1501vc60S:XTPCommandBars.obj
 0001:00030db0       ??1KEYBOARDTIPS@CXTPCommandBars@@QAE@XZ 00431db0 f i ToolkitPro1501vc60S:XTPCommandBars.obj
 0001:00030e00       ??1CXTPCommandBars@@MAE@XZ 00431e00 f   ToolkitPro1501vc60S:XTPCommandBars.obj
 0001:00030fb0       ?IsToolBarVisible@@YAHPAVCXTPToolBar@@@Z 00431fb0 f   ToolkitPro1501vc60S:XTPCommandBars.obj
 0001:00030fd0       ?CreateAction@CXTPCommandBars@@QAEPAVCXTPControlAction@@H@Z 00431fd0 f   ToolkitPro1501vc60S:XTPCommandBars.obj
 0001:00030ff0       ?FindAction@CXTPCommandBars@@QBEPAVCXTPControlAction@@H@Z 00431ff0 f   ToolkitPro1501vc60S:XTPCommandBars.obj
 0001:00031010       ?GetMenuBar@CXTPCommandBars@@UBEPAVCXTPMenuBar@@XZ 00432010 f   ToolkitPro1501vc60S:XTPCommandBars.obj
 0001:00031030       ?SetMenu@CXTPCommandBars@@QAEPAVCXTPMenuBar@@PBDI@Z 00432030 f   ToolkitPro1501vc60S:XTPCommandBars.obj
 0001:00031260       ?RecalcFrameLayout@CXTPCommandBars@@UAEXH@Z 00432260 f   ToolkitPro1501vc60S:XTPCommandBars.obj
 0001:00031330       ?IdleRecalcLayout@CXTPCommandBars@@IAEXXZ 00432330 f   ToolkitPro1501vc60S:XTPCommandBars.obj
 0001:00031370       ?OnToolBarAdded@CXTPCommandBars@@MAEXPAVCXTPToolBar@@@Z 00432370 f   ToolkitPro1501vc60S:XTPCommandBars.obj
 0001:00031390       ?OnToolBarRemoved@CXTPCommandBars@@MAEXPAVCXTPToolBar@@@Z 00432390 f   ToolkitPro1501vc60S:XTPCommandBars.obj
 0001:000313b0       ?GetFrameReBar@CXTPCommandBars@@QBEPAVCXTPReBar@@XZ 004323b0 f   ToolkitPro1501vc60S:XTPCommandBars.obj
 0001:000313e0       ?AddCustomBar@CXTPCommandBars@@MAEPAVCXTPToolBar@@PBDIH@Z 004323e0 f   ToolkitPro1501vc60S:XTPCommandBars.obj
 0001:000314f0       ?GetShortcutManager@CXTPCommandBars@@QBEPAVCXTPShortcutManager@@XZ 004324f0 f   ToolkitPro1501vc60S:XTPCommandBars.obj
 0001:00031500       ?EnableDocking@CXTPCommandBars@@QAEXXZ 00432500 f   ToolkitPro1501vc60S:XTPCommandBars.obj
 0001:000315c0       ?CanDock@CXTPCommandBars@@QBEPAVCXTPDockBar@@VCPoint@@PAV2@@Z 004325c0 f   ToolkitPro1501vc60S:XTPCommandBars.obj
 0001:00031750       ?DockCommandBar@CXTPCommandBars@@QAEHPAVCXTPToolBar@@PAUtagRECT@@PAVCXTPDockBar@@@Z 00432750 f   ToolkitPro1501vc60S:XTPCommandBars.obj
 0001:000317b0       ?DockCommandBar@CXTPCommandBars@@QAEHPAVCXTPToolBar@@W4XTPBarPosition@@@Z 004327b0 f   ToolkitPro1501vc60S:XTPCommandBars.obj
 0001:000317f0       ?FloatCommandBar@CXTPCommandBars@@IAEHPAVCXTPToolBar@@@Z 004327f0 f   ToolkitPro1501vc60S:XTPCommandBars.obj
 0001:00031840       ?InvalidateCommandBars@CXTPCommandBars@@QAEXXZ 00432840 f   ToolkitPro1501vc60S:XTPCommandBars.obj
 0001:000318a0       ?RedrawCommandBars@CXTPCommandBars@@QAEXXZ 004328a0 f   ToolkitPro1501vc60S:XTPCommandBars.obj
 0001:000319d0       ?IsKeyboardCuesVisible@CXTPCommandBar@@UBEHXZ 004329d0 f   ToolkitPro1501vc60S:XTPCommandBars.obj
 0001:000319f0       ??0CXTPCommandBarKeyboardTip@@QAE@PAVCXTPCommandBars@@PAVCCmdTarget@@PBDVCPoint@@KH@Z 004329f0 f   ToolkitPro1501vc60S:XTPCommandBars.obj
 0001:00031ab0       ??_GCXTPCommandBarKeyboardTip@@UAEPAXI@Z 00432ab0 f i ToolkitPro1501vc60S:XTPCommandBars.obj
 0001:00031ab0       ??_ECXTPCommandBarKeyboardTip@@UAEPAXI@Z 00432ab0 f i ToolkitPro1501vc60S:XTPCommandBars.obj
 0001:00031ad0       ??1CXTPCommandBarKeyboardTip@@UAE@XZ 00432ad0 f i ToolkitPro1501vc60S:XTPCommandBars.obj
 0001:00031b40       ?GetMessageMap@CXTPCommandBarKeyboardTip@@MBEPBUAFX_MSGMAP@@XZ 00432b40 f   ToolkitPro1501vc60S:XTPCommandBars.obj
 0001:00031b50       ?OnNcHitTest@CShadowWnd@CXTPShadowManager@@IAEJVCPoint@@@Z 00432b50 f   ToolkitPro1501vc60S:XTPCommandBars.obj
 0001:00031b50       ?OnNcHitTest@CXTPToolTipContextToolTip@@IAEJVCPoint@@@Z 00432b50 f   ToolkitPro1501vc60S:XTPCommandBars.obj
 0001:00031b50       ?OnNcHitTest@CXTPCommandBarKeyboardTip@@IAEJVCPoint@@@Z 00432b50 f   ToolkitPro1501vc60S:XTPCommandBars.obj
 0001:00031b60       ?OnPaint@CXTPCommandBarKeyboardTip@@IAEXXZ 00432b60 f   ToolkitPro1501vc60S:XTPCommandBars.obj
 0001:00031bd0       ?IsKeyboardTipsVisible@CXTPCommandBar@@QBEHXZ 00432bd0 f   ToolkitPro1501vc60S:XTPCommandBars.obj
 0001:00031bf0       ?CreateKeyboardTips@CXTPCommandBar@@UAEXXZ 00432bf0 f   ToolkitPro1501vc60S:XTPCommandBars.obj
 0001:00032040       ?GetContextCaption@CXTPRibbonTab@@QBE?AVCString@@XZ 00433040 f i ToolkitPro1501vc60S:XTPCommandBars.obj
 0001:00032040       ?GetTitle@CXTPCommandBar@@QBE?AVCString@@XZ 00433040 f i ToolkitPro1501vc60S:XTPCommandBars.obj
 0001:00032070       ?GetKeyboardTip@CXTPControl@@QBE?AVCString@@XZ 00433070 f i ToolkitPro1501vc60S:XTPCommandBars.obj
 0001:00032140       ?GetKeyboardTip@CXTPControlAction@@QBE?AVCString@@XZ 00433140 f i ToolkitPro1501vc60S:XTPCommandBars.obj
 0001:00032160       ?CreateKeyboardTips@CXTPCommandBars@@UAEXPAVCXTPCommandBar@@@Z 00433160 f   ToolkitPro1501vc60S:XTPCommandBars.obj
 0001:00032170       ?ShowKeyboardTips@CXTPCommandBars@@QAEXPAVCXTPCommandBar@@H@Z 00433170 f   ToolkitPro1501vc60S:XTPCommandBars.obj
 0001:00032870       ?HideKeyboardTips@CXTPCommandBars@@QAEXXZ 00433870 f   ToolkitPro1501vc60S:XTPCommandBars.obj
 0001:000328d0       ?ShowKeyboardCues@CXTPCommandBars@@QAEXH@Z 004338d0 f   ToolkitPro1501vc60S:XTPCommandBars.obj
 0001:00032900       ?OnTrackingModeChanged@CXTPCommandBars@@MAEXPAVCXTPCommandBar@@H@Z 00433900 f   ToolkitPro1501vc60S:XTPCommandBars.obj
 0001:000329a0       ?GetMouseManager@CXTPCommandBars@@QBEPAVCXTPMouseManager@@XZ 004339a0 f   ToolkitPro1501vc60S:XTPCommandBars.obj
 0001:000329e0       ?GetKeyboardManager@CXTPCommandBars@@QBEPAVCXTPKeyboardManager@@XZ 004339e0 f   ToolkitPro1501vc60S:XTPCommandBars.obj
 0001:00032a20       ?_GetNextControl@CXTPCommandBars@@IBEPAVCXTPControl@@AAPAVCXTPControls@@H@Z 00433a20 f   ToolkitPro1501vc60S:XTPCommandBars.obj
 0001:00032af0       ?FindAccel@CXTPCommandBars@@IBEPAVCXTPControl@@PAVCXTPCommandBar@@IAAH@Z 00433af0 f   ToolkitPro1501vc60S:XTPCommandBars.obj
 0001:00032d20       ?ClosePopups@CXTPCommandBars@@QBEXXZ 00433d20 f   ToolkitPro1501vc60S:XTPCommandBars.obj
 0001:00032d50       ?OnFrameAccel@CXTPCommandBars@@QAEHI@Z 00433d50 f   ToolkitPro1501vc60S:XTPCommandBars.obj
 0001:00032eb0       ?PreTranslateFrameMessage@CXTPCommandBars@@QAEHPAUtagMSG@@@Z 00433eb0 f   ToolkitPro1501vc60S:XTPCommandBars.obj
 0001:000330b0       ?OnFrameWndMsg@CXTPCommandBars@@QAEHIIJPAJ@Z 004340b0 f   ToolkitPro1501vc60S:XTPCommandBars.obj
 0001:000332c0       ?IsLayoutRTL@CXTPCommandBars@@QBEHXZ 004342c0 f   ToolkitPro1501vc60S:XTPCommandBars.obj
 0001:000332f0       ?PumpMessage@CXTPPopupBar@@QAEXXZ 004342f0 f   ToolkitPro1501vc60S:XTPCommandBars.obj
 0001:00033400       ?TrackPopupMenu@CXTPCommandBars@@SAHPAVCXTPPopupBar@@IHHPAVCWnd@@PBUtagRECT@@1@Z 00434400 f   ToolkitPro1501vc60S:XTPCommandBars.obj
 0001:00033570       ?TrackPopupMenu@CXTPCommandBars@@SAHPAVCMenu@@IHHPAVCWnd@@PBUtagRECT@@1PAV1@@Z 00434570 f   ToolkitPro1501vc60S:XTPCommandBars.obj
 0001:00033620       ?GetToolbarsPopup@CXTPCommandBars@@UAEPAVCXTPPopupBar@@XZ 00434620 f   ToolkitPro1501vc60S:XTPCommandBars.obj
 0001:00033650       ?ContextMenu@CXTPCommandBars@@UAEXPAVCXTPToolBar@@VCPoint@@@Z 00434650 f   ToolkitPro1501vc60S:XTPCommandBars.obj
 0001:000336d0       ?ToggleVisible@CXTPCommandBars@@QAEXH@Z 004346d0 f   ToolkitPro1501vc60S:XTPCommandBars.obj
 0001:00033720       ?GetToolBar@CXTPCommandBars@@QBEPAVCXTPToolBar@@I@Z 00434720 f   ToolkitPro1501vc60S:XTPCommandBars.obj
 0001:00033760       ?_GetHiddenControls@CXTPToolBar@@AAEXPAVCXTPCommandBar@@@Z 00434760 f   ToolkitPro1501vc60S:XTPCommandBars.obj
 0001:000337c0       ?GetHiddenControls@CXTPCommandBars@@UAEXPAVCXTPToolBar@@PAVCXTPCommandBar@@@Z 004347c0 f   ToolkitPro1501vc60S:XTPCommandBars.obj
 0001:00033880       ?_GetAddOrRemovePopup@CXTPCommandBars@@IAEXPAVCXTPToolBar@@PAVCXTPCommandBar@@@Z 00434880 f   ToolkitPro1501vc60S:XTPCommandBars.obj
 0001:00033980       ?GetAddOrRemovePopup@CXTPCommandBars@@UAEXPAVCXTPToolBar@@PAVCXTPCommandBar@@@Z 00434980 f   ToolkitPro1501vc60S:XTPCommandBars.obj
 0001:00033a90       ?SetQuickCustomizeMode@CXTPCommandBars@@QAEXH@Z 00434a90 f   ToolkitPro1501vc60S:XTPCommandBars.obj
 0001:00033ac0       ?SetCustomizeMode@CXTPCommandBars@@QAEXH@Z 00434ac0 f   ToolkitPro1501vc60S:XTPCommandBars.obj
 0001:00033b40       ?GetDragControl@CXTPCommandBars@@QBEPAVCCmdTarget@@XZ 00434b40 f   ToolkitPro1501vc60S:XTPCommandBars.obj
 0001:00033b40       ?GetTextAlignment@CXTPStatusBarPane@@QBEHXZ 00434b40 f   ToolkitPro1501vc60S:XTPCommandBars.obj
 0001:00033b50       ?SetDragControl@CXTPCommandBars@@QAEXPAVCCmdTarget@@@Z 00434b50 f   ToolkitPro1501vc60S:XTPCommandBars.obj
 0001:00033be0       ?RemoveAll@CXTPCommandBars@@QAEXXZ 00434be0 f   ToolkitPro1501vc60S:XTPCommandBars.obj
 0001:00033c90       ?Remove@CXTPCommandBars@@QAEXPAVCXTPToolBar@@@Z 00434c90 f   ToolkitPro1501vc60S:XTPCommandBars.obj
 0001:00033d40       ?SetSite@CXTPCommandBars@@QAEXPAVCWnd@@@Z 00434d40 f   ToolkitPro1501vc60S:XTPCommandBars.obj
 0001:00033da0       ?IsControlHidden@CXTPCommandBars@@UAEHPAVCXTPControl@@@Z 00434da0 f   ToolkitPro1501vc60S:XTPCommandBars.obj
 0001:00033e40       ?IsCommandHidden@CXTPCommandBars@@UAEHI@Z 00434e40 f   ToolkitPro1501vc60S:XTPCommandBars.obj
 0001:00033ed0       ?SetCommandUsed@CXTPCommandBars@@QAEXI@Z 00434ed0 f   ToolkitPro1501vc60S:XTPCommandBars.obj
 0001:00033fe0       ?ResetUsageData@CXTPCommandBars@@QAEXXZ 00434fe0 f   ToolkitPro1501vc60S:XTPCommandBars.obj
 0001:00034050       ?PX_UintMap@@YAXPAVCXTPPropExchange@@PBDAAV?$CMap@IIHH@@@Z 00435050 f   ToolkitPro1501vc60S:XTPCommandBars.obj
 0001:000342e0       ??1CXTPPropExchangeSection@@QAE@XZ 004352e0 f i ToolkitPro1501vc60S:XTPCommandBars.obj
 0001:000342f0       ?DoPropExchange@CXTPCommandBarsOptions@@QAEXPAVCXTPPropExchange@@H@Z 004352f0 f   ToolkitPro1501vc60S:XTPCommandBars.obj
 0001:00034580       ?Serialize@CXTPCommandBarsOptions@@UAEXAAVCArchive@@@Z 00435580 f   ToolkitPro1501vc60S:XTPCommandBars.obj
 0001:000345f0       ??1CXTPPropExchangeArchive@@UAE@XZ 004355f0 f i ToolkitPro1501vc60S:XTPCommandBars.obj
 0001:00034600       ?SaveOptions@CXTPCommandBars@@QAEXPBD@Z 00435600 f   ToolkitPro1501vc60S:XTPCommandBars.obj
 0001:00034730       ?LoadOptions@CXTPCommandBars@@QAEXPBD@Z 00435730 f   ToolkitPro1501vc60S:XTPCommandBars.obj
 0001:00034850       ?GetPaintManager@CXTPCommandBars@@QBEPAVCXTPPaintManager@@XZ 00435850 f   ToolkitPro1501vc60S:XTPCommandBars.obj
 0001:00034870       ?GetImageManager@CXTPCommandBars@@QBEPAVCXTPImageManager@@XZ 00435870 f   ToolkitPro1501vc60S:XTPCommandBars.obj
 0001:00034880       ?FindDocTemplate@CXTPCommandBars@@IAEPAVCDocTemplate@@PAVCMDIChildWnd@@@Z 00435880 f   ToolkitPro1501vc60S:XTPCommandBars.obj
 0001:00034910       ?GetActiveDocTemplate@CXTPCommandBars@@UAEIXZ 00435910 f   ToolkitPro1501vc60S:XTPCommandBars.obj
 0001:00034980       ?OnSetPreviewMode@CXTPCommandBars@@QAEXH@Z 00435980 f   ToolkitPro1501vc60S:XTPCommandBars.obj
 0001:000349d0       ?GetToolTipContext@CXTPCommandBars@@QBEPAVCXTPToolTipContext@@XZ 004359d0 f   ToolkitPro1501vc60S:XTPCommandBars.obj
 0001:000349e0       ?FindIndex@CXTPCommandBars@@QBEHPAVCXTPToolBar@@@Z 004359e0 f   ToolkitPro1501vc60S:XTPCommandBars.obj
 0001:00034a20       ?GetNextVisible@CXTPCommandBars@@IBEHJH@Z 00435a20 f   ToolkitPro1501vc60S:XTPCommandBars.obj
 0001:00034ac0       ?SetToolBarFocus@CXTPCommandBars@@QAEHPAVCXTPToolBar@@H@Z 00435ac0 f   ToolkitPro1501vc60S:XTPCommandBars.obj
 0001:00034b80       ?CreateObject@?$CThreadLocal@VCXTPKeyboardManager@@@@SGPAVCNoTrackObject@@XZ 00435b80 f i ToolkitPro1501vc60S:XTPCommandBars.obj
 0001:00034be0       ?CreateObject@?$CThreadLocal@VCXTPMouseManager@@@@SGPAVCNoTrackObject@@XZ 00435be0 f i ToolkitPro1501vc60S:XTPCommandBars.obj
 0001:00034c40       ??1?$CArray@PAVCXTPToolBar@@PAV1@@@UAE@XZ 00435c40 f i ToolkitPro1501vc60S:XTPCommandBars.obj
 0001:00034c90       ??1?$CMap@IIHH@@UAE@XZ     00435c90 f i ToolkitPro1501vc60S:XTPCommandBars.obj
 0001:00034d10       ??1?$CArray@PAVCXTPCommandBarKeyboardTip@@PAV1@@@UAE@XZ 00435d10 f i ToolkitPro1501vc60S:XTPCommandBars.obj
 0001:00034d60       ??_G?$CArray@PAVCXTPToolBar@@PAV1@@@UAEPAXI@Z 00435d60 f i ToolkitPro1501vc60S:XTPCommandBars.obj
 0001:00034d60       ??_E?$CArray@PAVCXTPToolBar@@PAV1@@@UAEPAXI@Z 00435d60 f i ToolkitPro1501vc60S:XTPCommandBars.obj
 0001:00034d80       ??_E?$CArray@PAVCXTPCommandBar@@PAV1@@@UAEPAXI@Z 00435d80 f i ToolkitPro1501vc60S:XTPCommandBars.obj
 0001:00034d80       ??_G?$CArray@PAVCXTPCommandBar@@PAV1@@@UAEPAXI@Z 00435d80 f i ToolkitPro1501vc60S:XTPCommandBars.obj
 0001:00034da0       ??1?$CArray@PAVCXTPCommandBar@@PAV1@@@UAE@XZ 00435da0 f i ToolkitPro1501vc60S:XTPCommandBars.obj
 0001:00034df0       ??_E?$CMap@IIHH@@UAEPAXI@Z 00435df0 f i ToolkitPro1501vc60S:XTPCommandBars.obj
 0001:00034df0       ??_G?$CMap@IIHH@@UAEPAXI@Z 00435df0 f i ToolkitPro1501vc60S:XTPCommandBars.obj
 0001:00034e10       ??_G?$CArray@PAVCXTPCommandBarKeyboardTip@@PAV1@@@UAEPAXI@Z 00435e10 f i ToolkitPro1501vc60S:XTPCommandBars.obj
 0001:00034e10       ??_E?$CArray@PAVCXTPCommandBarKeyboardTip@@PAV1@@@UAEPAXI@Z 00435e10 f i ToolkitPro1501vc60S:XTPCommandBars.obj
 0001:00034e30       ??0CXTPComboBox@@QAE@XZ    00435e30 f   ToolkitPro1501vc60S:XTPComboBox.obj
 0001:00034ef0       ?SetBackColor@CXTPComboBox@@UAEXK@Z 00435ef0 f i ToolkitPro1501vc60S:XTPComboBox.obj
 0001:00034f00       ?SetTextColor@CXTPComboBox@@UAEXK@Z 00435f00 f i ToolkitPro1501vc60S:XTPComboBox.obj
 0001:00034f10       ??_ECXTPComboBox@@UAEPAXI@Z 00435f10 f i ToolkitPro1501vc60S:XTPComboBox.obj
 0001:00034f10       ??_GCXTPComboBox@@UAEPAXI@Z 00435f10 f i ToolkitPro1501vc60S:XTPComboBox.obj
 0001:00034f30       ??1CXTPComboBox@@UAE@XZ    00435f30 f   ToolkitPro1501vc60S:XTPComboBox.obj
 0001:00034fa0       ?GetRuntimeClass@CXTPComboBox@@UBEPAUCRuntimeClass@@XZ 00435fa0 f   ToolkitPro1501vc60S:XTPComboBox.obj
 0001:00034fb0       ?GetMessageMap@CXTPComboBox@@MBEPBUAFX_MSGMAP@@XZ 00435fb0 f   ToolkitPro1501vc60S:XTPComboBox.obj
 0001:00034fc0       ?RefreshMetrics@CXTPComboBox@@QAEXXZ 00435fc0 f   ToolkitPro1501vc60S:XTPComboBox.obj
 0001:00035720       ??4CXTPPaintManagerColor@@QAEABV0@ABV0@@Z 00436720 f i ToolkitPro1501vc60S:XTPComboBox.obj
 0001:00035740       ?Init@CXTPComboBox@@IAEXXZ 00436740 f   ToolkitPro1501vc60S:XTPComboBox.obj
 0001:00035790       ?PreSubclassWindow@CXTPComboBox@@MAEXXZ 00436790 f   ToolkitPro1501vc60S:XTPComboBox.obj
 0001:000357b0       ?OnCreate@CXTPComboBox@@IAEHPAUtagCREATESTRUCTA@@@Z 004367b0 f   ToolkitPro1501vc60S:XTPComboBox.obj
 0001:000357d0       ?PreCreateWindow@CXTPComboBox@@MAEHAAUtagCREATESTRUCTA@@@Z 004367d0 f   ToolkitPro1501vc60S:XTPComboBox.obj
 0001:00035800       ?SetTheme@CXTPComboBox@@QAEXW4XTPControlTheme@@@Z 00436800 f   ToolkitPro1501vc60S:XTPComboBox.obj
 0001:00035840       ?OnPaint@CXTPComboBox@@IAEXXZ 00436840 f   ToolkitPro1501vc60S:XTPComboBox.obj
 0001:000368a0       ?GetClientBrush@CXTPComboBox@@IAEPAUHBRUSH__@@PAVCDC@@@Z 004378a0 f   ToolkitPro1501vc60S:XTPComboBox.obj
 0001:00036930       ?OnMouseLeave@CXTPComboBox@@IAEXXZ 00437930 f   ToolkitPro1501vc60S:XTPComboBox.obj
 0001:000369e0       ?SetHighlighted@CXTPComboBox@@IAEXH@Z 004379e0 f   ToolkitPro1501vc60S:XTPComboBox.obj
 0001:00036a30       ?OnMouseMove@CXTPComboBox@@IAEXIVCPoint@@@Z 00437a30 f   ToolkitPro1501vc60S:XTPComboBox.obj
 0001:00036a90       ?GetMessageMap@CXTPComboBoxEditCtrl@@MBEPBUAFX_MSGMAP@@XZ 00437a90 f   ToolkitPro1501vc60S:XTPComboBox.obj
 0001:00036aa0       ?OnMouseLeave@CXTPComboBoxEditCtrl@@IAEXXZ 00437aa0 f   ToolkitPro1501vc60S:XTPComboBox.obj
 0001:00036af0       ?OnMouseMove@CXTPComboBoxEditCtrl@@IAEXIVCPoint@@@Z 00437af0 f   ToolkitPro1501vc60S:XTPComboBox.obj
 0001:00036b90       ?OnKillFocus@CXTPComboBoxEditCtrl@@IAEXPAVCWnd@@@Z 00437b90 f   ToolkitPro1501vc60S:XTPComboBox.obj
 0001:00036be0       ?OnSetFocus@CXTPComboBoxEditCtrl@@IAEXPAVCWnd@@@Z 00437be0 f   ToolkitPro1501vc60S:XTPComboBox.obj
 0001:00036c20       ?OnKillFocus@CXTPComboBox@@IAEXPAVCWnd@@@Z 00437c20 f   ToolkitPro1501vc60S:XTPComboBox.obj
 0001:00036c50       ?OnSetFocus@CXTPComboBox@@IAEXPAVCWnd@@@Z 00437c50 f   ToolkitPro1501vc60S:XTPComboBox.obj
 0001:00036c80       ?NeedRedraw@CXTPComboBox@@IAEHXZ 00437c80 f   ToolkitPro1501vc60S:XTPComboBox.obj
 0001:00036cb0       ?RedrawFocusedFrame@CXTPComboBox@@IAEXXZ 00437cb0 f   ToolkitPro1501vc60S:XTPComboBox.obj
 0001:00036ce0       ?OnSysColorChange@CXTPComboBox@@IAEXXZ 00437ce0 f   ToolkitPro1501vc60S:XTPComboBox.obj
 0001:00036d00       ?PreTranslateMessage@CXTPComboBox@@MAEHPAUtagMSG@@@Z 00437d00 f   ToolkitPro1501vc60S:XTPComboBox.obj
 0001:00036dc0       ?OnEditUpdate@CXTPComboBox@@IAEHXZ 00437dc0 f   ToolkitPro1501vc60S:XTPComboBox.obj
 0001:00036f20       ?OnEndSel@CXTPComboBox@@IAEHXZ 00437f20 f   ToolkitPro1501vc60S:XTPComboBox.obj
 0001:00036f40       _compress2                 00437f40 f   ToolkitPro1501vc60S:compress.obj
 0001:00036ff0       _compress                  00437ff0 f   ToolkitPro1501vc60S:compress.obj
 0001:00037010       _uncompress                00438010 f   ToolkitPro1501vc60S:uncompr.obj
 0001:000370f0       ?AddCaptionButton@CXTPOffice2007FrameHook@@IAEXHH@Z 004380f0 f   ToolkitPro1501vc60S:XTPOffice2007FrameHook.obj
 0001:00037180       ?SetParent@CXTPControl@@MAEXPAVCXTPCommandBar@@@Z 00438180 f i ToolkitPro1501vc60S:XTPOffice2007FrameHook.obj
 0001:00037190       ?GetDescription@CXTPControl@@UBE?AVCString@@XZ 00438190 f i ToolkitPro1501vc60S:XTPOffice2007FrameHook.obj
 0001:00037260       ?GetDescription@CXTPControlAction@@QBE?AVCString@@XZ 00438260 f i ToolkitPro1501vc60S:XTPOffice2007FrameHook.obj
 0001:00037280       ?GetTooltip@CXTPControl@@UBE?AVCString@@XZ 00438280 f i ToolkitPro1501vc60S:XTPOffice2007FrameHook.obj
 0001:00037350       ?GetTooltip@CXTPControlAction@@QBE?AVCString@@XZ 00438350 f i ToolkitPro1501vc60S:XTPOffice2007FrameHook.obj
 0001:00037370       ?GetCaption@CXTPControl@@UBE?AVCString@@XZ 00438370 f i ToolkitPro1501vc60S:XTPOffice2007FrameHook.obj
 0001:00037450       ?GetCaption@CXTPControlAction@@QBE?AVCString@@XZ 00438450 f i ToolkitPro1501vc60S:XTPOffice2007FrameHook.obj
 0001:00037480       ?SetBeginGroup@CXTPControl@@UAEXH@Z 00438480 f i ToolkitPro1501vc60S:XTPOffice2007FrameHook.obj
 0001:000374a0       ?SetEnabled@CXTPControl@@UAEXH@Z 004384a0 f i ToolkitPro1501vc60S:XTPOffice2007FrameHook.obj
 0001:000374d0       ?SetChecked@CXTPControl@@UAEXH@Z 004384d0 f i ToolkitPro1501vc60S:XTPOffice2007FrameHook.obj
 0001:000374f0       ?SetRect@CXTPControl@@UAEXVCRect@@@Z 004384f0 f i ToolkitPro1501vc60S:XTPOffice2007FrameHook.obj
 0001:00037520       ?IsVisible@CXTPControl@@UBEHK@Z 00438520 f i ToolkitPro1501vc60S:XTPOffice2007FrameHook.obj
 0001:00037550       ?SetHideFlags@CXTPControl@@UAEXK@Z 00438550 f i ToolkitPro1501vc60S:XTPOffice2007FrameHook.obj
 0001:00037560       ?SetWidth@CXTPControl@@UAEXH@Z 00438560 f i ToolkitPro1501vc60S:XTPOffice2007FrameHook.obj
 0001:00037580       ?SetHeight@CXTPControl@@UAEXH@Z 00438580 f i ToolkitPro1501vc60S:XTPOffice2007FrameHook.obj
 0001:000375a0       ?OnRButtonUp@CXTPControl@@MAEHVCPoint@@@Z 004385a0 f i ToolkitPro1501vc60S:XTPOffice2007FrameHook.obj
 0001:000375a0       ?OnHookKeyDown@CXTPControl@@MAEHIJ@Z 004385a0 f i ToolkitPro1501vc60S:XTPOffice2007FrameHook.obj
 0001:000375a0       ?OnRButtonDown@CXTPControl@@MAEHVCPoint@@@Z 004385a0 f i ToolkitPro1501vc60S:XTPOffice2007FrameHook.obj
 0001:000375b0       ?SetPosition@CXTPCommandBar@@UAEHW4XTPBarPosition@@@Z 004385b0 f i ToolkitPro1501vc60S:XTPOffice2007FrameHook.obj
 0001:000375b0       ?OnSetPopup@CXTPControl@@MAEHH@Z 004385b0 f i ToolkitPro1501vc60S:XTPOffice2007FrameHook.obj
 0001:000375b0       ?PreviewAccel@CXTPCommandBar@@UAEHI@Z 004385b0 f i ToolkitPro1501vc60S:XTPOffice2007FrameHook.obj
 0001:000375c0       ?OnHookMouseWheel@CXTPControl@@MAEHIFVCPoint@@@Z 004385c0 f i ToolkitPro1501vc60S:XTPOffice2007FrameHook.obj
 0001:000375d0       ?OnToolHitTest@CXTPControl@@MBEHVCPoint@@PAUtagTOOLINFOA@@@Z 004385d0 f i ToolkitPro1501vc60S:XTPOffice2007FrameHook.obj
 0001:000375e0       ?GetSelected@CControlCaptionButton@CXTPOffice2007FrameHook@@UBEHXZ 004385e0 f i ToolkitPro1501vc60S:XTPOffice2007FrameHook.obj
 0001:00037600       ?GetPressed@CControlCaptionButton@CXTPOffice2007FrameHook@@UBEHXZ 00438600 f i ToolkitPro1501vc60S:XTPOffice2007FrameHook.obj
 0001:00037620       ??0CWinEventHook@CXTPOffice2007FrameHook@@QAE@XZ 00438620 f   ToolkitPro1501vc60S:XTPOffice2007FrameHook.obj
 0001:00037630       ?SetEventHook@CWinEventHook@CXTPOffice2007FrameHook@@QAEXXZ 00438630 f   ToolkitPro1501vc60S:XTPOffice2007FrameHook.obj
 0001:000376b0       ?RemoveEventHook@CWinEventHook@CXTPOffice2007FrameHook@@QAEXXZ 004386b0 f   ToolkitPro1501vc60S:XTPOffice2007FrameHook.obj
 0001:000376f0       ?WinEventProc@CWinEventHook@CXTPOffice2007FrameHook@@KGXPAUHWINEVENTHOOK__@12@KPAUHWND__@@JJKK@Z 004386f0 f   ToolkitPro1501vc60S:XTPOffice2007FrameHook.obj
 0001:00037770       ??0CXTPOffice2007FrameHook@@QAE@XZ 00438770 f   ToolkitPro1501vc60S:XTPOffice2007FrameHook.obj
 0001:000379f0       ??_ECXTPOffice2007FrameHook@@UAEPAXI@Z 004389f0 f i ToolkitPro1501vc60S:XTPOffice2007FrameHook.obj
 0001:000379f0       ??_GCXTPOffice2007FrameHook@@UAEPAXI@Z 004389f0 f i ToolkitPro1501vc60S:XTPOffice2007FrameHook.obj
 0001:00037a10       ?OnResourceImagesChanged@CXTPOffice2007FrameHook@@IAEXKIJ@Z 00438a10 f   ToolkitPro1501vc60S:XTPOffice2007FrameHook.obj
 0001:00037a60       ?DisableOffice2007Frame@CXTPOffice2007FrameHook@@QAEXXZ 00438a60 f   ToolkitPro1501vc60S:XTPOffice2007FrameHook.obj
 0001:00037b30       ??1CXTPOffice2007FrameHook@@UAE@XZ 00438b30 f   ToolkitPro1501vc60S:XTPOffice2007FrameHook.obj
 0001:00037c30       ?GetSiteStyle@CXTPOffice2007FrameHook@@QBEKH@Z 00438c30 f   ToolkitPro1501vc60S:XTPOffice2007FrameHook.obj
 0001:00037c60       ?EnableOffice2007Frame@CXTPOffice2007FrameHook@@QAEXPAVCXTPCommandBars@@@Z 00438c60 f   ToolkitPro1501vc60S:XTPOffice2007FrameHook.obj
 0001:00037dd0       ?SetWinHook@CXTPOffice2007FrameHook@@IAEXXZ 00438dd0 f   ToolkitPro1501vc60S:XTPOffice2007FrameHook.obj
 0001:00037e30       ?GetPaintManager@CXTPOffice2007FrameHook@@QBEPAVCXTPPaintManager@@XZ 00438e30 f   ToolkitPro1501vc60S:XTPOffice2007FrameHook.obj
 0001:00037e50       ?GetFramePaintManager@CXTPOffice2007FrameHook@@QBEPAVCXTPFramePaintManager@@XZ 00438e50 f   ToolkitPro1501vc60S:XTPOffice2007FrameHook.obj
 0001:00037e60       ?UpdateFrameRegion@CXTPOffice2007FrameHook@@IAEXXZ 00438e60 f   ToolkitPro1501vc60S:XTPOffice2007FrameHook.obj
 0001:00037eb0       ?UpdateFrameRegion@CXTPOffice2007FrameHook@@IAEXVCSize@@H@Z 00438eb0 f   ToolkitPro1501vc60S:XTPOffice2007FrameHook.obj
 0001:00038070       ?IsMDIMaximized@CXTPOffice2007FrameHook@@QBEHXZ 00439070 f   ToolkitPro1501vc60S:XTPOffice2007FrameHook.obj
 0001:000380a0       ?IsCaptionVisible@CXTPOffice2007FrameHook@@QBEHXZ 004390a0 f   ToolkitPro1501vc60S:XTPOffice2007FrameHook.obj
 0001:000380f0       ?IsFrameHasStatusBar@CXTPOffice2007FrameHook@@QBEHPAH@Z 004390f0 f   ToolkitPro1501vc60S:XTPOffice2007FrameHook.obj
 0001:00038190       ?RedrawFrame@CXTPOffice2007FrameHook@@QAEXXZ 00439190 f   ToolkitPro1501vc60S:XTPOffice2007FrameHook.obj
 0001:00038210       ?DrawRibbonFramePart@CXTPOffice2007FrameHook@@QAEXPAVCDC@@@Z 00439210 f   ToolkitPro1501vc60S:XTPOffice2007FrameHook.obj
 0001:00038240       ?RedrawRibbonBar@CXTPOffice2007FrameHook@@QAEXXZ 00439240 f   ToolkitPro1501vc60S:XTPOffice2007FrameHook.obj
 0001:00038270       ?DelayRecalcFrameLayout@CXTPOffice2007FrameHook@@QAEXXZ 00439270 f   ToolkitPro1501vc60S:XTPOffice2007FrameHook.obj
 0001:00038290       ?RecalcFrameLayout@CXTPOffice2007FrameHook@@QAEXXZ 00439290 f   ToolkitPro1501vc60S:XTPOffice2007FrameHook.obj
 0001:00038340       ?RepositionCaptionButtons@CXTPOffice2007FrameHook@@IAEXXZ 00439340 f   ToolkitPro1501vc60S:XTPOffice2007FrameHook.obj
 0001:00038640       ?SetHideFlag@CXTPControl@@QAEHW4XTPControlHideFlags@@H@Z 00439640 f i ToolkitPro1501vc60S:XTPOffice2007FrameHook.obj
 0001:000386a0       ?ScreenToFrame@CXTPOffice2007FrameHook@@IAEXPAUtagPOINT@@@Z 004396a0 f   ToolkitPro1501vc60S:XTPOffice2007FrameHook.obj
 0001:000386c0       ?TrackCaptionButton@CXTPOffice2007FrameHook@@IAEXPAVCXTPControl@@@Z 004396c0 f   ToolkitPro1501vc60S:XTPOffice2007FrameHook.obj
 0001:00038830       ?GetCaptionHeight@CXTPOffice2007FrameHook@@QBEHXZ 00439830 f   ToolkitPro1501vc60S:XTPOffice2007FrameHook.obj
 0001:00038860       ?HitTestCaptionButton@CXTPOffice2007FrameHook@@IAEPAVCXTPControl@@VCPoint@@@Z 00439860 f   ToolkitPro1501vc60S:XTPOffice2007FrameHook.obj
 0001:00038890       ?RefreshFrameStyle@CXTPOffice2007FrameHook@@IAEXXZ 00439890 f   ToolkitPro1501vc60S:XTPOffice2007FrameHook.obj
 0001:00038930       ?GetAutoHideBar@CXTPOffice2007FrameHook@@IBEHXZ 00439930 f   ToolkitPro1501vc60S:XTPOffice2007FrameHook.obj
 0001:00038960       ?OnHookMessage@CXTPOffice2007FrameHook@@MAEHPAUHWND__@@IAAIAAJ2@Z 00439960 f   ToolkitPro1501vc60S:XTPOffice2007FrameHook.obj
 0001:00039480       ??1?$CXTPNotifySinkImpl@VCXTPOffice2007FrameHook@@VC_m_Sink_Informator@1@@@UAE@XZ 0043a480 f i ToolkitPro1501vc60S:XTPOffice2007FrameHook.obj
 0001:00039530       ?OnEvent@?$CXTPNotifySinkImpl@VCXTPOffice2007FrameHook@@VC_m_Sink_Informator@1@@@UAEXKIJK@Z 0043a530 f i ToolkitPro1501vc60S:XTPOffice2007FrameHook.obj
 0001:000395a0       ??_E?$CXTPNotifySinkImpl@VCXTPOffice2007FrameHook@@VC_m_Sink_Informator@1@@@UAEPAXI@Z 0043a5a0 f i ToolkitPro1501vc60S:XTPOffice2007FrameHook.obj
 0001:000395a0       ??_G?$CXTPNotifySinkImpl@VCXTPOffice2007FrameHook@@VC_m_Sink_Informator@1@@@UAEPAXI@Z 0043a5a0 f i ToolkitPro1501vc60S:XTPOffice2007FrameHook.obj
 0001:000395c0       ??1?$CXTPNotifyMapCodeToHandler@P8CXTPOffice2007FrameHook@@AEXKIJ@Z@@UAE@XZ 0043a5c0 f i ToolkitPro1501vc60S:XTPOffice2007FrameHook.obj
 0001:00039640       ??_E?$CXTPNotifyMapCodeToHandler@P8CXTPOffice2007FrameHook@@AEXKIJ@Z@@UAEPAXI@Z 0043a640 f i ToolkitPro1501vc60S:XTPOffice2007FrameHook.obj
 0001:00039640       ??_G?$CXTPNotifyMapCodeToHandler@P8CXTPOffice2007FrameHook@@AEXKIJ@Z@@UAEPAXI@Z 0043a640 f i ToolkitPro1501vc60S:XTPOffice2007FrameHook.obj
 0001:00039660       ??0?$CMap@KKV?$XTP_MAPHANDLER_T@$03@@AAV1@@@QAE@H@Z 0043a660 f i ToolkitPro1501vc60S:XTPOffice2007FrameHook.obj
 0001:00039690       ?Serialize@?$CMap@KKV?$XTP_MAPHANDLER_T@$03@@AAV1@@@UAEXAAVCArchive@@@Z 0043a690 f i ToolkitPro1501vc60S:XTPOffice2007FrameHook.obj
 0001:00039890       ??_G?$CMap@KKV?$XTP_MAPHANDLER_T@$03@@AAV1@@@UAEPAXI@Z 0043a890 f i ToolkitPro1501vc60S:XTPOffice2007FrameHook.obj
 0001:00039890       ??_E?$CMap@KKV?$XTP_MAPHANDLER_T@$03@@AAV1@@@UAEPAXI@Z 0043a890 f i ToolkitPro1501vc60S:XTPOffice2007FrameHook.obj
 0001:000398b0       ??1?$CMap@KKV?$XTP_MAPHANDLER_T@$03@@AAV1@@@UAE@XZ 0043a8b0 f i ToolkitPro1501vc60S:XTPOffice2007FrameHook.obj
 0001:00039930       ??_ECXTPRibbonControlSystemRecentFileList@@WBM@AEPAXI@Z 0043a930 f i ToolkitPro1501vc60S:XTPOffice2007FrameHook.obj
 0001:00039930       ??_ECXTPControlSelector@@WBM@AEPAXI@Z 0043a930 f i ToolkitPro1501vc60S:XTPOffice2007FrameHook.obj
 0001:00039930       ??_ECXTPRibbonControlSystemPopupBarListCaption@@WBM@AEPAXI@Z 0043a930 f i ToolkitPro1501vc60S:XTPOffice2007FrameHook.obj
 0001:00039930       ??_ECXTPControlBitmap@@WBM@AEPAXI@Z 0043a930 f i ToolkitPro1501vc60S:XTPOffice2007FrameHook.obj
 0001:00039930       ??_ECXTPRibbonBackstageTab@@WBM@AEPAXI@Z 0043a930 f i ToolkitPro1501vc60S:XTPOffice2007FrameHook.obj
 0001:00039930       ??_ECXTPControlLabel@@WBM@AEPAXI@Z 0043a930 f i ToolkitPro1501vc60S:XTPOffice2007FrameHook.obj
 0001:00039930       ??_ECXTPControlHyperlink@@WBM@AEPAXI@Z 0043a930 f i ToolkitPro1501vc60S:XTPOffice2007FrameHook.obj
 0001:00039930       ??_ECXTPRibbonBackstageCommand@@WBM@AEPAXI@Z 0043a930 f i ToolkitPro1501vc60S:XTPOffice2007FrameHook.obj
 0001:00039930       ??_ECControlCaptionButton@CXTPOffice2007FrameHook@@WBM@AEPAXI@Z 0043a930 f i ToolkitPro1501vc60S:XTPOffice2007FrameHook.obj
 0001:00039970       ??0CXTPTrayIcon@@QAE@XZ    0043a970 f   ToolkitPro1501vc60S:XTPTrayIcon.obj
 0001:00039a30       ?Create@CXTPTrayIcon@@UAE_NPBDKPAVCWnd@@I@Z 0043aa30 f i ToolkitPro1501vc60S:XTPTrayIcon.obj
 0001:00039a50       ?SetTooltip@CXTPTrayIcon@@UAEXPBD@Z 0043aa50 f i ToolkitPro1501vc60S:XTPTrayIcon.obj
 0001:00039a60       ?SetTrayIcon@CXTPTrayIcon@@UAEXIK@Z 0043aa60 f i ToolkitPro1501vc60S:XTPTrayIcon.obj
 0001:00039a70       ?SetAnimationIcons@CXTPTrayIcon@@UAEXPBIPBVCString@@H@Z 0043aa70 f i ToolkitPro1501vc60S:XTPTrayIcon.obj
 0001:00039a90       ?KillTimer@CXTPTrayIcon@@UAEXXZ 0043aa90 f i ToolkitPro1501vc60S:XTPTrayIcon.obj
 0001:00039aa0       ?SetTimer@CXTPTrayIcon@@UAEXII@Z 0043aaa0 f i ToolkitPro1501vc60S:XTPTrayIcon.obj
 0001:00039ac0       ??_GCXTPTrayIcon@@UAEPAXI@Z 0043aac0 f i ToolkitPro1501vc60S:XTPTrayIcon.obj
 0001:00039ac0       ??_ECXTPTrayIcon@@UAEPAXI@Z 0043aac0 f i ToolkitPro1501vc60S:XTPTrayIcon.obj
 0001:00039ae0       ??1CXTPTrayIcon@@UAE@XZ    0043aae0 f   ToolkitPro1501vc60S:XTPTrayIcon.obj
 0001:00039bd0       ?GetMessageMap@CXTPTrayIcon@@MBEPBUAFX_MSGMAP@@XZ 0043abd0 f   ToolkitPro1501vc60S:XTPTrayIcon.obj
 0001:00039be0       ?SetDefaultValues@CXTPTrayIcon@@QAEXXZ 0043abe0 f   ToolkitPro1501vc60S:XTPTrayIcon.obj
 0001:00039c80       ?IsShellVersion5@CXTPTrayIcon@@QBEHXZ 0043ac80 f   ToolkitPro1501vc60S:XTPTrayIcon.obj
 0001:00039d00       ?ShellNotify@CXTPTrayIcon@@QAEHK@Z 0043ad00 f   ToolkitPro1501vc60S:XTPTrayIcon.obj
 0001:00039d20       ?SetIcon@CXTPTrayIcon@@QAE_NPAUHICON__@@@Z 0043ad20 f   ToolkitPro1501vc60S:XTPTrayIcon.obj
 0001:00039d60       ?SetIcon@CXTPTrayIcon@@QAE_NPBD@Z 0043ad60 f   ToolkitPro1501vc60S:XTPTrayIcon.obj
 0001:00039dc0       ?SetIcon@CXTPTrayIcon@@QAE_NI@Z 0043adc0 f   ToolkitPro1501vc60S:XTPTrayIcon.obj
 0001:00039de0       ?RemoveAnimationIcons@CXTPTrayIcon@@UAEXXZ 0043ade0 f   ToolkitPro1501vc60S:XTPTrayIcon.obj
 0001:00039e30       ?SetAnimationIcons@CXTPTrayIcon@@UAE_NPBIHPBVCString@@@Z 0043ae30 f   ToolkitPro1501vc60S:XTPTrayIcon.obj
 0001:0003a020       ??1TRAYICONDATA@CXTPTrayIcon@@QAE@XZ 0043b020 f i ToolkitPro1501vc60S:XTPTrayIcon.obj
 0001:0003a030       ??0TRAYICONDATA@CXTPTrayIcon@@QAE@XZ 0043b030 f i ToolkitPro1501vc60S:XTPTrayIcon.obj
 0001:0003a040       ?SetTooltipText@CXTPTrayIcon@@QAE_NPBD@Z 0043b040 f   ToolkitPro1501vc60S:XTPTrayIcon.obj
 0001:0003a0d0       ?SetShellTooltip@CXTPTrayIcon@@AAE_NPBD@Z 0043b0d0 f   ToolkitPro1501vc60S:XTPTrayIcon.obj
 0001:0003a120       ?AddIcon@CXTPTrayIcon@@QAE_NXZ 0043b120 f   ToolkitPro1501vc60S:XTPTrayIcon.obj
 0001:0003a160       ?RemoveIcon@CXTPTrayIcon@@QAE_NXZ 0043b160 f   ToolkitPro1501vc60S:XTPTrayIcon.obj
 0001:0003a1a0       ?OnTimer@CXTPTrayIcon@@IAEXI@Z 0043b1a0 f   ToolkitPro1501vc60S:XTPTrayIcon.obj
 0001:0003a220       ?Create@CXTPTrayIcon@@UAE_NPBDPAVCWnd@@III_N@Z 0043b220 f   ToolkitPro1501vc60S:XTPTrayIcon.obj
 0001:0003a2d0       ?ShowBalloonTip@CXTPTrayIcon@@QAE_NPBD0KI@Z 0043b2d0 f   ToolkitPro1501vc60S:XTPTrayIcon.obj
 0001:0003a380       ?StartAnimation@CXTPTrayIcon@@UAEXI@Z 0043b380 f   ToolkitPro1501vc60S:XTPTrayIcon.obj
 0001:0003a3a0       ?StopAnimation@CXTPTrayIcon@@UAEXXZ 0043b3a0 f   ToolkitPro1501vc60S:XTPTrayIcon.obj
 0001:0003a3d0       ?OnTrayNotification@CXTPTrayIcon@@MAEJIJ@Z 0043b3d0 f   ToolkitPro1501vc60S:XTPTrayIcon.obj
 0001:0003a6e0       ?WindowProc@CXTPTrayIcon@@MAEJIIJ@Z 0043b6e0 f   ToolkitPro1501vc60S:XTPTrayIcon.obj
 0001:0003a720       ?OnTaskbarCreated@CXTPTrayIcon@@IAEJIJ@Z 0043b720 f   ToolkitPro1501vc60S:XTPTrayIcon.obj
 0001:0003a730       ?OnSettingChange@CXTPTrayIcon@@IAEXIPBD@Z 0043b730 f   ToolkitPro1501vc60S:XTPTrayIcon.obj
 0001:0003a760       ?InstallIconPending@CXTPTrayIcon@@UAEXXZ 0043b760 f   ToolkitPro1501vc60S:XTPTrayIcon.obj
 0001:0003a790       ?FindTrayWnd@CXTPTrayIcon@@CGHPAUHWND__@@J@Z 0043b790 f   ToolkitPro1501vc60S:XTPTrayIcon.obj
 0001:0003a840       ?GetTrayWindowRect@CXTPTrayIcon@@AAE_NAAVCRect@@@Z 0043b840 f   ToolkitPro1501vc60S:XTPTrayIcon.obj
 0001:0003a960       ?CanAnimate@CXTPTrayIcon@@ABE_NXZ 0043b960 f   ToolkitPro1501vc60S:XTPTrayIcon.obj
 0001:0003a9a0       ?CreateMinimizeWnd@CXTPTrayIcon@@UAE_NPAVCWnd@@@Z 0043b9a0 f   ToolkitPro1501vc60S:XTPTrayIcon.obj
 0001:0003aa20       ?MinimizeToTray@CXTPTrayIcon@@QAEXPAVCWnd@@@Z 0043ba20 f   ToolkitPro1501vc60S:XTPTrayIcon.obj
 0001:0003aa90       ?MaximizeFromTray@CXTPTrayIcon@@QAEXPAVCWnd@@@Z 0043ba90 f   ToolkitPro1501vc60S:XTPTrayIcon.obj
 0001:0003ab50       ?RemoveHead@?$CList@UTRAYICONDATA@CXTPTrayIcon@@AAU12@@@QAE?AUTRAYICONDATA@CXTPTrayIcon@@XZ 0043bb50 f i ToolkitPro1501vc60S:XTPTrayIcon.obj
 0001:0003ac50       ??1?$CList@UTRAYICONDATA@CXTPTrayIcon@@AAU12@@@UAE@XZ 0043bc50 f i ToolkitPro1501vc60S:XTPTrayIcon.obj
 0001:0003acd0       ?Serialize@?$CList@UTRAYICONDATA@CXTPTrayIcon@@AAU12@@@UAEXAAVCArchive@@@Z 0043bcd0 f i ToolkitPro1501vc60S:XTPTrayIcon.obj
 0001:0003ae50       ??_G?$CList@UTRAYICONDATA@CXTPTrayIcon@@AAU12@@@UAEPAXI@Z 0043be50 f i ToolkitPro1501vc60S:XTPTrayIcon.obj
 0001:0003ae50       ??_E?$CList@UTRAYICONDATA@CXTPTrayIcon@@AAU12@@@UAEPAXI@Z 0043be50 f i ToolkitPro1501vc60S:XTPTrayIcon.obj
 0001:0003ae70       ?ConstructElements@@YGXPAUTRAYICONDATA@CXTPTrayIcon@@H@Z 0043be70 f i ToolkitPro1501vc60S:XTPTrayIcon.obj
 0001:0003aef0       ?GetRuntimeClass@CXTPStatusBarPane@@UBEPAUCRuntimeClass@@XZ 0043bef0 f   ToolkitPro1501vc60S:XTPStatusBar.obj
 0001:0003af00       ??0CXTPStatusBarPane@@QAE@XZ 0043bf00 f   ToolkitPro1501vc60S:XTPStatusBar.obj
 0001:0003afd0       ??_ECXTPStatusBarPane@@UAEPAXI@Z 0043bfd0 f i ToolkitPro1501vc60S:XTPStatusBar.obj
 0001:0003afd0       ??_GCXTPStatusBarPane@@UAEPAXI@Z 0043bfd0 f i ToolkitPro1501vc60S:XTPStatusBar.obj
 0001:0003aff0       ??1CXTPStatusBarPane@@UAE@XZ 0043bff0 f   ToolkitPro1501vc60S:XTPStatusBar.obj
 0001:0003b0e0       ?GetRect@CXTPStatusBarPane@@QBE?AVCRect@@XZ 0043c0e0 f   ToolkitPro1501vc60S:XTPStatusBar.obj
 0001:0003b110       ?Redraw@CXTPStatusBarPane@@QBEXXZ 0043c110 f   ToolkitPro1501vc60S:XTPStatusBar.obj
 0001:0003b160       ?GetPadding@CXTPStatusBarPane@@QBE?AVCRect@@XZ 0043c160 f   ToolkitPro1501vc60S:XTPStatusBar.obj
 0001:0003b190       ?SetText@CXTPStatusBarPane@@QAEXPBD@Z 0043c190 f   ToolkitPro1501vc60S:XTPStatusBar.obj
 0001:0003b270       ?GetText@CXTPStatusBarPane@@QBE?AVCString@@XZ 0043c270 f   ToolkitPro1501vc60S:XTPStatusBar.obj
 0001:0003b290       ?GetWidth@CXTPStatusBarPane@@UAEHXZ 0043c290 f   ToolkitPro1501vc60S:XTPStatusBar.obj
 0001:0003b2a0       ?SetStyle@CXTPStatusBarPane@@QAEXI@Z 0043c2a0 f   ToolkitPro1501vc60S:XTPStatusBar.obj
 0001:0003b2e0       ?GetID@CXTPStatusBarPane@@QBEIXZ 0043c2e0 f   ToolkitPro1501vc60S:XTPStatusBar.obj
 0001:0003b2e0       ?GetCount@CXTPMarkupDoubleCollection@@QBEHXZ 0043c2e0 f   ToolkitPro1501vc60S:XTPStatusBar.obj
 0001:0003b2e0       ?GetLogicalChildrenCount@CXTPMarkupCollection@@UBEHXZ 0043c2e0 f   ToolkitPro1501vc60S:XTPStatusBar.obj
 0001:0003b2f0       ?GetIndex@CXTPStatusBarPane@@QBEHXZ 0043c2f0 f   ToolkitPro1501vc60S:XTPStatusBar.obj
 0001:0003b300       ?GetStatusBar@CXTPStatusBarPane@@QBEPAVCXTPStatusBar@@XZ 0043c300 f   ToolkitPro1501vc60S:XTPStatusBar.obj
 0001:0003b300       ?GetWorkspaceCount@CXTPTabClientWnd@@QBEHXZ 0043c300 f   ToolkitPro1501vc60S:XTPStatusBar.obj
 0001:0003b310       ?OnDraw@CXTPStatusBarPane@@MAEXPAVCDC@@VCRect@@@Z 0043c310 f   ToolkitPro1501vc60S:XTPStatusBar.obj
 0001:0003b360       ?GetBestFit@CXTPStatusBarPane@@QAEHXZ 0043c360 f   ToolkitPro1501vc60S:XTPStatusBar.obj
 0001:0003b490       ?GetTextFont@CXTPStatusBarPane@@UAEPAVCFont@@XZ 0043c490 f   ToolkitPro1501vc60S:XTPStatusBar.obj
 0001:0003b4b0       ?GetImage@CXTPStatusBarPane@@UBEPAVCXTPImageManagerIcon@@XZ 0043c4b0 f   ToolkitPro1501vc60S:XTPStatusBar.obj
 0001:0003b4d0       ?GetTooltip@CXTPStatusBarPane@@QBE?AVCString@@XZ 0043c4d0 f   ToolkitPro1501vc60S:XTPStatusBar.obj
 0001:0003b4f0       ?SetEnabled@CXTPStatusBarPane@@QAEXH@Z 0043c4f0 f   ToolkitPro1501vc60S:XTPStatusBar.obj
 0001:0003b530       ?IsEnabled@CXTPStatusBarPane@@QBEHXZ 0043c530 f   ToolkitPro1501vc60S:XTPStatusBar.obj
 0001:0003b540       ?IsChecked@CXTPStatusBarPane@@QBEHXZ 0043c540 f   ToolkitPro1501vc60S:XTPStatusBar.obj
 0001:0003b560       ?OnToolHitTest@CXTPStatusBarPane@@MBEHVCPoint@@PAUtagTOOLINFOA@@@Z 0043c560 f   ToolkitPro1501vc60S:XTPStatusBar.obj
 0001:0003b570       ?OnLButtonDown@CXTPStatusBarPane@@MAEXVCPoint@@@Z 0043c570 f   ToolkitPro1501vc60S:XTPStatusBar.obj
 0001:0003b6c0       ?GetRuntimeClass@CXTPStatusBar@@UBEPAUCRuntimeClass@@XZ 0043c6c0 f   ToolkitPro1501vc60S:XTPStatusBar.obj
 0001:0003b6d0       ??0CXTPStatusBar@@QAE@XZ   0043c6d0 f   ToolkitPro1501vc60S:XTPStatusBar.obj
 0001:0003b7c0       ??_ECXTPStatusBar@@UAEPAXI@Z 0043c7c0 f i ToolkitPro1501vc60S:XTPStatusBar.obj
 0001:0003b7c0       ??_GCXTPStatusBar@@UAEPAXI@Z 0043c7c0 f i ToolkitPro1501vc60S:XTPStatusBar.obj
 0001:0003b7e0       ?IsWin4@CXTPStatusBar@@AAEHXZ 0043c7e0 f   ToolkitPro1501vc60S:XTPStatusBar.obj
 0001:0003b7f0       ??1CXTPStatusBar@@UAE@XZ   0043c7f0 f   ToolkitPro1501vc60S:XTPStatusBar.obj
 0001:0003b8b0       ?GetImageManager@CXTPStatusBar@@QBEPAVCXTPImageManager@@XZ 0043c8b0 f   ToolkitPro1501vc60S:XTPStatusBar.obj
 0001:0003b8d0       ?HitTest@CXTPStatusBar@@QBEPAVCXTPStatusBarPane@@VCPoint@@PAVCRect@@@Z 0043c8d0 f   ToolkitPro1501vc60S:XTPStatusBar.obj
 0001:0003b980       ?RemoveAll@CXTPStatusBar@@QAEXXZ 0043c980 f   ToolkitPro1501vc60S:XTPStatusBar.obj
 0001:0003b9e0       ?GetAt@CXTPCommandBars@@QBEPAVCXTPToolBar@@H@Z 0043c9e0 f   ToolkitPro1501vc60S:XTPStatusBar.obj
 0001:0003b9e0       ?GetPane@CXTPStatusBar@@QBEPAVCXTPStatusBarPane@@H@Z 0043c9e0 f   ToolkitPro1501vc60S:XTPStatusBar.obj
 0001:0003ba00       ?FindPane@CXTPStatusBar@@QBEPAVCXTPStatusBarPane@@I@Z 0043ca00 f   ToolkitPro1501vc60S:XTPStatusBar.obj
 0001:0003ba50       ?Create@CXTPStatusBar@@QAEHPAVCWnd@@KI@Z 0043ca50 f   ToolkitPro1501vc60S:XTPStatusBar.obj
 0001:0003ba70       ?GetFont@CXTPStatusBar@@QAEPAVCFont@@XZ 0043ca70 f   ToolkitPro1501vc60S:XTPStatusBar.obj
 0001:0003ba90       ?CreateEx@CXTPStatusBar@@QAEHPAVCWnd@@KKI@Z 0043ca90 f   ToolkitPro1501vc60S:XTPStatusBar.obj
 0001:0003bb20       ?PreCreateWindow@CXTPStatusBar@@MAEHAAUtagCREATESTRUCTA@@@Z 0043cb20 f   ToolkitPro1501vc60S:XTPStatusBar.obj
 0001:0003bb60       ?SetIndicators@CXTPStatusBar@@QAEHPBIH@Z 0043cb60 f   ToolkitPro1501vc60S:XTPStatusBar.obj
 0001:0003bdc0       ?CalcInsideRect@CXTPStatusBar@@IBEXAAVCRect@@H@Z 0043cdc0 f   ToolkitPro1501vc60S:XTPStatusBar.obj
 0001:0003be40       ?RecalcLayout@CXTPStatusBar@@UAEXXZ 0043ce40 f   ToolkitPro1501vc60S:XTPStatusBar.obj
 0001:0003c110       ?CommandToIndex@CXTPStatusBar@@QBEHI@Z 0043d110 f   ToolkitPro1501vc60S:XTPStatusBar.obj
 0001:0003c160       ?GetItemID@CXTPStatusBar@@QBEIH@Z 0043d160 f   ToolkitPro1501vc60S:XTPStatusBar.obj
 0001:0003c180       ?GetPaneStyle@CXTPStatusBar@@QBEIH@Z 0043d180 f   ToolkitPro1501vc60S:XTPStatusBar.obj
 0001:0003c1a0       ?SetPaneStyle@CXTPStatusBar@@QAEXHI@Z 0043d1a0 f   ToolkitPro1501vc60S:XTPStatusBar.obj
 0001:0003c1c0       ?SetPaneInfo@CXTPStatusBar@@QAEXHIIH@Z 0043d1c0 f   ToolkitPro1501vc60S:XTPStatusBar.obj
 0001:0003c240       ?SetPaneText@CXTPStatusBar@@QAEHHPBD@Z 0043d240 f   ToolkitPro1501vc60S:XTPStatusBar.obj
 0001:0003c270       ?CalcFixedLayout@CXTPStatusBar@@MAE?AVCSize@@HH@Z 0043d270 f   ToolkitPro1501vc60S:XTPStatusBar.obj
 0001:0003c360       ?GetMessageMap@CXTPStatusBar@@MBEPBUAFX_MSGMAP@@XZ 0043d360 f   ToolkitPro1501vc60S:XTPStatusBar.obj
 0001:0003c370       ?OnCreate@CXTPStatusBar@@QAEHPAUtagCREATESTRUCTA@@@Z 0043d370 f   ToolkitPro1501vc60S:XTPStatusBar.obj
 0001:0003c390       ?OnSysCommand@CXTPStatusBar@@IAEXIJ@Z 0043d390 f   ToolkitPro1501vc60S:XTPStatusBar.obj
 0001:0003c3d0       ?OnNcHitTest@CXTPStatusBar@@IAEJVCPoint@@@Z 0043d3d0 f   ToolkitPro1501vc60S:XTPStatusBar.obj
 0001:0003c4d0       ?SetCustomizationVisible@CXTPStatusBarPane@@QAEXH@Z 0043d4d0 f   ToolkitPro1501vc60S:XTPStatusBar.obj
 0001:0003c500       ?GetCustomizationVisible@CXTPStatusBarPane@@QBEHXZ 0043d500 f   ToolkitPro1501vc60S:XTPStatusBar.obj
 0001:0003c510       ?GetStatusBarPopup@CXTPStatusBar@@UAEPAVCXTPPopupBar@@XZ 0043d510 f   ToolkitPro1501vc60S:XTPStatusBar.obj
 0001:0003c6b0       ?GetSelected@CXTPControl@@UBEHXZ 0043d6b0 f i ToolkitPro1501vc60S:XTPStatusBar.obj
 0001:0003c6c0       ?GetPressed@CXTPControl@@UBEHXZ 0043d6c0 f i ToolkitPro1501vc60S:XTPStatusBar.obj
 0001:0003c6d0       ?OnExecute@CControlCustomization@CXTPStatusBar@@UAEXXZ 0043d6d0 f i ToolkitPro1501vc60S:XTPStatusBar.obj
 0001:0003c730       ?OnRButtonUp@CXTPStatusBar@@IAEXIVCPoint@@@Z 0043d730 f   ToolkitPro1501vc60S:XTPStatusBar.obj
 0001:0003c7a0       ?OnMouseLeave@CXTPStatusBar@@IAEXXZ 0043d7a0 f   ToolkitPro1501vc60S:XTPStatusBar.obj
 0001:0003c7b0       ?HandleMouseMove@CXTPStatusBar@@IAEXVCPoint@@@Z 0043d7b0 f   ToolkitPro1501vc60S:XTPStatusBar.obj
 0001:0003c8a0       ?OnMouseMove@CXTPStatusBar@@IAEXIVCPoint@@@Z 0043d8a0 f   ToolkitPro1501vc60S:XTPStatusBar.obj
 0001:0003c8c0       ?OnLButtonDblClk@CXTPStatusBar@@IAEXIVCPoint@@@Z 0043d8c0 f   ToolkitPro1501vc60S:XTPStatusBar.obj
 0001:0003c980       ?OnLButtonDown@CXTPStatusBar@@IAEXIVCPoint@@@Z 0043d980 f   ToolkitPro1501vc60S:XTPStatusBar.obj
 0001:0003c9b0       ?OnNcCalcSize@CXTPStatusBar@@IAEXHPAUtagNCCALCSIZE_PARAMS@@@Z 0043d9b0 f   ToolkitPro1501vc60S:XTPStatusBar.obj
 0001:0003ca10       ?OnBarStyleChange@CXTPStatusBar@@MAEXKK@Z 0043da10 f   ToolkitPro1501vc60S:XTPStatusBar.obj
 0001:0003ca40       ?OnNcPaint@CXTPStatusBar@@IAEXXZ 0043da40 f   ToolkitPro1501vc60S:XTPStatusBar.obj
 0001:0003ca50       ?OnSize@CXTPStatusBar@@QAEXIHH@Z 0043da50 f   ToolkitPro1501vc60S:XTPStatusBar.obj
 0001:0003ca70       ?OnWindowPosChanging@CXTPStatusBar@@IAEXPAUtagWINDOWPOS@@@Z 0043da70 f   ToolkitPro1501vc60S:XTPStatusBar.obj
 0001:0003caa0       ?OnSetText@CXTPStatusBar@@IAEJIJ@Z 0043daa0 f   ToolkitPro1501vc60S:XTPStatusBar.obj
 0001:0003cad0       ?OnGetText@CXTPStatusBar@@IAEJIJ@Z 0043dad0 f   ToolkitPro1501vc60S:XTPStatusBar.obj
 0001:0003cb30       ?OnGetTextLength@CXTPStatusBar@@IAEJIJ@Z 0043db30 f   ToolkitPro1501vc60S:XTPStatusBar.obj
 0001:0003cb60       ?OnSetMinHeight@CXTPStatusBar@@IAEJIJ@Z 0043db60 f   ToolkitPro1501vc60S:XTPStatusBar.obj
 0001:0003cb80       ?Enable@CStatusCmdUI@CXTPStatusBar@@UAEXH@Z 0043db80 f   ToolkitPro1501vc60S:XTPStatusBar.obj
 0001:0003cbb0       ?SetCheck@CStatusCmdUI@CXTPStatusBar@@UAEXH@Z 0043dbb0 f   ToolkitPro1501vc60S:XTPStatusBar.obj
 0001:0003cbf0       ?SetText@CStatusCmdUI@CXTPStatusBar@@UAEXPBD@Z 0043dbf0 f   ToolkitPro1501vc60S:XTPStatusBar.obj
 0001:0003cc10       ?OnUpdateCmdUI@CXTPStatusBar@@MAEXPAVCFrameWnd@@H@Z 0043dc10 f   ToolkitPro1501vc60S:XTPStatusBar.obj
 0001:0003cca0       ?GetPaintManager@CXTPStatusBar@@QBEPAVCXTPPaintManager@@XZ 0043dca0 f   ToolkitPro1501vc60S:XTPStatusBar.obj
 0001:0003ccd0       ?DrawPaneEntry@CXTPStatusBar@@UAEXPAVCDC@@HVCRect@@@Z 0043dcd0 f   ToolkitPro1501vc60S:XTPStatusBar.obj
 0001:0003cd10       ?OnPaint@CXTPStatusBar@@QAEXXZ 0043dd10 f   ToolkitPro1501vc60S:XTPStatusBar.obj
 0001:0003cda0       ?OnPrintClient@CXTPStatusBar@@QAEJIJ@Z 0043dda0 f   ToolkitPro1501vc60S:XTPStatusBar.obj
 0001:0003cde0       ?OnDraw@CXTPStatusBar@@QAEXPAVCDC@@@Z 0043dde0 f   ToolkitPro1501vc60S:XTPStatusBar.obj
 0001:0003cfb0       ?DrawStretch@CXTPStatusBar@@MAEXPAVCDC@@AAVCRect@@@Z 0043dfb0 f   ToolkitPro1501vc60S:XTPStatusBar.obj
 0001:0003cff0       ?PositionControls@CXTPStatusBar@@QAEXXZ 0043dff0 f   ToolkitPro1501vc60S:XTPStatusBar.obj
 0001:0003d110       ?OnWindowPosChanged@CXTPStatusBar@@IAEXPAUtagWINDOWPOS@@@Z 0043e110 f   ToolkitPro1501vc60S:XTPStatusBar.obj
 0001:0003d170       ?OnIdleUpdateCmdUI@CXTPStatusBar@@QAEJIJ@Z 0043e170 f   ToolkitPro1501vc60S:XTPStatusBar.obj
 0001:0003d230       ?OnToolHitTest@CXTPStatusBar@@MBEHVCPoint@@PAUtagTOOLINFOA@@@Z 0043e230 f   ToolkitPro1501vc60S:XTPStatusBar.obj
 0001:0003d370       ?OnPaneClick@CXTPStatusBar@@UAEXPAVCXTPStatusBarPane@@@Z 0043e370 f   ToolkitPro1501vc60S:XTPStatusBar.obj
 0001:0003d3b0       ?OnSwitchPaneClick@CXTPStatusBar@@UAEXPAVCXTPStatusBarPane@@J@Z 0043e3b0 f   ToolkitPro1501vc60S:XTPStatusBar.obj
 0001:0003d3e0       ?OnWndMsg@CXTPStatusBar@@MAEHIIJPAJ@Z 0043e3e0 f   ToolkitPro1501vc60S:XTPStatusBar.obj
 0001:0003d490       ?EnableCustomization@CXTPStatusBar@@QAEXH@Z 0043e490 f   ToolkitPro1501vc60S:XTPStatusBar.obj
 0001:0003d4a0       ?LoadState@CXTPStatusBar@@QAEXPBD@Z 0043e4a0 f   ToolkitPro1501vc60S:XTPStatusBar.obj
 0001:0003d670       ?DoPropExchange@CXTPStatusBar@@UAEXPAVCXTPPropExchange@@@Z 0043e670 f   ToolkitPro1501vc60S:XTPStatusBar.obj
 0001:0003d990       ?SaveState@CXTPStatusBar@@QAEXPBD@Z 0043e990 f   ToolkitPro1501vc60S:XTPStatusBar.obj
 0001:0003db40       ?GetSwitchCount@CXTPStatusBarSwitchPane@@QBEHXZ 0043eb40 f   ToolkitPro1501vc60S:XTPStatusBar.obj
 0001:0003db50       ?GetSwitch@CXTPStatusBarSwitchPane@@QBEPAUSWITCH@1@H@Z 0043eb50 f   ToolkitPro1501vc60S:XTPStatusBar.obj
 0001:0003db60       ??1?$CArray@PAVCXTPStatusBarPane@@PAV1@@@UAE@XZ 0043eb60 f i ToolkitPro1501vc60S:XTPStatusBar.obj
 0001:0003dbb0       ??_E?$CArray@PAVCXTPStatusBarPane@@PAV1@@@UAEPAXI@Z 0043ebb0 f i ToolkitPro1501vc60S:XTPStatusBar.obj
 0001:0003dbb0       ??_G?$CArray@PAVCXTPStatusBarPane@@PAV1@@@UAEPAXI@Z 0043ebb0 f i ToolkitPro1501vc60S:XTPStatusBar.obj
 0001:0003dbd0       ??0CXTPDockingPaneManager@@QAE@XZ 0043ebd0 f   ToolkitPro1501vc60S:XTPDockingPaneManager.obj
 0001:0003de80       ??_ECXTPDockingPaneManager@@UAEPAXI@Z 0043ee80 f i ToolkitPro1501vc60S:XTPDockingPaneManager.obj
 0001:0003de80       ??_GCXTPDockingPaneManager@@UAEPAXI@Z 0043ee80 f i ToolkitPro1501vc60S:XTPDockingPaneManager.obj
 0001:0003dea0       ??1CXTPDockingPaneManager@@UAE@XZ 0043eea0 f   ToolkitPro1501vc60S:XTPDockingPaneManager.obj
 0001:0003dfb0       ?GetMessageMap@CXTPDockingPaneManager@@MBEPBUAFX_MSGMAP@@XZ 0043efb0 f   ToolkitPro1501vc60S:XTPDockingPaneManager.obj
 0001:0003dfc0       ?OnSysColorChange@CXTPDockingPaneManager@@IAEXXZ 0043efc0 f   ToolkitPro1501vc60S:XTPDockingPaneManager.obj
 0001:0003dfe0       ?OnSettingChange@CXTPDockingPaneManager@@IAEXIPBD@Z 0043efe0 f   ToolkitPro1501vc60S:XTPDockingPaneManager.obj
 0001:0003e000       ?UpdatePanes@CXTPDockingPaneManager@@UAEXXZ 0043f000 f   ToolkitPro1501vc60S:XTPDockingPaneManager.obj
 0001:0003e060       ?OnInitialUpdate@CXTPDockingPaneManager@@IAEXXZ 0043f060 f   ToolkitPro1501vc60S:XTPDockingPaneManager.obj
 0001:0003e130       ?OnIdleUpdateCmdUI@CXTPDockingPaneManager@@IAEJIJ@Z 0043f130 f   ToolkitPro1501vc60S:XTPDockingPaneManager.obj
 0001:0003e140       ?SyncPanesState@CXTPDockingPaneManager@@QAEXXZ 0043f140 f   ToolkitPro1501vc60S:XTPDockingPaneManager.obj
 0001:0003e1c0       ?OnSizeParent@CXTPDockingPaneManager@@IAEJIJ@Z 0043f1c0 f   ToolkitPro1501vc60S:XTPDockingPaneManager.obj
 0001:0003e210       ?_Clone@CXTPDockingPaneManager@@AAEPAVCXTPDockingPaneBase@@PAV2@@Z 0043f210 f   ToolkitPro1501vc60S:XTPDockingPaneManager.obj
 0001:0003e230       ?NotifyAction@CXTPDockingPaneManager@@QAEHW4XTPDockingPaneAction@@PAVCXTPDockingPane@@PAVCXTPDockingPaneBase@@W4XTPDockingPaneDirection@@@Z 0043f230 f   ToolkitPro1501vc60S:XTPDockingPaneManager.obj
 0001:0003e290       ?DockSidePane@CXTPDockingPaneManager@@QAEPAVCXTPDockingPaneSidePanel@@PAVCXTPDockingPaneBase@@W4XTPDockingPaneDirection@@VCRect@@@Z 0043f290 f   ToolkitPro1501vc60S:XTPDockingPaneManager.obj
 0001:0003e310       ?FloatPane@CXTPDockingPaneManager@@QAEPAVCXTPDockingPaneMiniWnd@@PAVCXTPDockingPaneBase@@VCRect@@@Z 0043f310 f   ToolkitPro1501vc60S:XTPDockingPaneManager.obj
 0001:0003e3b0       ?CreatePane@CXTPDockingPaneManager@@QAEPAVCXTPDockingPane@@IVCRect@@W4XTPDockingPaneDirection@@PAVCXTPDockingPaneBase@@@Z 0043f3b0 f   ToolkitPro1501vc60S:XTPDockingPaneManager.obj
 0001:0003e4d0       ?OnCreatePane@CXTPDockingPaneManager@@UAEPAVCXTPDockingPaneBase@@W4XTPDockingPaneType@@PAVCXTPDockingPaneLayout@@@Z 0043f4d0 f   ToolkitPro1501vc60S:XTPDockingPaneManager.obj
 0001:0003e720       ?DockPane@CXTPDockingPaneManager@@QAEXPAVCXTPDockingPaneBase@@W4XTPDockingPaneDirection@@0@Z 0043f720 f   ToolkitPro1501vc60S:XTPDockingPaneManager.obj
 0001:0003e830       ?_RemovePane@CXTPDockingPaneManager@@AAEXPAVCXTPDockingPaneBase@@@Z 0043f830 f   ToolkitPro1501vc60S:XTPDockingPaneManager.obj
 0001:0003e850       ?AttachPane@CXTPDockingPaneManager@@QAEXPAVCXTPDockingPaneBase@@0@Z 0043f850 f   ToolkitPro1501vc60S:XTPDockingPaneManager.obj
 0001:0003e870       ?_AttachPane@CXTPDockingPaneManager@@AAEXPAVCXTPDockingPaneBase@@0@Z 0043f870 f   ToolkitPro1501vc60S:XTPDockingPaneManager.obj
 0001:0003e9b0       ?_CalculateResultDockingRect@CXTPDockingPaneManager@@AAE?AVCRect@@PAVCXTPDockingPaneBase@@W4XTPDockingPaneDirection@@0@Z 0043f9b0 f   ToolkitPro1501vc60S:XTPDockingPaneManager.obj
 0001:0003eac0       ?_InsertPane@CXTPDockingPaneManager@@AAEXPAVCXTPDockingPaneBase@@W4XTPDockingPaneDirection@@0@Z 0043fac0 f   ToolkitPro1501vc60S:XTPDockingPaneManager.obj
 0001:0003ecf0       ?_GetHolder@CXTPDockingPaneManager@@AAEPAVCXTPDockingPaneBase@@PAV2@H@Z 0043fcf0 f   ToolkitPro1501vc60S:XTPDockingPaneManager.obj
 0001:0003ed50       ?ToggleDocking@CXTPDockingPaneManager@@QAEXPAVCXTPDockingPaneBase@@@Z 0043fd50 f   ToolkitPro1501vc60S:XTPDockingPaneManager.obj
 0001:0003efc0       ?_ToggleDocking@CXTPDockingPaneManager@@AAEHPAVCXTPDockingPane@@PAVCXTPDockingPaneBase@@@Z 0043ffc0 f   ToolkitPro1501vc60S:XTPDockingPaneManager.obj
 0001:0003f130       ?InstallDockingPanes@CXTPDockingPaneManager@@QAE_NPAVCWnd@@_N@Z 00440130 f   ToolkitPro1501vc60S:XTPDockingPaneManager.obj
 0001:0003f290       ?FindPane@CXTPDockingPaneManager@@QBEPAVCXTPDockingPane@@H@Z 00440290 f   ToolkitPro1501vc60S:XTPDockingPaneManager.obj
 0001:0003f2d0       ?ShowPane@CXTPDockingPaneManager@@QAEXPAVCXTPDockingPane@@H@Z 004402d0 f   ToolkitPro1501vc60S:XTPDockingPaneManager.obj
 0001:0003f360       ?NotifyOwner@CXTPDockingPaneManager@@UAEJIJ@Z 00440360 f   ToolkitPro1501vc60S:XTPDockingPaneManager.obj
 0001:0003f3a0       ?ClosePane@CXTPDockingPaneManager@@QAEXPAVCXTPDockingPane@@@Z 004403a0 f   ToolkitPro1501vc60S:XTPDockingPaneManager.obj
 0001:0003f3f0       ?HidePane@CXTPDockingPaneManager@@QAEXPAVCXTPDockingPaneBase@@@Z 004403f0 f   ToolkitPro1501vc60S:XTPDockingPaneManager.obj
 0001:0003f450       ?IsPaneClosed@CXTPDockingPaneManager@@QBEHPAVCXTPDockingPane@@@Z 00440450 f   ToolkitPro1501vc60S:XTPDockingPaneManager.obj
 0001:0003f470       ?IsPaneHidden@CXTPDockingPaneManager@@QBEHPAVCXTPDockingPane@@@Z 00440470 f   ToolkitPro1501vc60S:XTPDockingPaneManager.obj
 0001:0003f4a0       ?_Redraw@CXTPDockingPaneManager@@AAEXXZ 004404a0 f   ToolkitPro1501vc60S:XTPDockingPaneManager.obj
 0001:0003f520       ?SetTheme@CXTPDockingPaneManager@@QAEXW4XTPDockingPanePaintTheme@@@Z 00440520 f   ToolkitPro1501vc60S:XTPDockingPaneManager.obj
 0001:0003f920       ?CreateLayout@CXTPDockingPaneManager@@UAEPAVCXTPDockingPaneLayout@@XZ 00440920 f   ToolkitPro1501vc60S:XTPDockingPaneManager.obj
 0001:0003f980       ?GetPaneStack@CXTPDockingPaneManager@@QBEAAV?$CList@PAVCXTPDockingPaneBase@@PAV1@@@XZ 00440980 f   ToolkitPro1501vc60S:XTPDockingPaneManager.obj
 0001:0003f990       ?GetPaneList@CXTPDockingPaneManager@@QBEAAV?$CList@UXTP_DOCKINGPANE_INFO@@AAU1@@@XZ 00440990 f   ToolkitPro1501vc60S:XTPDockingPaneManager.obj
 0001:0003f9a0       ?GetClientPane@CXTPDockingPaneManager@@QBEPAVCXTPDockingPaneBase@@XZ 004409a0 f   ToolkitPro1501vc60S:XTPDockingPaneManager.obj
 0001:0003f9c0       ?GetTopPane@CXTPDockingPaneManager@@QBEPAVCXTPDockingPaneBase@@XZ 004409c0 f   ToolkitPro1501vc60S:XTPDockingPaneManager.obj
 0001:0003f9e0       ?GetIcon@CXTPDockingPaneManager@@QBEPAVCXTPImageManagerIcon@@IH@Z 004409e0 f   ToolkitPro1501vc60S:XTPDockingPaneManager.obj
 0001:0003fa00       ?IsLayoutRTL@CXTPDockingPaneManager@@QBEHXZ 00440a00 f   ToolkitPro1501vc60S:XTPDockingPaneManager.obj
 0001:0003fa20       ?GetRTLDirection@CXTPDockingPaneManager@@QBE?AW4XTPDockingPaneDirection@@W42@@Z 00440a20 f   ToolkitPro1501vc60S:XTPDockingPaneManager.obj
 0001:0003fa50       ?GetPaneDirection@CXTPDockingPaneManager@@QBE?AW4XTPDockingPaneDirection@@PBVCXTPDockingPaneBase@@@Z 00440a50 f   ToolkitPro1501vc60S:XTPDockingPaneManager.obj
 0001:0003fa70       ?RecalcFramesLayout@CXTPDockingPaneManager@@QAEXXZ 00440a70 f   ToolkitPro1501vc60S:XTPDockingPaneManager.obj
 0001:0003fb00       ?EnsureVisible@CXTPDockingPaneManager@@QAEXPAVCXTPDockingPaneBase@@@Z 00440b00 f   ToolkitPro1501vc60S:XTPDockingPaneManager.obj
 0001:0003fb60       ?OnActivatePane@CXTPDockingPaneManager@@UAEXHPAVCXTPDockingPane@@@Z 00440b60 f   ToolkitPro1501vc60S:XTPDockingPaneManager.obj
 0001:0003fc00       ?RecalcFrameLayout@CXTPDockingPaneManager@@QAEXPAVCXTPDockingPaneBase@@H@Z 00440c00 f   ToolkitPro1501vc60S:XTPDockingPaneManager.obj
 0001:0003fd30       ?_TrackPopupContextMenu@CXTPDockingPaneManager@@AAEXPAVCXTPDockingPane@@@Z 00440d30 f   ToolkitPro1501vc60S:XTPDockingPaneManager.obj
 0001:0003feb0       ?ActivateNextPane@CXTPDockingPaneManager@@QAEHPAVCXTPDockingPane@@H@Z 00440eb0 f   ToolkitPro1501vc60S:XTPDockingPaneManager.obj
 0001:0003ff60       ?OnWndMsg@CXTPDockingPaneManager@@MAEHIIJPAJ@Z 00440f60 f   ToolkitPro1501vc60S:XTPDockingPaneManager.obj
 0001:00040040       ?GetAccessible@CXTPDockingPaneManager@@MAEPAVCCmdTarget@@XZ 00441040 f   ToolkitPro1501vc60S:XTPDockingPaneManager.obj
 0001:00040050       ?GetAccessibleParent@CXTPDockingPaneManager@@MAEJPAPAUIDispatch@@@Z 00441050 f   ToolkitPro1501vc60S:XTPDockingPaneManager.obj
 0001:00040090       ?GetAccessibleChildCount@CXTPDockingPaneManager@@MAEJPAJ@Z 00441090 f   ToolkitPro1501vc60S:XTPDockingPaneManager.obj
 0001:000400b0       ?GetAccessibleChild@CXTPDockingPaneManager@@MAEJUtagVARIANT@@PAPAUIDispatch@@@Z 004410b0 f   ToolkitPro1501vc60S:XTPDockingPaneManager.obj
 0001:00040110       ?GetAccessibleName@CXTPDockingPaneManager@@MAEJUtagVARIANT@@PAPAG@Z 00441110 f   ToolkitPro1501vc60S:XTPDockingPaneManager.obj
 0001:00040150       ?GetAccessibleRole@CXTPDockingPaneManager@@MAEJUtagVARIANT@@PAU2@@Z 00441150 f   ToolkitPro1501vc60S:XTPDockingPaneManager.obj
 0001:00040190       ?GetAccessibleState@CXTPDockingPaneManager@@MAEJUtagVARIANT@@PAU2@@Z 00441190 f   ToolkitPro1501vc60S:XTPDockingPaneManager.obj
 0001:000401c0       ?AccessibleLocation@CXTPDockingPaneManager@@MAEJPAJ000UtagVARIANT@@@Z 004411c0 f   ToolkitPro1501vc60S:XTPDockingPaneManager.obj
 0001:000401f0       ?AccessibleHitTest@CXTPDockingPaneManager@@MAEJJJPAUtagVARIANT@@@Z 004411f0 f   ToolkitPro1501vc60S:XTPDockingPaneManager.obj
 0001:00040200       ?OnGetObject@CXTPDockingPaneManager@@IAEJIJ@Z 00441200 f   ToolkitPro1501vc60S:XTPDockingPaneManager.obj
 0001:00040250       ?GetInterfaceMap@CXTPDockingPaneManager@@MBEPBUAFX_INTERFACEMAP@@XZ 00441250 f   ToolkitPro1501vc60S:XTPDockingPaneManager.obj
 0001:00040260       ?CreateObject@?$CThreadLocal@VCXTPDockingPaneKeyboardHook@@@@SGPAVCNoTrackObject@@XZ 00441260 f i ToolkitPro1501vc60S:XTPDockingPaneManager.obj
 0001:000402c0       ??1?$CList@PAVCXTPDockingPaneBase@@PAV1@@@UAE@XZ 004412c0 f i ToolkitPro1501vc60S:XTPDockingPaneManager.obj
 0001:00040320       ??_G?$CList@PAVCXTPDockingPaneBase@@PAV1@@@UAEPAXI@Z 00441320 f i ToolkitPro1501vc60S:XTPDockingPaneManager.obj
 0001:00040320       ??_E?$CList@PAVCXTPDockingPaneBase@@PAV1@@@UAEPAXI@Z 00441320 f i ToolkitPro1501vc60S:XTPDockingPaneManager.obj
 0001:00040340       ?ConstructElements@@YGXPAUXTP_DOCKINGPANE_INFO@@H@Z 00441340 f i ToolkitPro1501vc60S:XTPDockingPaneManager.obj
 0001:00040390       ??_ECXTPDockingPaneManager@@WDM@AEPAXI@Z 00441390 f i ToolkitPro1501vc60S:XTPDockingPaneManager.obj
 0001:000403a0       ?CreateObject@CXTPFrameWnd@@SGPAVCObject@@XZ 004413a0 f   ToolkitPro1501vc60S:XTPFrameWnd.obj
 0001:00040400       ?GetRuntimeClass@CXTPFrameWnd@@UBEPAUCRuntimeClass@@XZ 00441400 f   ToolkitPro1501vc60S:XTPFrameWnd.obj
 0001:00040410       ??0CXTPFrameWnd@@QAE@XZ    00441410 f   ToolkitPro1501vc60S:XTPFrameWnd.obj
 0001:00040430       ??_ECXTPFrameWnd@@UAEPAXI@Z 00441430 f i ToolkitPro1501vc60S:XTPFrameWnd.obj
 0001:00040430       ??_GCXTPFrameWnd@@UAEPAXI@Z 00441430 f i ToolkitPro1501vc60S:XTPFrameWnd.obj
 0001:00040450       ?CreateObject@CXTPMDIFrameWnd@@SGPAVCObject@@XZ 00441450 f   ToolkitPro1501vc60S:XTPFrameWnd.obj
 0001:000404b0       ?GetRuntimeClass@CXTPMDIFrameWnd@@UBEPAUCRuntimeClass@@XZ 004414b0 f   ToolkitPro1501vc60S:XTPFrameWnd.obj
 0001:000404c0       ??0CXTPMDIFrameWnd@@QAE@XZ 004414c0 f   ToolkitPro1501vc60S:XTPFrameWnd.obj
 0001:000404e0       ?OnCmdMsg@CXTPMDIFrameWnd@@UAEHIHPAXPAUAFX_CMDHANDLERINFO@@@Z 004414e0 f i ToolkitPro1501vc60S:XTPFrameWnd.obj
 0001:00040550       ??_ECXTPMDIFrameWnd@@UAEPAXI@Z 00441550 f i ToolkitPro1501vc60S:XTPFrameWnd.obj
 0001:00040550       ??_GCXTPMDIFrameWnd@@UAEPAXI@Z 00441550 f i ToolkitPro1501vc60S:XTPFrameWnd.obj
 0001:00040570       ??1CXTPMDIFrameWnd@@UAE@XZ 00441570 f i ToolkitPro1501vc60S:XTPFrameWnd.obj
 0001:000405e0       ?LoadFrame@?$CXTPFrameWndBase@VCMDIFrameWnd@@@@UAEHIKPAVCWnd@@PAUCCreateContext@@@Z 004415e0 f i ToolkitPro1501vc60S:XTPFrameWnd.obj
 0001:00040630       ?OnSetPreviewMode@?$CXTPFrameWndBase@VCMDIFrameWnd@@@@UAEXHPAUCPrintPreviewState@@@Z 00441630 f i ToolkitPro1501vc60S:XTPFrameWnd.obj
 0001:00040660       ?InitCommandBars@?$CXTPCommandBarsSiteBase@VCMDIFrameWnd@@@@UAEHPAUCRuntimeClass@@@Z 00441660 f i ToolkitPro1501vc60S:XTPFrameWnd.obj
 0001:000406b0       ?SaveCommandBars@?$CXTPCommandBarsSiteBase@VCMDIFrameWnd@@@@UAEXPBD@Z 004416b0 f i ToolkitPro1501vc60S:XTPFrameWnd.obj
 0001:000406f0       ?LoadCommandBars@?$CXTPCommandBarsSiteBase@VCMDIFrameWnd@@@@UAEXPBDH@Z 004416f0 f i ToolkitPro1501vc60S:XTPFrameWnd.obj
 0001:00040740       ?PreTranslateMessage@?$CXTPCommandBarsSiteBase@VCMDIFrameWnd@@@@MAEHPAUtagMSG@@@Z 00441740 f i ToolkitPro1501vc60S:XTPFrameWnd.obj
 0001:000407d0       ?OnWndMsg@?$CXTPCommandBarsSiteBase@VCMDIFrameWnd@@@@MAEHIIJPAJ@Z 004417d0 f i ToolkitPro1501vc60S:XTPFrameWnd.obj
 0001:00040820       ??_G?$CXTPCommandBarsSiteBase@VCMDIFrameWnd@@@@UAEPAXI@Z 00441820 f i ToolkitPro1501vc60S:XTPFrameWnd.obj
 0001:00040820       ??_E?$CXTPCommandBarsSiteBase@VCMDIFrameWnd@@@@UAEPAXI@Z 00441820 f i ToolkitPro1501vc60S:XTPFrameWnd.obj
 0001:00040840       ??1?$CXTPCommandBarsSiteBase@VCMDIFrameWnd@@@@UAE@XZ 00441840 f i ToolkitPro1501vc60S:XTPFrameWnd.obj
 0001:000408b0       ??1CMDIFrameWnd@@UAE@XZ    004418b0 f i ToolkitPro1501vc60S:XTPFrameWnd.obj
 0001:00040900       ??0CLogFont@CXTPPaintManager@@QAE@XZ 00441900 f   ToolkitPro1501vc60S:XTPPaintManager.obj
 0001:00040920       ??0CXTPNonClientMetrics@@QAE@XZ 00441920 f   ToolkitPro1501vc60S:XTPPaintManager.obj
 0001:00040920       ??0CNonClientMetrics@CXTPPaintManager@@QAE@XZ 00441920 f   ToolkitPro1501vc60S:XTPPaintManager.obj
 0001:00040950       ?GetRuntimeClass@CXTPPaintManager@@UBEPAUCRuntimeClass@@XZ 00441950 f   ToolkitPro1501vc60S:XTPPaintManager.obj
 0001:00040960       ??0CXTPPaintManager@@IAE@XZ 00441960 f   ToolkitPro1501vc60S:XTPPaintManager.obj
 0001:00040c80       ??_GCXTPPaintManagerFont@@UAEPAXI@Z 00441c80 f i ToolkitPro1501vc60S:XTPPaintManager.obj
 0001:00040c80       ??_ECXTPPaintManagerFont@@UAEPAXI@Z 00441c80 f i ToolkitPro1501vc60S:XTPPaintManager.obj
 0001:00040ca0       ??1CXTPPaintManagerFont@@UAE@XZ 00441ca0 f i ToolkitPro1501vc60S:XTPPaintManager.obj
 0001:00040ce0       ?GetGalleryPaintManager@CXTPPaintManager@@UBEPAVCXTPControlGalleryPaintManager@@XZ 00441ce0 f i ToolkitPro1501vc60S:XTPPaintManager.obj
 0001:00040cf0       ?GetSliderPaintManager@CXTPPaintManager@@UBEPAVCXTPSliderPaintManager@@XZ 00441cf0 f i ToolkitPro1501vc60S:XTPPaintManager.obj
 0001:00040d00       ?GetProgressPaintManager@CXTPPaintManager@@UBEPAVCXTPProgressPaintManager@@XZ 00441d00 f i ToolkitPro1501vc60S:XTPPaintManager.obj
 0001:00040d10       ??_GCXTPPaintManager@@MAEPAXI@Z 00441d10 f i ToolkitPro1501vc60S:XTPPaintManager.obj
 0001:00040d10       ??_ECXTPPaintManager@@MAEPAXI@Z 00441d10 f i ToolkitPro1501vc60S:XTPPaintManager.obj
 0001:00040d30       ?GetCurrentSystemTheme@CXTPPaintManager@@QAE?AW4XTPCurrentSystemTheme@@XZ 00441d30 f   ToolkitPro1501vc60S:XTPPaintManager.obj
 0001:00040d70       ?GetXtremeColor@CXTPPaintManager@@QAEKI@Z 00441d70 f   ToolkitPro1501vc60S:XTPPaintManager.obj
 0001:00040da0       ?SetColors@CXTPPaintManager@@QAEXHPBHPBK@Z 00441da0 f   ToolkitPro1501vc60S:XTPPaintManager.obj
 0001:00040dd0       ??1CXTPPaintManager@@MAE@XZ 00441dd0 f   ToolkitPro1501vc60S:XTPPaintManager.obj
 0001:00040fa0       ?GetIconsInfo@CXTPPaintManager@@QAEPAUXTP_COMMANDBARS_ICONSINFO@@XZ 00441fa0 f   ToolkitPro1501vc60S:XTPPaintManager.obj
 0001:00040fb0       ?UpdateColors@CXTPPaintManager@@UAEXXZ 00441fb0 f   ToolkitPro1501vc60S:XTPPaintManager.obj
 0001:00040fe0       ?RefreshMetrics@CXTPPaintManager@@UAEXXZ 00441fe0 f   ToolkitPro1501vc60S:XTPPaintManager.obj
 0001:00041110       ?GetFramePaintManager@CXTPPaintManager@@UAEPAVCXTPFramePaintManager@@XZ 00442110 f   ToolkitPro1501vc60S:XTPPaintManager.obj
 0001:00041190       ?GetRibbonPaintManager@CXTPPaintManager@@UAEPAVCXTPRibbonPaintManager@@XZ 00442190 f   ToolkitPro1501vc60S:XTPPaintManager.obj
 0001:00041210       ?GetControlHeight@CXTPPaintManager@@QBEHXZ 00442210 f   ToolkitPro1501vc60S:XTPPaintManager.obj
 0001:00041230       ?CreateTheme@CXTPPaintManager@@SAPAV1@W4XTPPaintTheme@@@Z 00442230 f   ToolkitPro1501vc60S:XTPPaintManager.obj
 0001:00041440       ??1CXTPVisualStudio6Theme@@UAE@XZ 00442440 f i ToolkitPro1501vc60S:XTPPaintManager.obj
 0001:00041440       ??1CXTPOfficeTheme@@UAE@XZ 00442440 f i ToolkitPro1501vc60S:XTPPaintManager.obj
 0001:00041440       ??1CXTPDefaultTheme@@UAE@XZ 00442440 f i ToolkitPro1501vc60S:XTPPaintManager.obj
 0001:00041450       ?SetTheme@CXTPPaintManager@@SAXW4XTPPaintTheme@@@Z 00442450 f   ToolkitPro1501vc60S:XTPPaintManager.obj
 0001:00041480       ?SetCustomTheme@CXTPPaintManager@@SAXPAV1@@Z 00442480 f   ToolkitPro1501vc60S:XTPPaintManager.obj
 0001:000414b0       ?Done@CXTPPaintManager@@SAXXZ 004424b0 f   ToolkitPro1501vc60S:XTPPaintManager.obj
 0001:000414d0       ?Triangle@CXTPPaintManager@@SAXPAVCDC@@VCPoint@@11K@Z 004424d0 f   ToolkitPro1501vc60S:XTPPaintManager.obj
 0001:000415a0       ?Rectangle@CXTPPaintManager@@QAEXPAVCDC@@VCRect@@HH@Z 004425a0 f   ToolkitPro1501vc60S:XTPPaintManager.obj
 0001:00041600       ?Draw3dRect@CXTPPaintManager@@QAEXPAVCDC@@VCRect@@HH@Z 00442600 f   ToolkitPro1501vc60S:XTPPaintManager.obj
 0001:00041630       ?_DrawCheckMark@CXTPPaintManager@@IAEXPAVCDC@@VCRect@@KH@Z 00442630 f   ToolkitPro1501vc60S:XTPPaintManager.obj
 0001:00041790       ?AlphaEllipse@CXTPPaintManager@@QAEXPAVCDC@@VCRect@@KK@Z 00442790 f   ToolkitPro1501vc60S:XTPPaintManager.obj
 0001:000419d0       ?DrawPopupBarRadioMark@CXTPPaintManager@@UAEXPAVCDC@@VCRect@@HK@Z 004429d0 f   ToolkitPro1501vc60S:XTPPaintManager.obj
 0001:00041a30       ?DrawPopupBarCheckMark@CXTPPaintManager@@UAEXPAVCDC@@VCRect@@HK@Z 00442a30 f   ToolkitPro1501vc60S:XTPPaintManager.obj
 0001:00041ac0       ?DrawComboExpandMark@CXTPPaintManager@@UAEXPAVCDC@@VCRect@@K@Z 00442ac0 f   ToolkitPro1501vc60S:XTPPaintManager.obj
 0001:00041b40       ?HorizontalLine@CXTPPaintManager@@QAEXPAVCDC@@HHHK@Z 00442b40 f   ToolkitPro1501vc60S:XTPPaintManager.obj
 0001:00041b70       ?VerticalLine@CXTPPaintManager@@QAEXPAVCDC@@HHHK@Z 00442b70 f   ToolkitPro1501vc60S:XTPPaintManager.obj
 0001:00041ba0       ?Line@CXTPPaintManager@@QAEXPAVCDC@@VCPoint@@1@Z 00442ba0 f   ToolkitPro1501vc60S:XTPPaintManager.obj
 0001:00041bd0       ?Line@CXTPPaintManager@@QAEXPAVCDC@@HHHHH@Z 00442bd0 f   ToolkitPro1501vc60S:XTPPaintManager.obj
 0001:00041c70       ?StripMnemonics@CXTPPaintManager@@SAXAAVCString@@@Z 00442c70 f   ToolkitPro1501vc60S:XTPPaintManager.obj
 0001:00041c80       ?SplitString@CXTPPaintManager@@IAEXABVCString@@AAV2@1@Z 00442c80 f   ToolkitPro1501vc60S:XTPPaintManager.obj
 0001:00041dd0       ?DrawTextApi@CXTPPaintManager@@SAXPAVCDC@@ABVCString@@PAUtagRECT@@IH@Z 00442dd0 f   ToolkitPro1501vc60S:XTPPaintManager.obj
 0001:00042030       ?DrawControlText3@CXTPPaintManager@@IAEXPAVCDC@@PAVCXTPControl@@ABVCString@@2VCRect@@HH@Z 00443030 f   ToolkitPro1501vc60S:XTPPaintManager.obj
 0001:00042270       ?DrawDropDownGlyph@CXTPPaintManager@@UAEXPAVCDC@@PAVCXTPControl@@VCPoint@@HHHH@Z 00443270 f   ToolkitPro1501vc60S:XTPPaintManager.obj
 0001:000422f0       ?DrawControlText2@CXTPPaintManager@@QAE?AVCSize@@PAVCDC@@PAVCXTPControl@@VCRect@@HHH@Z 004432f0 f   ToolkitPro1501vc60S:XTPPaintManager.obj
 0001:00042840       ?DrawControlText@CXTPPaintManager@@QAE?AVCSize@@PAVCDC@@PAVCXTPControl@@VCRect@@HHHH@Z 00443840 f   ToolkitPro1501vc60S:XTPPaintManager.obj
 0001:00042bb0       ?FontExists@CXTPPaintManager@@SAHPBD@Z 00443bb0 f   ToolkitPro1501vc60S:XTPPaintManager.obj
 0001:00042bc0       ?SetCommandBarsFontIndirect@CXTPPaintManager@@QAEXPAUtagLOGFONTA@@H@Z 00443bc0 f   ToolkitPro1501vc60S:XTPPaintManager.obj
 0001:00042de0       ?UpdateFonts@CXTPPaintManager@@UAEXXZ 00443de0 f   ToolkitPro1501vc60S:XTPPaintManager.obj
 0001:00043030       ?DrawControlEntry@CXTPPaintManager@@UAEXPAVCDC@@PAVCXTPControl@@@Z 00444030 f   ToolkitPro1501vc60S:XTPPaintManager.obj
 0001:00043110       ?GetControlTextColor@CXTPPaintManager@@UAEKPAVCXTPControl@@@Z 00444110 f   ToolkitPro1501vc60S:XTPPaintManager.obj
 0001:00043210       ?GetPopupBarGripperWidth@CXTPPaintManager@@UAEHPAVCXTPCommandBar@@@Z 00444210 f   ToolkitPro1501vc60S:XTPPaintManager.obj
 0001:00043280       ?GetControlEditBackColor@CXTPPaintManager@@UAEKPAVCXTPControl@@@Z 00444280 f   ToolkitPro1501vc60S:XTPPaintManager.obj
 0001:000432b0       ?DrawControlEdit@CXTPPaintManager@@UAE?AVCSize@@PAVCDC@@PAVCXTPControlEdit@@H@Z 004442b0 f   ToolkitPro1501vc60S:XTPPaintManager.obj
 0001:00043730       ?DrawControlComboBox@CXTPPaintManager@@UAE?AVCSize@@PAVCDC@@PAVCXTPControlComboBox@@H@Z 00444730 f   ToolkitPro1501vc60S:XTPPaintManager.obj
 0001:00043c20       ?DrawControl@CXTPPaintManager@@QAE?AVCSize@@PAVCDC@@PAVCXTPControl@@H@Z 00444c20 f   ToolkitPro1501vc60S:XTPPaintManager.obj
 0001:00043cd0       ?FillDockBar@CXTPPaintManager@@UAEXPAVCDC@@PAVCXTPDockBar@@@Z 00444cd0 f   ToolkitPro1501vc60S:XTPPaintManager.obj
 0001:00043d10       ?FillMessageBar@CXTPPaintManager@@UAEXPAVCDC@@PAVCXTPMessageBar@@@Z 00444d10 f   ToolkitPro1501vc60S:XTPPaintManager.obj
 0001:00043dc0       ?DrawMessageBarButton@CXTPPaintManager@@UAEXPAVCDC@@PAVCXTPMessageBarButton@@@Z 00444dc0 f   ToolkitPro1501vc60S:XTPPaintManager.obj
 0001:00044010       ?FillStatusBar@CXTPPaintManager@@UAEXPAVCDC@@PAVCXTPStatusBar@@@Z 00445010 f   ToolkitPro1501vc60S:XTPPaintManager.obj
 0001:00044090       ?GetControlTextOrientation@CXTPPaintManager@@UAE?AW4XTPBarTextOrientation@@PAVCXTPControl@@@Z 00445090 f   ToolkitPro1501vc60S:XTPPaintManager.obj
 0001:000440d0       ?GetControlFont@CXTPPaintManager@@UAEPAVCFont@@PAVCXTPControl@@@Z 004450d0 f   ToolkitPro1501vc60S:XTPPaintManager.obj
 0001:00044130       ?GetCommandBarFont@CXTPPaintManager@@UAEPAVCFont@@PAVCXTPCommandBar@@@Z 00445130 f   ToolkitPro1501vc60S:XTPPaintManager.obj
 0001:00044170       ?DrawSpecialControl@CXTPPaintManager@@UAE?AVCSize@@PAVCDC@@W4XTPSpecialControl@@PAVCXTPControl@@PAVCXTPCommandBar@@HPAX@Z 00445170 f   ToolkitPro1501vc60S:XTPPaintManager.obj
 0001:00044810       ?DrawControlText@CXTPPaintManager@@IAE?AVCSize@@PAVCDC@@PAVCXTPControl@@VCRect@@HHV2@H@Z 00445810 f   ToolkitPro1501vc60S:XTPPaintManager.obj
 0001:000449e0       ??0CRect@@QAE@PBUtagRECT@@@Z 004459e0 f i ToolkitPro1501vc60S:XTPPaintManager.obj
 0001:000449e0       ??0CRect@@QAE@ABUtagRECT@@@Z 004459e0 f i ToolkitPro1501vc60S:XTPPaintManager.obj
 0001:00044a00       ?GetSplitButtonCommandRect@CXTPPaintManager@@UAE?AVCRect@@PAVCXTPControl@@@Z 00445a00 f   ToolkitPro1501vc60S:XTPPaintManager.obj
 0001:00044b00       ?DrawControlCheckBoxMark@CXTPPaintManager@@UAE?AVCSize@@PAVCDC@@VCRect@@HHHHH@Z 00445b00 f   ToolkitPro1501vc60S:XTPPaintManager.obj
 0001:00044be0       ?DrawControlRadioButtonMark@CXTPPaintManager@@UAE?AVCSize@@PAVCDC@@VCRect@@HHHHH@Z 00445be0 f   ToolkitPro1501vc60S:XTPPaintManager.obj
 0001:00044cd0       ?GetControlSize@CXTPPaintManager@@IAE?AVCSize@@PAVCXTPControl@@V2@H@Z 00445cd0 f   ToolkitPro1501vc60S:XTPPaintManager.obj
 0001:00044d50       ?GetPopupBarImageSize@CXTPPaintManager@@MAE?AVCSize@@PAVCXTPCommandBar@@@Z 00445d50 f   ToolkitPro1501vc60S:XTPPaintManager.obj
 0001:00044da0       ?DrawPopupBarText@CXTPPaintManager@@MAEXPAVCDC@@ABVCString@@AAVCRect@@IHHH@Z 00445da0 f   ToolkitPro1501vc60S:XTPPaintManager.obj
 0001:00044eb0       ?DrawControlPopupParent@CXTPPaintManager@@UAE?AVCSize@@PAVCDC@@PAVCXTPControl@@H@Z 00445eb0 f   ToolkitPro1501vc60S:XTPPaintManager.obj
 0001:00045550       ?GetShortcutText@CXTPControl@@QBE?AVCString@@XZ 00446550 f i ToolkitPro1501vc60S:XTPPaintManager.obj
 0001:00045630       ?GetShortcutText@CXTPControlAction@@QBE?AVCString@@XZ 00446630 f i ToolkitPro1501vc60S:XTPPaintManager.obj
 0001:00045650       ?GetIconSize@CXTPPaintManager@@IAE?AVCSize@@PAVCXTPControl@@@Z 00446650 f   ToolkitPro1501vc60S:XTPPaintManager.obj
 0001:000456b0       ?GetSplitDropDownHeight@CXTPPaintManager@@QBEHXZ 004466b0 f   ToolkitPro1501vc60S:XTPPaintManager.obj
 0001:000456e0       ?GetStretchIconSize@CXTPPaintManager@@IAE?AVCSize@@PAVCXTPImageManagerIcon@@V2@@Z 004466e0 f   ToolkitPro1501vc60S:XTPPaintManager.obj
 0001:00045770       ?DrawControlToolBarParent@CXTPPaintManager@@UAE?AVCSize@@PAVCDC@@PAVCXTPControl@@H@Z 00446770 f   ToolkitPro1501vc60S:XTPPaintManager.obj
 0001:00046680       ?GetCommandBarBorders@CXTPPaintManager@@UAE?AVCRect@@PAVCXTPCommandBar@@@Z 00447680 f   ToolkitPro1501vc60S:XTPPaintManager.obj
 0001:000466b0       ?GradientFill@CXTPPaintManager@@QAEXPAVCDC@@PAUtagRECT@@KKHPBU3@@Z 004476b0 f   ToolkitPro1501vc60S:XTPPaintManager.obj
 0001:000466e0       ?DrawStatusBarGripper@CXTPPaintManager@@UAEXPAVCDC@@VCRect@@@Z 004476e0 f   ToolkitPro1501vc60S:XTPPaintManager.obj
 0001:000468e0       ?AnimateExpanding@CXTPPaintManager@@UAEXPAVCXTPCommandBar@@PAVCDC@@1H@Z 004478e0 f   ToolkitPro1501vc60S:XTPPaintManager.obj
 0001:00046c40       ?AlphaBlendU@CXTPPaintManager@@IAEXPAE0HH0E@Z 00447c40 f   ToolkitPro1501vc60S:XTPPaintManager.obj
 0001:00046cf0       ?Animate@CXTPPaintManager@@UAEXPAVCDC@@0VCRect@@W4XTPAnimationType@@@Z 00447cf0 f   ToolkitPro1501vc60S:XTPPaintManager.obj
 0001:00047160       ?DrawStatusBarButtonFace@CXTPPaintManager@@UAEXPAVCDC@@VCRect@@PAVCXTPStatusBarPane@@@Z 00448160 f   ToolkitPro1501vc60S:XTPPaintManager.obj
 0001:000471f0       ?DrawStatusBarPaneBorder@CXTPPaintManager@@UAEXPAVCDC@@VCRect@@PAVCXTPStatusBarPane@@H@Z 004481f0 f   ToolkitPro1501vc60S:XTPPaintManager.obj
 0001:00047280       ?DrawStatusBarPaneSeparator@CXTPPaintManager@@UAEXPAVCDC@@VCRect@@PAVCXTPStatusBarPane@@@Z 00448280 f   ToolkitPro1501vc60S:XTPPaintManager.obj
 0001:000472c0       ?DrawStatusBarPaneEntry@CXTPPaintManager@@UAEXPAVCDC@@VCRect@@PAVCXTPStatusBarPane@@@Z 004482c0 f   ToolkitPro1501vc60S:XTPPaintManager.obj
 0001:000476b0       ?DrawStatusBarSwitchPane@CXTPPaintManager@@UAEHPAVCDC@@VCRect@@PAVCXTPStatusBarSwitchPane@@@Z 004486b0 f   ToolkitPro1501vc60S:XTPPaintManager.obj
 0001:00047870       ?DrawCommandBarGripper@CXTPPaintManager@@UAE?AVCSize@@PAVCDC@@PAVCXTPCommandBar@@H@Z 00448870 f   ToolkitPro1501vc60S:XTPPaintManager.obj
 0001:00047a40       ?IsFlatToolBar@CXTPPaintManager@@MAEHPAVCXTPCommandBar@@@Z 00448a40 f   ToolkitPro1501vc60S:XTPPaintManager.obj
 0001:00047a60       ?FillWorkspace@CXTPPaintManager@@UAEXPAVCDC@@VCRect@@1@Z 00448a60 f   ToolkitPro1501vc60S:XTPPaintManager.obj
 0001:00047a80       ?FillCompositeAlpha@CXTPPaintManager@@SAXPAVCDC@@VCRect@@@Z 00448a80 f   ToolkitPro1501vc60S:XTPPaintManager.obj
 0001:00047bb0       ?DrawKeyboardTip@CXTPPaintManager@@UAEXPAVCDC@@PAVCXTPCommandBarKeyboardTip@@H@Z 00448bb0 f   ToolkitPro1501vc60S:XTPPaintManager.obj
 0001:00047ca0       ?GetAutoIconSize@CXTPPaintManager@@QBE?AVCSize@@H@Z 00448ca0 f   ToolkitPro1501vc60S:XTPPaintManager.obj
 0001:00047d40       ?DrawControlMDIButton@CXTPPaintManager@@UAEXPAVCDC@@PAVCXTPControlButton@@@Z 00448d40 f   ToolkitPro1501vc60S:XTPPaintManager.obj
 0001:00047e60       ??0CXTPPaintManagerColor@@QAE@XZ 00448e60 f   ToolkitPro1501vc60S:XTPColorManager.obj
 0001:00047e80       ??0CXTPPaintManagerColor@@QAE@K@Z 00448e80 f   ToolkitPro1501vc60S:XTPColorManager.obj
 0001:00047ea0       ?Serialize@CXTPPaintManagerColor@@UAEXAAVCArchive@@@Z 00448ea0 f   ToolkitPro1501vc60S:XTPColorManager.obj
 0001:00047f60       ??0CXTPPaintManagerColorGradient@@QAE@XZ 00448f60 f   ToolkitPro1501vc60S:XTPColorManager.obj
 0001:00047f90       ??0CXTPPaintManagerColorGradient@@QAE@K@Z 00448f90 f   ToolkitPro1501vc60S:XTPColorManager.obj
 0001:00047fd0       ?SetStandardValue@CXTPPaintManagerColorGradient@@QAEXK@Z 00448fd0 f   ToolkitPro1501vc60S:XTPColorManager.obj
 0001:00047ff0       ?SetStandardValue@CXTPPaintManagerColorGradient@@QAEXKKM@Z 00448ff0 f   ToolkitPro1501vc60S:XTPColorManager.obj
 0001:00048010       ?SetStandardValue@CXTPPaintManagerColorGradient@@QAEXAAV1@@Z 00449010 f   ToolkitPro1501vc60S:XTPColorManager.obj
 0001:00048040       ?Serialize@CXTPPaintManagerColorGradient@@UAEXAAVCArchive@@@Z 00449040 f   ToolkitPro1501vc60S:XTPColorManager.obj
 0001:000480d0       ??0CXTPColorManager@@AAE@XZ 004490d0 f   ToolkitPro1501vc60S:XTPColorManager.obj
 0001:00048220       ??_GCXTPControlTheme@@UAEPAXI@Z 00449220 f i ToolkitPro1501vc60S:XTPColorManager.obj
 0001:00048220       ??_ECXTPShortcutManagerAccel@@UAEPAXI@Z 00449220 f i ToolkitPro1501vc60S:XTPColorManager.obj
 0001:00048220       ??_GCXTPShortcutManagerAccel@@UAEPAXI@Z 00449220 f i ToolkitPro1501vc60S:XTPColorManager.obj
 0001:00048220       ??_ECXTPColorManager@@UAEPAXI@Z 00449220 f i ToolkitPro1501vc60S:XTPColorManager.obj
 0001:00048220       ??_GCXTPColorManager@@UAEPAXI@Z 00449220 f i ToolkitPro1501vc60S:XTPColorManager.obj
 0001:00048220       ??_ECXTPControlTheme@@UAEPAXI@Z 00449220 f i ToolkitPro1501vc60S:XTPColorManager.obj
 0001:00048240       ??1CXTPControlTheme@@UAE@XZ 00449240 f i ToolkitPro1501vc60S:XTPColorManager.obj
 0001:00048240       ??1CXTPShortcutManagerAccel@@UAE@XZ 00449240 f i ToolkitPro1501vc60S:XTPColorManager.obj
 0001:00048240       ??1CXTPColorManager@@UAE@XZ 00449240 f i ToolkitPro1501vc60S:XTPColorManager.obj
 0001:00048250       ?Instance@CXTPColorManager@@CAAAV1@XZ 00449250 f   ToolkitPro1501vc60S:XTPColorManager.obj
 0001:000482a0       ?ColorWidth@CXTPColorManager@@AAEMHH@Z 004492a0 f   ToolkitPro1501vc60S:XTPColorManager.obj
 0001:000482d0       ?ColorDelta@CXTPColorManager@@AAEMKK@Z 004492d0 f   ToolkitPro1501vc60S:XTPColorManager.obj
 0001:00048360       ?Length@CXTPColorManager@@AAEMKK@Z 00449360 f   ToolkitPro1501vc60S:XTPColorManager.obj
 0001:00048380       ?LongColor@CXTPColorManager@@QAEHKKHM@Z 00449380 f   ToolkitPro1501vc60S:XTPColorManager.obj
 0001:00048400       ?MixColor@CXTPColorManager@@AAEKKKM@Z 00449400 f   ToolkitPro1501vc60S:XTPColorManager.obj
 0001:00048790       ?AdjustColor@CXTPColorManager@@AAEKKKM@Z 00449790 f   ToolkitPro1501vc60S:XTPColorManager.obj
 0001:00048a20       ?LightColor@CXTPColorManager@@QBEKKKH@Z 00449a20 f   ToolkitPro1501vc60S:XTPColorManager.obj
 0001:00048ae0       ?GetColor@CXTPColorManager@@QBEKH@Z 00449ae0 f   ToolkitPro1501vc60S:XTPColorManager.obj
 0001:00048b10       ?RefreshSysColors@CXTPColorManager@@AAEXXZ 00449b10 f   ToolkitPro1501vc60S:XTPColorManager.obj
 0001:00048b60       ?RefreshXPColors@CXTPColorManager@@AAEXXZ 00449b60 f   ToolkitPro1501vc60S:XTPColorManager.obj
 0001:00048cc0       ?RefreshGradientColors@CXTPColorManager@@AAEXXZ 00449cc0 f   ToolkitPro1501vc60S:XTPColorManager.obj
 0001:00049130       ?RefreshXtremeColors@@YAXXZ 0044a130 f   ToolkitPro1501vc60S:XTPColorManager.obj
 0001:00049140       ?IsLowResolution@CXTPColorManager@@QAEHPAUHDC__@@@Z 0044a140 f   ToolkitPro1501vc60S:XTPColorManager.obj
 0001:000491c0       ?RefreshColors@CXTPColorManager@@QAEXXZ 0044a1c0 f   ToolkitPro1501vc60S:XTPColorManager.obj
 0001:00049c00       ?RefreshLunaColors@CXTPColorManager@@QAEXXZ 0044ac00 f   ToolkitPro1501vc60S:XTPColorManager.obj
 0001:00049ec0       ?GetRDelta@CXTPColorManager@@AAENK@Z 0044aec0 f   ToolkitPro1501vc60S:XTPColorManager.obj
 0001:00049ee0       ?GetGDelta@CXTPColorManager@@AAENK@Z 0044aee0 f   ToolkitPro1501vc60S:XTPColorManager.obj
 0001:00049f00       ?GetBDelta@CXTPColorManager@@AAENK@Z 0044af00 f   ToolkitPro1501vc60S:XTPColorManager.obj
 0001:00049f20       ?DisableLunaColors@CXTPColorManager@@QAEXH@Z 0044af20 f   ToolkitPro1501vc60S:XTPColorManager.obj
 0001:00049f30       ?IsLunaColorsDisabled@CXTPColorManager@@QBEHXZ 0044af30 f   ToolkitPro1501vc60S:XTPColorManager.obj
 0001:00049f40       ?GetWinThemeWrapperTheme@CXTPColorManager@@QBE?AW4XTPCurrentSystemTheme@@XZ 0044af40 f   ToolkitPro1501vc60S:XTPColorManager.obj
 0001:00049f50       ?_GetWinThemeWrapperTheme@CXTPColorManager@@AAE?AW4XTPCurrentSystemTheme@@XZ 0044af50 f   ToolkitPro1501vc60S:XTPColorManager.obj
 0001:0004a210       ?GetCurrentSystemTheme@CXTPColorManager@@QBE?AW4XTPCurrentSystemTheme@@XZ 0044b210 f   ToolkitPro1501vc60S:XTPColorManager.obj
 0001:0004a230       ??1CXTPCommandBarList@@UAE@XZ 0044b230 f   ToolkitPro1501vc60S:XTPCommandBar.obj
 0001:0004a2b0       ??_GCXTPCommandBarList@@UAEPAXI@Z 0044b2b0 f i ToolkitPro1501vc60S:XTPCommandBar.obj
 0001:0004a2b0       ??_ECXTPCommandBarList@@UAEPAXI@Z 0044b2b0 f i ToolkitPro1501vc60S:XTPCommandBar.obj
 0001:0004a2d0       ?GetAt@CXTPCommandBarList@@QBEPAVCXTPCommandBar@@H@Z 0044b2d0 f   ToolkitPro1501vc60S:XTPCommandBar.obj
 0001:0004a2f0       ?Add@CXTPCommandBarList@@UAEPAVCXTPCommandBar@@PAV2@@Z 0044b2f0 f   ToolkitPro1501vc60S:XTPCommandBar.obj
 0001:0004a460       ?Lookup@CXTPCommandBarList@@QBEHPAVCXTPCommandBar@@@Z 0044b460 f   ToolkitPro1501vc60S:XTPCommandBar.obj
 0001:0004a4a0       ?RemoveAll@CXTPCommandBarList@@QAEXXZ 0044b4a0 f   ToolkitPro1501vc60S:XTPCommandBar.obj
 0001:0004a4f0       ?FindCommandBar@CXTPCommandBarList@@QBEPAVCXTPCommandBar@@I@Z 0044b4f0 f   ToolkitPro1501vc60S:XTPCommandBar.obj
 0001:0004a530       ?CreateObject@CXTPCommandBar@@SGPAVCObject@@XZ 0044b530 f   ToolkitPro1501vc60S:XTPCommandBar.obj
 0001:0004a590       ?GetRuntimeClass@CXTPCommandBar@@UBEPAUCRuntimeClass@@XZ 0044b590 f   ToolkitPro1501vc60S:XTPCommandBar.obj
 0001:0004a5c0       ?Clone@CXTPCommandBar@@UAEPAV1@H@Z 0044b5c0 f   ToolkitPro1501vc60S:XTPCommandBar.obj
 0001:0004a5f0       ??0CXTPCommandBar@@IAE@XZ  0044b5f0 f   ToolkitPro1501vc60S:XTPCommandBar.obj
 0001:0004a7d0       ?DelayRedraw@CXTPCommandBar@@UAEXXZ 0044b7d0 f i ToolkitPro1501vc60S:XTPCommandBar.obj
 0001:0004a7e0       ?CalcDynamicLayout@CXTPCommandBar@@MAE?AVCSize@@HK@Z 0044b7e0 f i ToolkitPro1501vc60S:XTPCommandBar.obj
 0001:0004a7f0       ?IsCustomizable@CXTPCommandBar@@UBEHXZ 0044b7f0 f i ToolkitPro1501vc60S:XTPCommandBar.obj
 0001:0004a800       ??_ECXTPCommandBar@@MAEPAXI@Z 0044b800 f i ToolkitPro1501vc60S:XTPCommandBar.obj
 0001:0004a800       ??_GCXTPCommandBar@@MAEPAXI@Z 0044b800 f i ToolkitPro1501vc60S:XTPCommandBar.obj
 0001:0004a820       ??1CXTPCommandBar@@MAE@XZ  0044b820 f   ToolkitPro1501vc60S:XTPCommandBar.obj
 0001:0004a990       ?SetControls@CXTPCommandBar@@QAEXPAVCXTPControls@@@Z 0044b990 f   ToolkitPro1501vc60S:XTPCommandBar.obj
 0001:0004a9d0       ?OnRemoved@CXTPCommandBar@@MAEXXZ 0044b9d0 f   ToolkitPro1501vc60S:XTPCommandBar.obj
 0001:0004aa40       ?GetMessageMap@CXTPCommandBar@@MBEPBUAFX_MSGMAP@@XZ 0044ba40 f   ToolkitPro1501vc60S:XTPCommandBar.obj
 0001:0004aa50       ?OnCreate@CXTPCommandBar@@QAEHPAUtagCREATESTRUCTA@@@Z 0044ba50 f   ToolkitPro1501vc60S:XTPCommandBar.obj
 0001:0004aae0       ?OnDestroy@CXTPCommandBar@@QAEXXZ 0044bae0 f   ToolkitPro1501vc60S:XTPCommandBar.obj
 0001:0004ab30       ?IsMouseLocked@CXTPCommandBar@@IBEHXZ 0044bb30 f   ToolkitPro1501vc60S:XTPCommandBar.obj
 0001:0004ab60       ?OnMouseMove@CXTPCommandBar@@QAEXIVCPoint@@@Z 0044bb60 f   ToolkitPro1501vc60S:XTPCommandBar.obj
 0001:0004ace0       ?OnMouseLeave@CXTPCommandBar@@QAEXXZ 0044bce0 f   ToolkitPro1501vc60S:XTPCommandBar.obj
 0001:0004ad20       ?OnNcMouseMove@CXTPCommandBar@@QAEXIVCPoint@@@Z 0044bd20 f   ToolkitPro1501vc60S:XTPCommandBar.obj
 0001:0004ad40       ?OnTrackEnter@CXTPCommandBar@@UAEXXZ 0044bd40 f   ToolkitPro1501vc60S:XTPCommandBar.obj
 0001:0004ad50       ?OnLButtonDown@CXTPCommandBar@@QAEXIVCPoint@@@Z 0044bd50 f   ToolkitPro1501vc60S:XTPCommandBar.obj
 0001:0004ae90       ?OnLButtonDblClk@CXTPCommandBar@@QAEXIVCPoint@@@Z 0044be90 f   ToolkitPro1501vc60S:XTPCommandBar.obj
 0001:0004aed0       ?OnLButtonUp@CXTPCommandBar@@QAEXIVCPoint@@@Z 0044bed0 f   ToolkitPro1501vc60S:XTPCommandBar.obj
 0001:0004af20       ?OnRButtonUp@CXTPCommandBar@@QAEXIVCPoint@@@Z 0044bf20 f   ToolkitPro1501vc60S:XTPCommandBar.obj
 0001:0004afd0       ?SetSelected@CXTPCommandBar@@UAEHHH@Z 0044bfd0 f   ToolkitPro1501vc60S:XTPCommandBar.obj
 0001:0004b110       ?SetPopuped@CXTPCommandBar@@QAEHHH@Z 0044c110 f   ToolkitPro1501vc60S:XTPCommandBar.obj
 0001:0004b230       ?OnIdleUpdateCmdUI@CXTPCommandBar@@UAEJIJ@Z 0044c230 f   ToolkitPro1501vc60S:XTPCommandBar.obj
 0001:0004b2a0       ?Enable@CCommandBarCmdUI@CXTPCommandBar@@UAEXH@Z 0044c2a0 f   ToolkitPro1501vc60S:XTPCommandBar.obj
 0001:0004b300       ?SetCheck@CCommandBarCmdUI@CXTPCommandBar@@UAEXH@Z 0044c300 f   ToolkitPro1501vc60S:XTPCommandBar.obj
 0001:0004b320       ?SetText@CCommandBarCmdUI@CXTPCommandBar@@UAEXPBD@Z 0044c320 f   ToolkitPro1501vc60S:XTPCommandBar.obj
 0001:0004b340       ?OnInitialUpdate@CXTPCommandBar@@QAEXXZ 0044c340 f   ToolkitPro1501vc60S:XTPCommandBar.obj
 0001:0004b350       ?OnUpdateCmdUI@CXTPCommandBar@@QAEXXZ 0044c350 f   ToolkitPro1501vc60S:XTPCommandBar.obj
 0001:0004b4e0       ?LoadMenuA@CXTPControls@@QAEHPAVCMenu@@@Z 0044c4e0 f   ToolkitPro1501vc60S:XTPCommandBar.obj
 0001:0004b630       ?LoadMenuA@CXTPCommandBar@@UAEHPAVCMenu@@H@Z 0044c630 f   ToolkitPro1501vc60S:XTPCommandBar.obj
 0001:0004b690       ?ProcessSpecialKey@CXTPCommandBar@@MAEHW4XTPSpecialKey@@@Z 0044c690 f   ToolkitPro1501vc60S:XTPCommandBar.obj
 0001:0004bbf0       ?IsHelpMode@CXTPCommandBar@@IBEHXZ 0044cbf0 f   ToolkitPro1501vc60S:XTPCommandBar.obj
 0001:0004bc10       ?OnHookKeyDown@CXTPCommandBar@@MAEHIJ@Z 0044cc10 f   ToolkitPro1501vc60S:XTPCommandBar.obj
 0001:0004c060       ?HideKeyboardTips@CXTPCommandBar@@QAEXXZ 0044d060 f   ToolkitPro1501vc60S:XTPCommandBar.obj
 0001:0004c080       ?OnKeyboardTip@CXTPCommandBar@@UAEXPAVCXTPCommandBarKeyboardTip@@@Z 0044d080 f   ToolkitPro1501vc60S:XTPCommandBar.obj
 0001:0004c0e0       ?OnKeyboardTipChar@CXTPCommandBar@@QAEXI@Z 0044d0e0 f   ToolkitPro1501vc60S:XTPCommandBar.obj
 0001:0004c260       ?OnHookMessage@CXTPCommandBar@@UAEHPAUHWND__@@IAAIAAJ2@Z 0044d260 f   ToolkitPro1501vc60S:XTPCommandBar.obj
 0001:0004c330       ?SetTrackingMode@CXTPCommandBar@@UAEHHHH@Z 0044d330 f   ToolkitPro1501vc60S:XTPCommandBar.obj
 0001:0004c590       ?GetControlCount@CXTPCommandBar@@QBEHXZ 0044d590 f   ToolkitPro1501vc60S:XTPCommandBar.obj
 0001:0004c5a0       ?GetControl@CXTPCommandBar@@QBEPAVCXTPControl@@H@Z 0044d5a0 f   ToolkitPro1501vc60S:XTPCommandBar.obj
 0001:0004c5e0       ?OnTimer@CXTPCommandBar@@QAEXI@Z 0044d5e0 f   ToolkitPro1501vc60S:XTPCommandBar.obj
 0001:0004c700       ?OnControlsChanged@CXTPCommandBar@@MAEXXZ 0044d700 f   ToolkitPro1501vc60S:XTPCommandBar.obj
 0001:0004c720       ?Redraw@CXTPCommandBar@@UAEXPBUtagRECT@@H@Z 0044d720 f   ToolkitPro1501vc60S:XTPCommandBar.obj
 0001:0004c790       ?EnableAnimation@CXTPCommandBar@@QAEXH@Z 0044d790 f   ToolkitPro1501vc60S:XTPCommandBar.obj
 0001:0004c7b0       ?IsAnimationEnabled@CXTPCommandBar@@QBEHXZ 0044d7b0 f   ToolkitPro1501vc60S:XTPCommandBar.obj
 0001:0004c7c0       ?EnableDoubleBuffer@CXTPCommandBar@@QAEXH@Z 0044d7c0 f   ToolkitPro1501vc60S:XTPCommandBar.obj
 0001:0004c7d0       ?SetShowGripper@CXTPCommandBar@@QAEXH@Z 0044d7d0 f   ToolkitPro1501vc60S:XTPCommandBar.obj
 0001:0004c800       ?GetShowGripper@CXTPCommandBar@@QBEHXZ 0044d800 f   ToolkitPro1501vc60S:XTPCommandBar.obj
 0001:0004c810       ?OnPaint@CXTPCommandBar@@QAEXXZ 0044d810 f   ToolkitPro1501vc60S:XTPCommandBar.obj
 0001:0004c870       ?OnPrintClient@CXTPCommandBar@@QAEJIJ@Z 0044d870 f   ToolkitPro1501vc60S:XTPCommandBar.obj
 0001:0004c8d0       ?GetBorders@CXTPCommandBar@@UAE?AVCRect@@XZ 0044d8d0 f   ToolkitPro1501vc60S:XTPCommandBar.obj
 0001:0004c910       ?FillCommandBarEntry@CXTPCommandBar@@UAEXPAVCDC@@@Z 0044d910 f   ToolkitPro1501vc60S:XTPCommandBar.obj
 0001:0004c930       ?DrawCommandBar@CXTPCommandBar@@UAEXPAVCDC@@VCRect@@@Z 0044d930 f   ToolkitPro1501vc60S:XTPCommandBar.obj
 0001:0004cb60       ?CustomizeDrawMarker@CXTPCommandBar@@IAEXPAVCDC@@@Z 0044db60 f   ToolkitPro1501vc60S:XTPCommandBar.obj
 0001:0004cdb0       ??1CBrush@@UAE@XZ          0044ddb0 f i ToolkitPro1501vc60S:XTPCommandBar.obj
 0001:0004cdf0       ?FindAccelEx@CXTPCommandBar@@QBEHIAAH@Z 0044ddf0 f   ToolkitPro1501vc60S:XTPCommandBar.obj
 0001:0004cf90       ?GetFrameSite@CXTPCommandBar@@QBEPAVCFrameWnd@@XZ 0044df90 f   ToolkitPro1501vc60S:XTPCommandBar.obj
 0001:0004cfc0       ?GetSite@CXTPCommandBar@@QBEPAVCWnd@@XZ 0044dfc0 f   ToolkitPro1501vc60S:XTPCommandBar.obj
 0001:0004d020       ?GetOwnerSite@CXTPCommandBar@@QBEPAVCWnd@@XZ 0044e020 f   ToolkitPro1501vc60S:XTPCommandBar.obj
 0001:0004d080       ?GetRootParent@CXTPCommandBar@@QBEPAV1@XZ 0044e080 f   ToolkitPro1501vc60S:XTPCommandBar.obj
 0001:0004d0b0       ?GetCommandBars@CXTPCommandBar@@QBEPAVCXTPCommandBars@@XZ 0044e0b0 f   ToolkitPro1501vc60S:XTPCommandBar.obj
 0001:0004d0e0       ?IsCustomizeMode@CXTPCommandBar@@QBEHXZ 0044e0e0 f   ToolkitPro1501vc60S:XTPCommandBar.obj
 0001:0004d0f0       ?OnCustomizeDragEnter@CXTPCommandBar@@UAEKPAVCXTPControl@@VCPoint@@@Z 0044e0f0 f   ToolkitPro1501vc60S:XTPCommandBar.obj
 0001:0004d120       ?OnCustomizeDragLeave@CXTPCommandBar@@UAEXXZ 0044e120 f   ToolkitPro1501vc60S:XTPCommandBar.obj
 0001:0004d150       ?CustomizeFindDropIndex@CXTPCommandBar@@MAEXPAVCXTPControl@@ABVCPoint@@AAVCRect@@AAH3@Z 0044e150 f   ToolkitPro1501vc60S:XTPCommandBar.obj
 0001:0004d4c0       ?OnCustomizeDragOver@CXTPCommandBar@@UAEKPAVCXTPControl@@VCPoint@@@Z 0044e4c0 f   ToolkitPro1501vc60S:XTPCommandBar.obj
 0001:0004d600       ?OnCustomizeDrop@CXTPCommandBar@@UAEXPAVCXTPControl@@AAKVCPoint@@2@Z 0044e600 f   ToolkitPro1501vc60S:XTPCommandBar.obj
 0001:0004d780       ?OnRButtonDown@CXTPCommandBar@@QAEXIVCPoint@@@Z 0044e780 f   ToolkitPro1501vc60S:XTPCommandBar.obj
 0001:0004d870       ?InvalidateParents@CXTPCommandBar@@QAEXXZ 0044e870 f   ToolkitPro1501vc60S:XTPCommandBar.obj
 0001:0004d8b0       ?OnControlSelected@CXTPCommandBar@@UAEXHPAVCXTPControl@@@Z 0044e8b0 f   ToolkitPro1501vc60S:XTPCommandBar.obj
 0001:0004da10       ?SetStatusText@CXTPCommandBar@@QAEHABVCString@@@Z 0044ea10 f   ToolkitPro1501vc60S:XTPCommandBar.obj
 0001:0004da90       ?SetPaintManager@CXTPCommandBar@@QAEXPAVCXTPPaintManager@@@Z 0044ea90 f   ToolkitPro1501vc60S:XTPCommandBar.obj
 0001:0004dac0       ?GetPaintManager@CXTPCommandBar@@QBEPAVCXTPPaintManager@@XZ 0044eac0 f   ToolkitPro1501vc60S:XTPCommandBar.obj
 0001:0004db10       ?SetImageManager@CXTPCommandBar@@QAEXPAVCXTPImageManager@@@Z 0044eb10 f   ToolkitPro1501vc60S:XTPCommandBar.obj
 0001:0004db40       ?GetImageManager@CXTPCommandBar@@QBEPAVCXTPImageManager@@XZ 0044eb40 f   ToolkitPro1501vc60S:XTPCommandBar.obj
 0001:0004db80       ?Copy@CXTPCommandBar@@MAEXPAV1@H@Z 0044eb80 f   ToolkitPro1501vc60S:XTPCommandBar.obj
 0001:0004dc50       ?GetActiveDocTemplate@CXTPCommandBar@@IBEIXZ 0044ec50 f   ToolkitPro1501vc60S:XTPCommandBar.obj
 0001:0004dc70       ?UpdateDocTemplateControls@CXTPCommandBar@@IAEXXZ 0044ec70 f   ToolkitPro1501vc60S:XTPCommandBar.obj
 0001:0004ddf0       ?SetFlags@CXTPCommandBar@@QAEXKK@Z 0044edf0 f   ToolkitPro1501vc60S:XTPCommandBar.obj
 0001:0004de10       ?OnHelpHitTest@CXTPCommandBar@@QAEJIJ@Z 0044ee10 f   ToolkitPro1501vc60S:XTPCommandBar.obj
 0001:0004de90       ?OnNcHitTest@CXTPCommandBar@@QAEJVCPoint@@@Z 0044ee90 f   ToolkitPro1501vc60S:XTPCommandBar.obj
 0001:0004df00       ?OnNcLButtonDown@CXTPCommandBar@@QAEXIVCPoint@@@Z 0044ef00 f   ToolkitPro1501vc60S:XTPCommandBar.obj
 0001:0004df40       ?SetWidth@CXTPCommandBar@@QAEXH@Z 0044ef40 f   ToolkitPro1501vc60S:XTPCommandBar.obj
 0001:0004df50       ?GetWidth@CXTPCommandBar@@QBEHXZ 0044ef50 f   ToolkitPro1501vc60S:XTPCommandBar.obj
 0001:0004df60       ?IsLayoutRTL@CXTPCommandBar@@QBEHXZ 0044ef60 f   ToolkitPro1501vc60S:XTPCommandBar.obj
 0001:0004df80       ?OnMouseHitTest@CXTPCommandBar@@MAEHVCPoint@@@Z 0044ef80 f   ToolkitPro1501vc60S:XTPCommandBar.obj
 0001:0004e0d0       ??_ECRgn@@UAEPAXI@Z        0044f0d0 f i ToolkitPro1501vc60S:XTPCommandBar.obj
 0001:0004e0d0       ??_GCRgn@@UAEPAXI@Z        0044f0d0 f i ToolkitPro1501vc60S:XTPCommandBar.obj
 0001:0004e0f0       ??1CRgn@@UAE@XZ            0044f0f0 f i ToolkitPro1501vc60S:XTPCommandBar.obj
 0001:0004e130       ?GetAccessible@CXTPCommandBar@@MAEPAVCCmdTarget@@XZ 0044f130 f   ToolkitPro1501vc60S:XTPCommandBar.obj
 0001:0004e140       ?GetAccessibleParent@CXTPCommandBar@@MAEJPAPAUIDispatch@@@Z 0044f140 f   ToolkitPro1501vc60S:XTPCommandBar.obj
 0001:0004e1c0       ?GetAccessibleChildCount@CXTPCommandBar@@MAEJPAJ@Z 0044f1c0 f   ToolkitPro1501vc60S:XTPCommandBar.obj
 0001:0004e1f0       ?GetAccessibleChild@CXTPCommandBar@@MAEJUtagVARIANT@@PAPAUIDispatch@@@Z 0044f1f0 f   ToolkitPro1501vc60S:XTPCommandBar.obj
 0001:0004e240       ?GetAccessibleName@CXTPCommandBar@@MAEJUtagVARIANT@@PAPAG@Z 0044f240 f   ToolkitPro1501vc60S:XTPCommandBar.obj
 0001:0004e3f0       ?GetAccessibleRole@CXTPCommandBar@@MAEJUtagVARIANT@@PAU2@@Z 0044f3f0 f   ToolkitPro1501vc60S:XTPCommandBar.obj
 0001:0004e460       ?GetAccessibleState@CXTPCommandBar@@MAEJUtagVARIANT@@PAU2@@Z 0044f460 f   ToolkitPro1501vc60S:XTPCommandBar.obj
 0001:0004e4e0       ?AccessibleLocation@CXTPCommandBar@@MAEJPAJ000UtagVARIANT@@@Z 0044f4e0 f   ToolkitPro1501vc60S:XTPCommandBar.obj
 0001:0004e5c0       ?AccessibleHitTest@CXTPCommandBar@@MAEJJJPAUtagVARIANT@@@Z 0044f5c0 f   ToolkitPro1501vc60S:XTPCommandBar.obj
 0001:0004e690       ?OnGetObject@CXTPCommandBar@@QAEJIJ@Z 0044f690 f   ToolkitPro1501vc60S:XTPCommandBar.obj
 0001:0004e730       ?FilterToolTipMessage@CXTPCommandBar@@QAEXIIJ@Z 0044f730 f   ToolkitPro1501vc60S:XTPCommandBar.obj
 0001:0004e760       ?OnWndMsg@CXTPCommandBar@@UAEHIIJPAJ@Z 0044f760 f   ToolkitPro1501vc60S:XTPCommandBar.obj
 0001:0004e790       ?GetInterfaceMap@CXTPCommandBar@@MBEPBUAFX_INTERFACEMAP@@XZ 0044f790 f   ToolkitPro1501vc60S:XTPCommandBar.obj
 0001:0004e7a0       ??_9@$BBHA@AE              0044f7a0 f i ToolkitPro1501vc60S:XTPCommandBar.obj
 0001:0004e7b0       ??_ECXTPCommandBar@@ODM@AEPAXI@Z 0044f7b0 f i ToolkitPro1501vc60S:XTPCommandBar.obj
 0001:0004e7c0       ??_ECXTPCommandBar@@OEE@AEPAXI@Z 0044f7c0 f i ToolkitPro1501vc60S:XTPCommandBar.obj
 0001:0004e7d0       ??0CXTPMarkupAutoPtr@@QAE@PAVCXTPMarkupObject@@@Z 0044f7d0 f   ToolkitPro1501vc60S:XTPDrawHelpers.obj
 0001:0004e7d0       ??0CXTPTransparentBitmap@@QAE@PAUHBITMAP__@@@Z 0044f7d0 f   ToolkitPro1501vc60S:XTPDrawHelpers.obj
 0001:0004e7e0       ?GetTransparentColor@CXTPTransparentBitmap@@QBEKXZ 0044f7e0 f   ToolkitPro1501vc60S:XTPDrawHelpers.obj
 0001:0004e830       ?ConvertToIcon@CXTPTransparentBitmap@@QBEPAUHICON__@@XZ 0044f830 f   ToolkitPro1501vc60S:XTPDrawHelpers.obj
 0001:0004e920       ??0CXTPEmptyRect@@QAE@XZ   0044f920 f   ToolkitPro1501vc60S:XTPDrawHelpers.obj
 0001:0004e930       ??0CXTPWindowRect@@QAE@PAUHWND__@@@Z 0044f930 f   ToolkitPro1501vc60S:XTPDrawHelpers.obj
 0001:0004e960       ??0CXTPWindowRect@@QAE@PBVCWnd@@@Z 0044f960 f   ToolkitPro1501vc60S:XTPDrawHelpers.obj
 0001:0004e9c0       ??0CXTPClientRect@@QAE@PBVCWnd@@@Z 0044f9c0 f   ToolkitPro1501vc60S:XTPDrawHelpers.obj
 0001:0004ea20       ??0CXTPBufferDC@@QAE@PAUHDC__@@ABVCRect@@@Z 0044fa20 f   ToolkitPro1501vc60S:XTPDrawHelpers.obj
 0001:0004eaf0       ??_ECXTPBufferDC@@UAEPAXI@Z 0044faf0 f i ToolkitPro1501vc60S:XTPDrawHelpers.obj
 0001:0004eaf0       ??_GCXTPBufferDC@@UAEPAXI@Z 0044faf0 f i ToolkitPro1501vc60S:XTPDrawHelpers.obj
 0001:0004eb10       ??0CXTPBufferDC@@QAE@AAVCPaintDC@@@Z 0044fb10 f   ToolkitPro1501vc60S:XTPDrawHelpers.obj
 0001:0004ec40       ??1CXTPBufferDC@@UAE@XZ    0044fc40 f   ToolkitPro1501vc60S:XTPDrawHelpers.obj
 0001:0004ecf0       ??0CXTPFontDC@@QAE@PAVCDC@@PAVCFont@@@Z 0044fcf0 f   ToolkitPro1501vc60S:XTPDrawHelpers.obj
 0001:0004ed30       ??_ECXTPFontDC@@UAEPAXI@Z  0044fd30 f i ToolkitPro1501vc60S:XTPDrawHelpers.obj
 0001:0004ed30       ??_GCXTPFontDC@@UAEPAXI@Z  0044fd30 f i ToolkitPro1501vc60S:XTPDrawHelpers.obj
 0001:0004ed50       ??1CXTPFontDC@@UAE@XZ      0044fd50 f   ToolkitPro1501vc60S:XTPDrawHelpers.obj
 0001:0004ed70       ?SetFont@CXTPFontDC@@QAEXPAVCFont@@@Z 0044fd70 f   ToolkitPro1501vc60S:XTPDrawHelpers.obj
 0001:0004eda0       ?ReleaseFont@CXTPFontDC@@QAEXXZ 0044fda0 f   ToolkitPro1501vc60S:XTPDrawHelpers.obj
 0001:0004edc0       ?ReleaseColor@CXTPFontDC@@QAEXXZ 0044fdc0 f   ToolkitPro1501vc60S:XTPDrawHelpers.obj
 0001:0004edf0       ??0CXTPPenDC@@QAE@PAVCDC@@PAVCPen@@@Z 0044fdf0 f   ToolkitPro1501vc60S:XTPDrawHelpers.obj
 0001:0004ee50       ??_ECXTPPenDC@@UAEPAXI@Z   0044fe50 f i ToolkitPro1501vc60S:XTPDrawHelpers.obj
 0001:0004ee50       ??_GCXTPPenDC@@UAEPAXI@Z   0044fe50 f i ToolkitPro1501vc60S:XTPDrawHelpers.obj
 0001:0004ee70       ??0CXTPPenDC@@QAE@PAUHDC__@@K@Z 0044fe70 f   ToolkitPro1501vc60S:XTPDrawHelpers.obj
 0001:0004ef00       ??1CXTPPenDC@@UAE@XZ       0044ff00 f   ToolkitPro1501vc60S:XTPDrawHelpers.obj
 0001:0004ef60       ?Color@CXTPPenDC@@QAEXK@Z  0044ff60 f   ToolkitPro1501vc60S:XTPDrawHelpers.obj
 0001:0004efc0       ??0CXTPBrushDC@@QAE@PAUHDC__@@K@Z 0044ffc0 f   ToolkitPro1501vc60S:XTPDrawHelpers.obj
 0001:0004f040       ??_ECXTPBrushDC@@UAEPAXI@Z 00450040 f i ToolkitPro1501vc60S:XTPDrawHelpers.obj
 0001:0004f040       ??_GCXTPBrushDC@@UAEPAXI@Z 00450040 f i ToolkitPro1501vc60S:XTPDrawHelpers.obj
 0001:0004f060       ??1CXTPBrushDC@@UAE@XZ     00450060 f   ToolkitPro1501vc60S:XTPDrawHelpers.obj
 0001:0004f0c0       ??0CXTPCompatibleDC@@QAE@PAVCDC@@PAVCBitmap@@@Z 004500c0 f   ToolkitPro1501vc60S:XTPDrawHelpers.obj
 0001:0004f150       ??_GCXTPCompatibleDC@@UAEPAXI@Z 00450150 f i ToolkitPro1501vc60S:XTPDrawHelpers.obj
 0001:0004f150       ??_ECXTPCompatibleDC@@UAEPAXI@Z 00450150 f i ToolkitPro1501vc60S:XTPDrawHelpers.obj
 0001:0004f170       ??0CXTPCompatibleDC@@QAE@PAVCDC@@PAUHBITMAP__@@@Z 00450170 f   ToolkitPro1501vc60S:XTPDrawHelpers.obj
 0001:0004f1f0       ??1CXTPCompatibleDC@@UAE@XZ 004501f0 f   ToolkitPro1501vc60S:XTPDrawHelpers.obj
 0001:0004f260       ??0CXTPSplitterTracker@@QAE@HH@Z 00450260 f   ToolkitPro1501vc60S:XTPDrawHelpers.obj
 0001:0004f2c0       ?OnInvertTracker@CXTPSplitterTracker@@AAEXVCRect@@@Z 004502c0 f   ToolkitPro1501vc60S:XTPDrawHelpers.obj
 0001:0004f370       ?Track@CXTPSplitterTracker@@QAEHPAVCWnd@@VCRect@@AAV3@VCPoint@@H@Z 00450370 f   ToolkitPro1501vc60S:XTPDrawHelpers.obj
 0001:0004f7f0       ??0CXTPDrawHelpers@@QAE@XZ 004507f0 f   ToolkitPro1501vc60S:XTPDrawHelpers.obj
 0001:0004f850       ??_ECXTPDrawHelpers@@UAEPAXI@Z 00450850 f i ToolkitPro1501vc60S:XTPDrawHelpers.obj
 0001:0004f850       ??_GCXTPDrawHelpers@@UAEPAXI@Z 00450850 f i ToolkitPro1501vc60S:XTPDrawHelpers.obj
 0001:0004f870       ?XTPDrawHelpers@@YAPAVCXTPDrawHelpers@@XZ 00450870 f   ToolkitPro1501vc60S:XTPDrawHelpers.obj
 0001:0004f8c0       ??1CXTPDrawHelpers@@UAE@XZ 004508c0 f   ToolkitPro1501vc60S:XTPDrawHelpers.obj
 0001:0004f8d0       ?GradientFill@CXTPDrawHelpers@@QAEHPAUHDC__@@PAU_TRIVERTEX@@KPAXKK@Z 004508d0 f   ToolkitPro1501vc60S:XTPDrawHelpers.obj
 0001:0004f900       ?GradientFillSlow@CXTPDrawHelpers@@AAEXPAVCDC@@PBUtagRECT@@KKH@Z 00450900 f   ToolkitPro1501vc60S:XTPDrawHelpers.obj
 0001:0004fa70       ?GradientFillFast@CXTPDrawHelpers@@AAEXPAVCDC@@PBUtagRECT@@KKH@Z 00450a70 f   ToolkitPro1501vc60S:XTPDrawHelpers.obj
 0001:0004fb40       ?GradientFill@CXTPDrawHelpers@@QAEXPAVCDC@@PBUtagRECT@@KKH@Z 00450b40 f   ToolkitPro1501vc60S:XTPDrawHelpers.obj
 0001:0004fc10       ?GradientFill@CXTPDrawHelpers@@QAEXPAVCDC@@PBUtagRECT@@KKH1@Z 00450c10 f   ToolkitPro1501vc60S:XTPDrawHelpers.obj
 0001:0004fe20       ?GradientFill@CXTPDrawHelpers@@QAEXPAVCDC@@PBUtagRECT@@ABVCXTPPaintManagerColorGradient@@H1@Z 00450e20 f   ToolkitPro1501vc60S:XTPDrawHelpers.obj
 0001:0004ffe0       ?StripMnemonics@CXTPDrawHelpers@@SAXAAVCString@@@Z 00450fe0 f   ToolkitPro1501vc60S:XTPDrawHelpers.obj
 0001:00050010       ?StripMnemonics@CXTPDrawHelpers@@SAXPAD@Z 00451010 f   ToolkitPro1501vc60S:XTPDrawHelpers.obj
 0001:00050040       ?BlendColors@CXTPDrawHelpers@@SAKKKN@Z 00451040 f   ToolkitPro1501vc60S:XTPDrawHelpers.obj
 0001:00050130       ?DarkenColor@CXTPDrawHelpers@@SAKJK@Z 00451130 f   ToolkitPro1501vc60S:XTPDrawHelpers.obj
 0001:000501a0       ?Dlu2Pix@CXTPDrawHelpers@@SA?AVCPoint@@HH@Z 004511a0 f   ToolkitPro1501vc60S:XTPDrawHelpers.obj
 0001:000501e0       ?RGBtoHSL@CXTPDrawHelpers@@SAKK@Z 004511e0 f   ToolkitPro1501vc60S:XTPDrawHelpers.obj
 0001:00050380       ?HueToRGB@CXTPDrawHelpers@@CAHHHH@Z 00451380 f   ToolkitPro1501vc60S:XTPDrawHelpers.obj
 0001:00050450       ?HSLtoRGB@CXTPDrawHelpers@@SAKK@Z 00451450 f   ToolkitPro1501vc60S:XTPDrawHelpers.obj
 0001:00050580       ?FontExists@CXTPDrawHelpers@@SAHPBD@Z 00451580 f   ToolkitPro1501vc60S:XTPDrawHelpers.obj
 0001:00050660       ?GetVerticalFontName@CXTPDrawHelpers@@SA?AVCString@@H@Z 00451660 f   ToolkitPro1501vc60S:XTPDrawHelpers.obj
 0001:00050770       ?IsContextRTL@CXTPDrawHelpers@@SAHPAVCDC@@@Z 00451770 f   ToolkitPro1501vc60S:XTPDrawHelpers.obj
 0001:000507a0       ?IsContextRTL@CXTPDrawHelpers@@SAHPAUHDC__@@@Z 004517a0 f   ToolkitPro1501vc60S:XTPDrawHelpers.obj
 0001:000507f0       ?SetContextRTL@CXTPDrawHelpers@@SAXPAVCDC@@H@Z 004517f0 f   ToolkitPro1501vc60S:XTPDrawHelpers.obj
 0001:00050810       ?SetContextRTL@CXTPDrawHelpers@@SAXPAUHDC__@@H@Z 00451810 f   ToolkitPro1501vc60S:XTPDrawHelpers.obj
 0001:00050860       ?KeyToLayout@CXTPDrawHelpers@@SAXPAVCWnd@@AAI@Z 00451860 f   ToolkitPro1501vc60S:XTPDrawHelpers.obj
 0001:000508b0       ?Triangle@CXTPDrawHelpers@@SAXPAVCDC@@VCPoint@@11K@Z 004518b0 f   ToolkitPro1501vc60S:XTPDrawHelpers.obj
 0001:00050980       ?IsLowResolution@CXTPDrawHelpers@@SAHPAUHDC__@@@Z 00451980 f   ToolkitPro1501vc60S:XTPDrawHelpers.obj
 0001:000509a0       ?IsTopParentActive@CXTPDrawHelpers@@SAHPAUHWND__@@@Z 004519a0 f   ToolkitPro1501vc60S:XTPDrawHelpers.obj
 0001:000509e0       ?ScreenToWindow@CXTPDrawHelpers@@SAXPAVCWnd@@PAUtagPOINT@@@Z 004519e0 f   ToolkitPro1501vc60S:XTPDrawHelpers.obj
 0001:00050a50       ?RegisterWndClass@CXTPDrawHelpers@@SAHPAUHINSTANCE__@@PBDIPAUHICON__@@PAUHBRUSH__@@@Z 00451a50 f   ToolkitPro1501vc60S:XTPDrawHelpers.obj
 0001:00050ad0       ?GetWindowCaption@CXTPDrawHelpers@@SAXPAUHWND__@@AAVCString@@@Z 00451ad0 f   ToolkitPro1501vc60S:XTPDrawHelpers.obj
 0001:00050b10       ?GetIconLogFont@CXTPDrawHelpers@@SAHPAUtagLOGFONTA@@@Z 00451b10 f   ToolkitPro1501vc60S:XTPDrawHelpers.obj
 0001:00050b80       ??1?$CProcessLocal@VCXTThemeManager@@@@QAE@XZ 00451b80 f i ToolkitPro1501vc60S:XTPDrawHelpers.obj
 0001:00050b80       ??1?$CProcessLocal@VCXTPResourceManager@@@@QAE@XZ 00451b80 f i ToolkitPro1501vc60S:XTPDrawHelpers.obj
 0001:00050b80       ??1?$CProcessLocal@VXTP_PRINT_STATE@@@@QAE@XZ 00451b80 f i ToolkitPro1501vc60S:XTPDrawHelpers.obj
 0001:00050b90       ??_ECPen@@UAEPAXI@Z        00451b90 f i ToolkitPro1501vc60S:XTPDrawHelpers.obj
 0001:00050b90       ??_GCPen@@UAEPAXI@Z        00451b90 f i ToolkitPro1501vc60S:XTPDrawHelpers.obj
 0001:00050bb0       ??1CPen@@UAE@XZ            00451bb0 f i ToolkitPro1501vc60S:XTPDrawHelpers.obj
 0001:00050bf0       ??_ECBrush@@UAEPAXI@Z      00451bf0 f i ToolkitPro1501vc60S:XTPDrawHelpers.obj
 0001:00050bf0       ??_GCBrush@@UAEPAXI@Z      00451bf0 f i ToolkitPro1501vc60S:XTPDrawHelpers.obj
 0001:00050c10       ?PtVisible@CDC@@UBEHHH@Z   00451c10 f i ToolkitPro1501vc60S:XTPDrawHelpers.obj
 0001:00050c30       ?RectVisible@CDC@@UBEHPBUtagRECT@@@Z 00451c30 f i ToolkitPro1501vc60S:XTPDrawHelpers.obj
 0001:00050c50       ?TextOutA@CDC@@UAEHHHPBDH@Z 00451c50 f i ToolkitPro1501vc60S:XTPDrawHelpers.obj
 0001:00050c80       ?ExtTextOutA@CDC@@UAEHHHIPBUtagRECT@@PBDIPAH@Z 00451c80 f i ToolkitPro1501vc60S:XTPDrawHelpers.obj
 0001:00050cb0       ?TabbedTextOutA@CDC@@UAE?AVCSize@@HHPBDHHPAHH@Z 00451cb0 f i ToolkitPro1501vc60S:XTPDrawHelpers.obj
 0001:00050d00       ?DrawTextA@CDC@@UAEHPBDHPAUtagRECT@@I@Z 00451d00 f i ToolkitPro1501vc60S:XTPDrawHelpers.obj
 0001:00050d30       ?GrayStringA@CDC@@UAEHPAVCBrush@@P6GHPAUHDC__@@JH@ZJHHHHH@Z 00451d30 f i ToolkitPro1501vc60S:XTPDrawHelpers.obj
 0001:00050d70       ?Escape@CDC@@UAEHHHPBDPAX@Z 00451d70 f i ToolkitPro1501vc60S:XTPDrawHelpers.obj
 0001:00050da0       ??0CXTPEdit@@QAE@XZ        00451da0 f   ToolkitPro1501vc60S:XTPEdit.obj
 0001:00050eb0       ??_ECXTPEdit@@UAEPAXI@Z    00451eb0 f i ToolkitPro1501vc60S:XTPEdit.obj
 0001:00050eb0       ??_GCXTPEdit@@UAEPAXI@Z    00451eb0 f i ToolkitPro1501vc60S:XTPEdit.obj
 0001:00050ed0       ??1?$CXTPMaskEditT@VCEdit@@@@UAE@XZ 00451ed0 f i ToolkitPro1501vc60S:XTPEdit.obj
 0001:00050f60       ??1CXTPEdit@@UAE@XZ        00451f60 f   ToolkitPro1501vc60S:XTPEdit.obj
 0001:00051060       ?GetRuntimeClass@CXTPEdit@@UBEPAUCRuntimeClass@@XZ 00452060 f   ToolkitPro1501vc60S:XTPEdit.obj
 0001:00051070       ?GetMessageMap@CXTPEdit@@MBEPBUAFX_MSGMAP@@XZ 00452070 f   ToolkitPro1501vc60S:XTPEdit.obj
 0001:00051080       ?SetEditMask@CXTPEdit@@UAEHPBD00@Z 00452080 f   ToolkitPro1501vc60S:XTPEdit.obj
 0001:00051140       ?Init@CXTPEdit@@IAEXXZ     00452140 f   ToolkitPro1501vc60S:XTPEdit.obj
 0001:000511a0       ?PreSubclassWindow@CXTPEdit@@MAEXXZ 004521a0 f   ToolkitPro1501vc60S:XTPEdit.obj
 0001:000511c0       ?OnCreate@CXTPEdit@@IAEHPAUtagCREATESTRUCTA@@@Z 004521c0 f   ToolkitPro1501vc60S:XTPEdit.obj
 0001:000511e0       ?PreCreateWindow@CXTPEdit@@MAEHAAUtagCREATESTRUCTA@@@Z 004521e0 f   ToolkitPro1501vc60S:XTPEdit.obj
 0001:00051210       ?OnContextMenu@CXTPEdit@@IAEXPAVCWnd@@VCPoint@@@Z 00452210 f   ToolkitPro1501vc60S:XTPEdit.obj
 0001:00051300       ?OnEditUndo@CXTPEdit@@IAEXXZ 00452300 f   ToolkitPro1501vc60S:XTPEdit.obj
 0001:000513c0       ?OnUpdateEditUndo@CXTPEdit@@IAEXPAVCCmdUI@@@Z 004523c0 f   ToolkitPro1501vc60S:XTPEdit.obj
 0001:000513e0       ?OnEditCut@CXTPEdit@@IAEXXZ 004523e0 f   ToolkitPro1501vc60S:XTPEdit.obj
 0001:00051520       ?OnUpdateEditClear@CXTPEdit@@IAEXPAVCCmdUI@@@Z 00452520 f   ToolkitPro1501vc60S:XTPEdit.obj
 0001:00051520       ?OnUpdateEditCut@CXTPEdit@@IAEXPAVCCmdUI@@@Z 00452520 f   ToolkitPro1501vc60S:XTPEdit.obj
 0001:00051560       ?OnEditCopy@CXTPEdit@@IAEXXZ 00452560 f   ToolkitPro1501vc60S:XTPEdit.obj
 0001:00051570       ?OnUpdateEditCopy@CXTPEdit@@IAEXPAVCCmdUI@@@Z 00452570 f   ToolkitPro1501vc60S:XTPEdit.obj
 0001:00051590       ?OnEditPaste@CXTPEdit@@IAEXXZ 00452590 f   ToolkitPro1501vc60S:XTPEdit.obj
 0001:00051760       ?OnUpdateEditPaste@CXTPEdit@@IAEXPAVCCmdUI@@@Z 00452760 f   ToolkitPro1501vc60S:XTPEdit.obj
 0001:00051780       ?OnEditClear@CXTPEdit@@IAEXXZ 00452780 f   ToolkitPro1501vc60S:XTPEdit.obj
 0001:000518e0       ?OnEditSelectAll@CXTPEdit@@IAEXXZ 004528e0 f   ToolkitPro1501vc60S:XTPEdit.obj
 0001:00051910       ?OnUpdateEditSelectAll@CXTPEdit@@IAEXPAVCCmdUI@@@Z 00452910 f   ToolkitPro1501vc60S:XTPEdit.obj
 0001:00051930       ?CanPaste@CXTPEdit@@UAEHXZ 00452930 f   ToolkitPro1501vc60S:XTPEdit.obj
 0001:00051970       ?HasSelection@CXTPEdit@@QBEHXZ 00452970 f   ToolkitPro1501vc60S:XTPEdit.obj
 0001:000519a0       ?IsPatternValid@CXTPEdit@@QAEHXZ 004529a0 f   ToolkitPro1501vc60S:XTPEdit.obj
 0001:00051c80       ??1_bstr_t@@QAE@XZ         00452c80 f i ToolkitPro1501vc60S:XTPEdit.obj
 0001:00051c80       ?_Free@_bstr_t@@AAEXXZ     00452c80 f i ToolkitPro1501vc60S:XTPEdit.obj
 0001:00051cd0       ??0Data_t@_bstr_t@@QAE@PBG@Z 00452cd0 f i ToolkitPro1501vc60S:XTPEdit.obj
 0001:00051d10       ?OnPaint@CXTPEdit@@IAEXXZ  00452d10 f   ToolkitPro1501vc60S:XTPEdit.obj
 0001:000520c0       ?OnInitMenuPopup@CXTPEdit@@IAEXPAVCMenu@@IH@Z 004530c0 f   ToolkitPro1501vc60S:XTPEdit.obj
 0001:00052190       ?Initialize@CXTPEdit@@UAE_NPAVCWnd@@@Z 00453190 f   ToolkitPro1501vc60S:XTPEdit.obj
 0001:000521d0       ?SetTheme@CXTPEdit@@QAEXW4XTPControlTheme@@@Z 004531d0 f   ToolkitPro1501vc60S:XTPEdit.obj
 0001:00052200       ?RefreshMetrics@CXTPEdit@@QAEXXZ 00453200 f   ToolkitPro1501vc60S:XTPEdit.obj
 0001:00052370       ?OnNcPaint@CXTPEdit@@IAEXXZ 00453370 f   ToolkitPro1501vc60S:XTPEdit.obj
 0001:000524b0       ?FillSolidRect@CXTPComboBox@@IAEXPAUHDC__@@HHHHPAUHBRUSH__@@@Z 004534b0 f   ToolkitPro1501vc60S:XTPEdit.obj
 0001:000524b0       ?FillSolidRect@CXTPEdit@@AAEXPAUHDC__@@HHHHPAUHBRUSH__@@@Z 004534b0 f   ToolkitPro1501vc60S:XTPEdit.obj
 0001:00052500       ?DrawFrame@CXTPComboBox@@IAEXPAUHDC__@@PAUtagRECT@@HPAUHBRUSH__@@@Z 00453500 f   ToolkitPro1501vc60S:XTPEdit.obj
 0001:00052500       ?DrawFrame@CXTPEdit@@AAEXPAUHDC__@@PAUtagRECT@@HPAUHBRUSH__@@@Z 00453500 f   ToolkitPro1501vc60S:XTPEdit.obj
 0001:00052590       ?DrawNcBorders@CXTPEdit@@MAEXPAVCDC@@VCRect@@@Z 00453590 f   ToolkitPro1501vc60S:XTPEdit.obj
 0001:00052830       ?OnNcCalcSize@CXTPEdit@@IAEXHPAUtagNCCALCSIZE_PARAMS@@@Z 00453830 f   ToolkitPro1501vc60S:XTPEdit.obj
 0001:00052870       ?OnMouseLeave@CXTPEdit@@IAEXXZ 00453870 f   ToolkitPro1501vc60S:XTPEdit.obj
 0001:00052880       ?OnMouseMove@CXTPEdit@@IAEXIVCPoint@@@Z 00453880 f   ToolkitPro1501vc60S:XTPEdit.obj
 0001:00052910       ?OnKillFocus@CXTPEdit@@IAEXPAVCWnd@@@Z 00453910 f   ToolkitPro1501vc60S:XTPEdit.obj
 0001:00052930       ?OnSetFocus@CXTPEdit@@IAEXPAVCWnd@@@Z 00453930 f   ToolkitPro1501vc60S:XTPEdit.obj
 0001:00052a30       ?RedrawEdit@CXTPEdit@@AAEXXZ 00453a30 f   ToolkitPro1501vc60S:XTPEdit.obj
 0001:00052a50       ?RedrawFocusedFrame@CXTPEdit@@IAEXXZ 00453a50 f   ToolkitPro1501vc60S:XTPEdit.obj
 0001:00052a80       ?GetClientBrush@CXTPEdit@@AAEPAUHBRUSH__@@PAVCDC@@@Z 00453a80 f   ToolkitPro1501vc60S:XTPEdit.obj
 0001:00052af0       ?OnChange@CXTPEdit@@IAEHXZ 00453af0 f   ToolkitPro1501vc60S:XTPEdit.obj
 0001:00052b10       ?AdjustBuddyRect@CXTPEdit@@QAEXPAVCWnd@@AAVCRect@@H@Z 00453b10 f   ToolkitPro1501vc60S:XTPEdit.obj
 0001:00052be0       ?DrawBuddyBorders@CXTPEdit@@QAEXPAVCWnd@@PAVCDC@@VCRect@@H@Z 00453be0 f   ToolkitPro1501vc60S:XTPEdit.obj
 0001:00052db0       ?OnSysColorChange@CXTPEdit@@IAEXXZ 00453db0 f   ToolkitPro1501vc60S:XTPEdit.obj
 0001:00052df0       ?CreateInstance@?$_com_ptr_t@V?$_com_IIID@UIRegExp@XTPREGEXP@@$1?_GUID_3f4daca0_160d_11d2_a8e9_00104b365c9f@@3U__s_GUID@@A@@@@QAEJABU_GUID@@PAUIUnknown@@K@Z 00453df0 f i ToolkitPro1501vc60S:XTPEdit.obj
 0001:00052e80       ??4?$_com_ptr_t@V?$_com_IIID@UIMatchCollection@XTPREGEXP@@$1?_GUID_3f4daca2_160d_11d2_a8e9_00104b365c9f@@3U__s_GUID@@A@@@@QAEAAV0@H@Z 00453e80 f i ToolkitPro1501vc60S:XTPEdit.obj
 0001:00052eb0       ??C?$_com_ptr_t@V?$_com_IIID@UIMatch@XTPREGEXP@@$1?_GUID_3f4daca1_160d_11d2_a8e9_00104b365c9f@@3U__s_GUID@@A@@@@QBEPAUIMatch@XTPREGEXP@@XZ 00453eb0 f i ToolkitPro1501vc60S:XTPEdit.obj
 0001:00052eb0       ??C?$_com_ptr_t@V?$_com_IIID@UIMatchCollection@XTPREGEXP@@$1?_GUID_3f4daca2_160d_11d2_a8e9_00104b365c9f@@3U__s_GUID@@A@@@@QBEPAUIMatchCollection@XTPREGEXP@@XZ 00453eb0 f i ToolkitPro1501vc60S:XTPEdit.obj
 0001:00052eb0       ??C?$_com_ptr_t@V?$_com_IIID@UIRegExp@XTPREGEXP@@$1?_GUID_3f4daca0_160d_11d2_a8e9_00104b365c9f@@3U__s_GUID@@A@@@@QBEPAUIRegExp@XTPREGEXP@@XZ 00453eb0 f i ToolkitPro1501vc60S:XTPEdit.obj
 0001:00052ed0       ??8?$_com_ptr_t@V?$_com_IIID@UIMatchCollection@XTPREGEXP@@$1?_GUID_3f4daca2_160d_11d2_a8e9_00104b365c9f@@3U__s_GUID@@A@@@@QAE_NH@Z 00453ed0 f i ToolkitPro1501vc60S:XTPEdit.obj
 0001:00052ed0       ??8?$_com_ptr_t@V?$_com_IIID@UIRegExp@XTPREGEXP@@$1?_GUID_3f4daca0_160d_11d2_a8e9_00104b365c9f@@3U__s_GUID@@A@@@@QAE_NH@Z 00453ed0 f i ToolkitPro1501vc60S:XTPEdit.obj
 0001:00052ed0       ??8?$_com_ptr_t@V?$_com_IIID@UIMatch@XTPREGEXP@@$1?_GUID_3f4daca1_160d_11d2_a8e9_00104b365c9f@@3U__s_GUID@@A@@@@QAE_NH@Z 00453ed0 f i ToolkitPro1501vc60S:XTPEdit.obj
 0001:00052f00       ?MaskCut@?$CXTPMaskEditT@VCEdit@@@@QAEHXZ 00453f00 f i ToolkitPro1501vc60S:XTPEdit.obj
 0001:00053040       ?MaskCopy@?$CXTPMaskEditT@VCEdit@@@@QAEHXZ 00454040 f i ToolkitPro1501vc60S:XTPEdit.obj
 0001:00053200       ?MaskPaste@?$CXTPMaskEditT@VCEdit@@@@QAEHXZ 00454200 f i ToolkitPro1501vc60S:XTPEdit.obj
 0001:000533e0       ?MaskClear@?$CXTPMaskEditT@VCEdit@@@@QAEHXZ 004543e0 f i ToolkitPro1501vc60S:XTPEdit.obj
 0001:00053550       ?MaskUndo@?$CXTPMaskEditT@VCEdit@@@@QAEHXZ 00454550 f i ToolkitPro1501vc60S:XTPEdit.obj
 0001:00053610       ?SetEditMask@?$CXTPMaskEditT@VCEdit@@@@UAEHPBD00@Z 00454610 f i ToolkitPro1501vc60S:XTPEdit.obj
 0001:000536d0       ?CheckChar@?$CXTPMaskEditT@VCEdit@@@@UAEHAADH@Z 004546d0 f i ToolkitPro1501vc60S:XTPEdit.obj
 0001:00053760       ?ProcessMask@?$CXTPMaskEditT@VCEdit@@@@UAEHAADH@Z 00454760 f i ToolkitPro1501vc60S:XTPEdit.obj
 0001:00053a10       ?PreTranslateMessage@?$CXTPMaskEditT@VCEdit@@@@UAEHPAUtagMSG@@@Z 00454a10 f i ToolkitPro1501vc60S:XTPEdit.obj
 0001:00053dc0       ?OnKeyDown@?$CXTPMaskEditT@VCEdit@@@@IAEXIII@Z 00454dc0 f i ToolkitPro1501vc60S:XTPEdit.obj
 0001:000542c0       ?OnChar@?$CXTPMaskEditT@VCEdit@@@@IAEXIII@Z 004552c0 f i ToolkitPro1501vc60S:XTPEdit.obj
 0001:00054500       ?IsPrintChar@?$CXTPMaskEditT@VCEdit@@@@MAEHD@Z 00455500 f i ToolkitPro1501vc60S:XTPEdit.obj
 0001:00054540       ?IsAlphaChar@?$CXTPMaskEditT@VCEdit@@@@MAEHD@Z 00455540 f i ToolkitPro1501vc60S:XTPEdit.obj
 0001:000545a0       ?NotifyPosNotInRange@?$CXTPMaskEditT@VCEdit@@@@MAEXXZ 004555a0 f i ToolkitPro1501vc60S:XTPEdit.obj
 0001:000545b0       ?NotifyInvalidCharacter@?$CXTPMaskEditT@VCEdit@@@@MAEXDD@Z 004555b0 f i ToolkitPro1501vc60S:XTPEdit.obj
 0001:000545c0       ?OnCommand@?$CXTPMaskEditT@VCEdit@@@@MAEHIJ@Z 004555c0 f i ToolkitPro1501vc60S:XTPEdit.obj
 0001:000548c0       ??_G?$CXTPMaskEditT@VCEdit@@@@UAEPAXI@Z 004558c0 f i ToolkitPro1501vc60S:XTPEdit.obj
 0001:000548c0       ??_E?$CXTPMaskEditT@VCEdit@@@@UAEPAXI@Z 004558c0 f i ToolkitPro1501vc60S:XTPEdit.obj
 0001:000548e0       ??4?$_com_ptr_t@V?$_com_IIID@UIMatchCollection@XTPREGEXP@@$1?_GUID_3f4daca2_160d_11d2_a8e9_00104b365c9f@@3U__s_GUID@@A@@@@QAEAAV0@PAUIMatchCollection@XTPREGEXP@@@Z 004558e0 f i ToolkitPro1501vc60S:XTPEdit.obj
 0001:00054910       ??1?$_com_ptr_t@V?$_com_IIID@UIMatch@XTPREGEXP@@$1?_GUID_3f4daca1_160d_11d2_a8e9_00104b365c9f@@3U__s_GUID@@A@@@@QAE@XZ 00455910 f i ToolkitPro1501vc60S:XTPEdit.obj
 0001:00054910       ?_Release@?$_com_ptr_t@V?$_com_IIID@UIMatch@XTPREGEXP@@$1?_GUID_3f4daca1_160d_11d2_a8e9_00104b365c9f@@3U__s_GUID@@A@@@@AAEXXZ 00455910 f i ToolkitPro1501vc60S:XTPEdit.obj
 0001:00054910       ??1?$_com_ptr_t@V?$_com_IIID@UIRegExp@XTPREGEXP@@$1?_GUID_3f4daca0_160d_11d2_a8e9_00104b365c9f@@3U__s_GUID@@A@@@@QAE@XZ 00455910 f i ToolkitPro1501vc60S:XTPEdit.obj
 0001:00054920       ?CanUseMask@?$CXTPMaskEditT@VCEdit@@@@QBEHXZ 00455920 f i ToolkitPro1501vc60S:XTPEdit.obj
 0001:00054950       ?MaskReplaceSel@?$CXTPMaskEditT@VCEdit@@@@QAEXPBD@Z 00455950 f i ToolkitPro1501vc60S:XTPEdit.obj
 0001:00054a70       ?MaskDeleteSel@?$CXTPMaskEditT@VCEdit@@@@QAEXXZ 00455a70 f i ToolkitPro1501vc60S:XTPEdit.obj
 0001:00054c10       ?SetMaskedText@?$CXTPMaskEditT@VCEdit@@@@QAEXPBDHH@Z 00455c10 f i ToolkitPro1501vc60S:XTPEdit.obj
 0001:00054eb0       ?ConvertUnicodeAlpha@?$CXTPMaskEditT@VCEdit@@@@QBEDDH@Z 00455eb0 f i ToolkitPro1501vc60S:XTPEdit.obj
 0001:00054f30       ?GetMaskedText@?$CXTPMaskEditT@VCEdit@@@@QBE?AVCString@@HH@Z 00455f30 f i ToolkitPro1501vc60S:XTPEdit.obj
 0001:00055000       ?ProcessChar@?$CXTPMaskEditT@VCEdit@@@@IAEXD@Z 00456000 f i ToolkitPro1501vc60S:XTPEdit.obj
 0001:00055140       ?CorrectPosition@?$CXTPMaskEditT@VCEdit@@@@IAEHAAHH@Z 00456140 f i ToolkitPro1501vc60S:XTPEdit.obj
 0001:00055220       ?GetMaskState@?$CXTPMaskEditT@VCEdit@@@@IAEXH@Z 00456220 f i ToolkitPro1501vc60S:XTPEdit.obj
 0001:00055360       ?MaskGetSel@?$CXTPMaskEditT@VCEdit@@@@IAEXXZ 00456360 f i ToolkitPro1501vc60S:XTPEdit.obj
 0001:00055380       ?SetMaskState@?$CXTPMaskEditT@VCEdit@@@@IAEXH@Z 00456380 f i ToolkitPro1501vc60S:XTPEdit.obj
 0001:000554d0       ?InsertCharAt@?$CXTPMaskEditT@VCEdit@@@@QAEXHD@Z 004564d0 f i ToolkitPro1501vc60S:XTPEdit.obj
 0001:000556b0       ?IsPromptPos@?$CXTPMaskEditT@VCEdit@@@@IBEHABVCString@@H@Z 004566b0 f i ToolkitPro1501vc60S:XTPEdit.obj
 0001:000556e0       ?CorrectWindowText@?$CXTPMaskEditT@VCEdit@@@@IAEXXZ 004566e0 f i ToolkitPro1501vc60S:XTPEdit.obj
 0001:00055780       ??4?$_com_ptr_t@V?$_com_IIID@UIMatchCollection@XTPREGEXP@@$1?_GUID_3f4daca2_160d_11d2_a8e9_00104b365c9f@@3U__s_GUID@@A@@@@QAEAAV0@ABQAUIDispatch@@@Z 00456780 f i ToolkitPro1501vc60S:XTPEdit.obj
 0001:00055800       ??0?$_com_ptr_t@V?$_com_IIID@UIMatch@XTPREGEXP@@$1?_GUID_3f4daca1_160d_11d2_a8e9_00104b365c9f@@3U__s_GUID@@A@@@@QAE@ABQAUIDispatch@@@Z 00456800 f i ToolkitPro1501vc60S:XTPEdit.obj
 0001:000558c0       ?CreateObject@CXTThemeManagerStyleFactory@@SGPAVCObject@@XZ 004568c0 f   ToolkitPro1501vc60S:XTThemeManager.obj
 0001:00055920       ?GetRuntimeClass@CXTThemeManagerStyleFactory@@UBEPAUCRuntimeClass@@XZ 00456920 f   ToolkitPro1501vc60S:XTThemeManager.obj
 0001:00055930       ??0CXTThemeManagerStyleFactory@@QAE@XZ 00456930 f   ToolkitPro1501vc60S:XTThemeManager.obj
 0001:00055990       ??_ECXTThemeManagerStyleFactory@@UAEPAXI@Z 00456990 f i ToolkitPro1501vc60S:XTThemeManager.obj
 0001:00055990       ??_GCXTThemeManagerStyleFactory@@UAEPAXI@Z 00456990 f i ToolkitPro1501vc60S:XTThemeManager.obj
 0001:000559b0       ??1CXTThemeManagerStyleFactory@@UAE@XZ 004569b0 f   ToolkitPro1501vc60S:XTThemeManager.obj
 0001:00055a20       ?SetTheme@CXTThemeManagerStyleFactory@@QAEXPAVCXTThemeManagerStyle@@@Z 00456a20 f   ToolkitPro1501vc60S:XTThemeManager.obj
 0001:00055a70       ?SetTheme@CXTThemeManagerStyleFactory@@QAEXW4XTThemeStyle@@@Z 00456a70 f   ToolkitPro1501vc60S:XTThemeManager.obj
 0001:00055a90       ?RefreshMetrics@CXTThemeManagerStyleFactory@@UAEXXZ 00456a90 f   ToolkitPro1501vc60S:XTThemeManager.obj
 0001:00055aa0       ??0CXTThemeManager@@QAE@XZ 00456aa0 f   ToolkitPro1501vc60S:XTThemeManager.obj
 0001:00055b10       ??_GCXTThemeManager@@UAEPAXI@Z 00456b10 f i ToolkitPro1501vc60S:XTThemeManager.obj
 0001:00055b10       ??_ECXTThemeManager@@UAEPAXI@Z 00456b10 f i ToolkitPro1501vc60S:XTThemeManager.obj
 0001:00055b30       ??1CXTThemeManager@@UAE@XZ 00456b30 f   ToolkitPro1501vc60S:XTThemeManager.obj
 0001:00055bd0       ?SetTheme@CXTThemeManager@@QAEXW4XTThemeStyle@@@Z 00456bd0 f   ToolkitPro1501vc60S:XTThemeManager.obj
 0001:00055c40       ?XTThemeManager@@YAPAVCXTThemeManager@@XZ 00456c40 f   ToolkitPro1501vc60S:XTThemeManager.obj
 0001:00055c50       ?CreateObject@?$CProcessLocal@VCXTThemeManager@@@@SGPAVCNoTrackObject@@XZ 00456c50 f i ToolkitPro1501vc60S:XTThemeManager.obj
 0001:00055cb0       ??0CXTPDockingPane@@IAE@PAVCXTPDockingPaneLayout@@@Z 00456cb0 f   ToolkitPro1501vc60S:XTPDockingPane.obj
 0001:00055da0       ?SetDockingSite@CXTPDockingPaneBase@@MAEXPAVCWnd@@@Z 00456da0 f i ToolkitPro1501vc60S:XTPDockingPane.obj
 0001:00055db0       ?IsCaptionButtonVisible@CXTPDockingPaneBase@@MAEHPAVCXTPDockingPaneCaptionButton@@@Z 00456db0 f i ToolkitPro1501vc60S:XTPDockingPane.obj
 0001:00055db0       ?Lock@CEmptySyncObject@CXTPNotifyConnection@@UAEHK@Z 00456db0 f i ToolkitPro1501vc60S:XTPDockingPane.obj
 0001:00055dc0       ??_GCXTPDockingPane@@MAEPAXI@Z 00456dc0 f i ToolkitPro1501vc60S:XTPDockingPane.obj
 0001:00055dc0       ??_ECXTPDockingPane@@MAEPAXI@Z 00456dc0 f i ToolkitPro1501vc60S:XTPDockingPane.obj
 0001:00055de0       ??1CXTPDockingPane@@MAE@XZ 00456de0 f   ToolkitPro1501vc60S:XTPDockingPane.obj
 0001:00055e90       ?SetID@CXTPDockingPane@@IAEXH@Z 00456e90 f   ToolkitPro1501vc60S:XTPDockingPane.obj
 0001:00055f00       ?SetWindowRect@CXTPDockingPane@@IAEXVCRect@@@Z 00456f00 f   ToolkitPro1501vc60S:XTPDockingPane.obj
 0001:00055f40       ?GetEnabled@CXTPDockingPane@@QBE?AW4XTPDockingPaneEnableOptions@@XZ 00456f40 f   ToolkitPro1501vc60S:XTPDockingPane.obj
 0001:00055f60       ?OnSizeParent@CXTPDockingPane@@MAEXPAVCWnd@@VCRect@@PAX@Z 00456f60 f   ToolkitPro1501vc60S:XTPDockingPane.obj
 0001:00056030       ?SetFocus@CXTPDockingPane@@UAEXXZ 00457030 f   ToolkitPro1501vc60S:XTPDockingPane.obj
 0001:00056060       ?IsFocus@CXTPDockingPane@@QBEHXZ 00457060 f   ToolkitPro1501vc60S:XTPDockingPane.obj
 0001:00056090       ?SetParentContainer@CXTPDockingPane@@MAEXPAVCXTPDockingPaneBase@@@Z 00457090 f   ToolkitPro1501vc60S:XTPDockingPane.obj
 0001:000560f0       ?ShowWindow@CXTPDockingPane@@IAEXH@Z 004570f0 f   ToolkitPro1501vc60S:XTPDockingPane.obj
 0001:00056130       ?Close@CXTPDockingPane@@QAEXXZ 00457130 f   ToolkitPro1501vc60S:XTPDockingPane.obj
 0001:00056150       ?Hide@CXTPDockingPane@@QAEXXZ 00457150 f   ToolkitPro1501vc60S:XTPDockingPane.obj
 0001:00056180       ?Select@CXTPDockingPane@@QAEXXZ 00457180 f   ToolkitPro1501vc60S:XTPDockingPane.obj
 0001:000561a0       ?GetDockingSite@CXTPDockingPane@@UBEPAVCWnd@@XZ 004571a0 f   ToolkitPro1501vc60S:XTPDockingPane.obj
 0001:000561b0       ?Copy@CXTPDockingPane@@EAEXPAVCXTPDockingPaneBase@@PAV?$CMap@PAVCXTPDockingPaneBase@@PAV1@PAV1@PAV1@@@K@Z 004571b0 f   ToolkitPro1501vc60S:XTPDockingPane.obj
 0001:000561e0       ?Copy@CXTPDockingPane@@MAEXPAV1@@Z 004571e0 f   ToolkitPro1501vc60S:XTPDockingPane.obj
 0001:00056290       ?IsValid@CXTPDockingPane@@QBEHXZ 00457290 f   ToolkitPro1501vc60S:XTPDockingPane.obj
 0001:000562a0       ?Attach@CXTPDockingPane@@QAEXPAVCWnd@@@Z 004572a0 f   ToolkitPro1501vc60S:XTPDockingPane.obj
 0001:00056320       ?GetTitle@CXTPDockingPane@@UBE?AVCString@@XZ 00457320 f   ToolkitPro1501vc60S:XTPDockingPane.obj
 0001:00056340       ?GetCaption@CXTPPropertyPage@@QBE?AVCString@@XZ 00457340 f   ToolkitPro1501vc60S:XTPDockingPane.obj
 0001:00056340       ?GetTitleToolTip@CXTPDockingPane@@UBE?AVCString@@XZ 00457340 f   ToolkitPro1501vc60S:XTPDockingPane.obj
 0001:00056370       ?GetTabCaption@CXTPDockingPane@@UBE?AVCString@@XZ 00457370 f   ToolkitPro1501vc60S:XTPDockingPane.obj
 0001:000563c0       ?SetTitle@CXTPDockingPane@@QAEXPBD@Z 004573c0 f   ToolkitPro1501vc60S:XTPDockingPane.obj
 0001:00056480       ?IsVisible@CXTPStatusBarPane@@QBEHXZ 00457480 f   ToolkitPro1501vc60S:XTPDockingPane.obj
 0001:00056480       ?IsClosed@CXTPDockingPane@@QBEHXZ 00457480 f   ToolkitPro1501vc60S:XTPDockingPane.obj
 0001:00056490       ?IsHidden@CXTPDockingPane@@UBEHXZ 00457490 f   ToolkitPro1501vc60S:XTPDockingPane.obj
 0001:000564a0       ?IsSelected@CXTPDockingPane@@QBEHXZ 004574a0 f   ToolkitPro1501vc60S:XTPDockingPane.obj
 0001:000564c0       ?IsFloating@CXTPDockingPane@@QBEHXZ 004574c0 f   ToolkitPro1501vc60S:XTPDockingPane.obj
 0001:00056510       ?GetIcon@CXTPDockingPane@@UBEPAVCXTPImageManagerIcon@@H@Z 00457510 f   ToolkitPro1501vc60S:XTPDockingPane.obj
 0001:00056540       ?GetItemColor@CXTPDockingPane@@UBEKXZ 00457540 f   ToolkitPro1501vc60S:XTPDockingPane.obj
 0001:00056580       ?GetMinMaxInfo@CXTPDockingPane@@UBEXPAUtagMINMAXINFO@@@Z 00457580 f   ToolkitPro1501vc60S:XTPDockingPane.obj
 0001:000565c0       ?GetOptions@CXTPDockingPane@@QBEKXZ 004575c0 f   ToolkitPro1501vc60S:XTPDockingPane.obj
 0001:000565e0       ?GetAccessible@CXTPDockingPane@@MAEPAVCCmdTarget@@XZ 004575e0 f   ToolkitPro1501vc60S:XTPDockingPane.obj
 0001:000565f0       ?GetAccessibleParent@CXTPDockingPane@@MAEJPAPAUIDispatch@@@Z 004575f0 f   ToolkitPro1501vc60S:XTPDockingPane.obj
 0001:00056620       ?GetAccessibleChildCount@CXTPDockingPane@@MAEJPAJ@Z 00457620 f   ToolkitPro1501vc60S:XTPDockingPane.obj
 0001:00056650       ?GetAccessibleChild@CXTPDockingPane@@MAEJUtagVARIANT@@PAPAUIDispatch@@@Z 00457650 f   ToolkitPro1501vc60S:XTPDockingPane.obj
 0001:00056690       ?GetAccessibleName@CXTPDockingPane@@MAEJUtagVARIANT@@PAPAG@Z 00457690 f   ToolkitPro1501vc60S:XTPDockingPane.obj
 0001:00056720       ?GetAccessibleDescription@CXTPDockingPane@@MAEJUtagVARIANT@@PAPAG@Z 00457720 f   ToolkitPro1501vc60S:XTPDockingPane.obj
 0001:000567b0       ?GetAccessibleRole@CXTPDockingPane@@MAEJUtagVARIANT@@PAU2@@Z 004577b0 f   ToolkitPro1501vc60S:XTPDockingPane.obj
 0001:000567f0       ?AccessibleSelect@CXTPDockingPane@@MAEJJUtagVARIANT@@@Z 004577f0 f   ToolkitPro1501vc60S:XTPDockingPane.obj
 0001:00056820       ?GetAccessibleState@CXTPDockingPane@@MAEJUtagVARIANT@@PAU2@@Z 00457820 f   ToolkitPro1501vc60S:XTPDockingPane.obj
 0001:00056880       ?GetAccessibleDefaultAction@CXTPDockingPane@@MAEJUtagVARIANT@@PAPAG@Z 00457880 f   ToolkitPro1501vc60S:XTPDockingPane.obj
 0001:000568b0       ?AccessibleDoDefaultAction@CXTPDockingPane@@MAEJUtagVARIANT@@@Z 004578b0 f   ToolkitPro1501vc60S:XTPDockingPane.obj
 0001:000568e0       ?AccessibleLocation@CXTPDockingPane@@MAEJPAJ000UtagVARIANT@@@Z 004578e0 f   ToolkitPro1501vc60S:XTPDockingPane.obj
 0001:00056a00       ?AccessibleHitTest@CXTPDockingPane@@MAEJJJPAUtagVARIANT@@@Z 00457a00 f   ToolkitPro1501vc60S:XTPDockingPane.obj
 0001:00056a20       ?GetInterfaceMap@CXTPDockingPane@@MBEPBUAFX_INTERFACEMAP@@XZ 00457a20 f   ToolkitPro1501vc60S:XTPDockingPane.obj
 0001:00056a30       ??_ECXTPDockingPane@@OBM@AEPAXI@Z 00457a30 f i ToolkitPro1501vc60S:XTPDockingPane.obj
 0001:00056a40       ??_ECXTPDockingPane@@OFE@AEPAXI@Z 00457a40 f i ToolkitPro1501vc60S:XTPDockingPane.obj
 0001:00056a50       ?GetRuntimeClass@CXTPCustomizeSheet@@UBEPAUCRuntimeClass@@XZ 00457a50 f   ToolkitPro1501vc60S:XTPCustomizeSheet.obj
 0001:00056a60       ??0CXTPCustomizeSheet@@QAE@PAVCXTPCommandBars@@I@Z 00457a60 f   ToolkitPro1501vc60S:XTPCustomizeSheet.obj
 0001:00056c80       ??_GCXTPCustomizeSheet@@UAEPAXI@Z 00457c80 f i ToolkitPro1501vc60S:XTPCustomizeSheet.obj
 0001:00056c80       ??_ECXTPCustomizeSheet@@UAEPAXI@Z 00457c80 f i ToolkitPro1501vc60S:XTPCustomizeSheet.obj
 0001:00056ca0       ??1CXTPCustomizeSheet@@UAE@XZ 00457ca0 f   ToolkitPro1501vc60S:XTPCustomizeSheet.obj
 0001:00056d30       ?CreateContextMenu@CXTPCustomizeSheet@@AAEXXZ 00457d30 f   ToolkitPro1501vc60S:XTPCustomizeSheet.obj
 0001:00057090       ?GetCustomizeMinWidth@CXTPControlEdit@@MBEHXZ 00458090 f i ToolkitPro1501vc60S:XTPCustomizeSheet.obj
 0001:000570a0       ?OnThemeChanged@CXTPControlEdit@@MAEXXZ 004580a0 f i ToolkitPro1501vc60S:XTPCustomizeSheet.obj
 0001:000570b0       ?OnExecute@CCustomizeButton@CXTPCustomizeSheet@@EAEXXZ 004580b0 f i ToolkitPro1501vc60S:XTPCustomizeSheet.obj
 0001:00057110       ?OnSetSelected@CCustomizeEdit@CXTPCustomizeSheet@@EAEHH@Z 00458110 f i ToolkitPro1501vc60S:XTPCustomizeSheet.obj
 0001:00057190       ?OnExecute@CCustomizeEdit@CXTPCustomizeSheet@@EAEXXZ 00458190 f i ToolkitPro1501vc60S:XTPCustomizeSheet.obj
 0001:000571f0       ??_ECCustomizeEdit@CXTPCustomizeSheet@@UAEPAXI@Z 004581f0 f i ToolkitPro1501vc60S:XTPCustomizeSheet.obj
 0001:000571f0       ??_GCCustomizeEdit@CXTPCustomizeSheet@@UAEPAXI@Z 004581f0 f i ToolkitPro1501vc60S:XTPCustomizeSheet.obj
 0001:00057210       ??1CCustomizeEdit@CXTPCustomizeSheet@@UAE@XZ 00458210 f i ToolkitPro1501vc60S:XTPCustomizeSheet.obj
 0001:00057220       ?AddPage@CXTPCustomizeSheet@@QAEXPAVCXTPPropertyPage@@@Z 00458220 f   ToolkitPro1501vc60S:XTPCustomizeSheet.obj
 0001:00057250       ?GetMessageMap@CXTPCustomizeSheet@@MBEPBUAFX_MSGMAP@@XZ 00458250 f   ToolkitPro1501vc60S:XTPCustomizeSheet.obj
 0001:00057260       ?CreateClient@CXTPCustomizeSheet@@EAEHXZ 00458260 f   ToolkitPro1501vc60S:XTPCustomizeSheet.obj
 0001:00057270       ?OnInitDialog@CXTPCustomizeSheet@@MAEHXZ 00458270 f   ToolkitPro1501vc60S:XTPCustomizeSheet.obj
 0001:00057330       ?ContextMenu@CXTPCustomizeSheet@@QAEXVCPoint@@@Z 00458330 f   ToolkitPro1501vc60S:XTPCustomizeSheet.obj
 0001:00057380       ?DoModal@CXTPCustomizeSheet@@UAEHXZ 00458380 f   ToolkitPro1501vc60S:XTPCustomizeSheet.obj
 0001:00057690       ??0CXTPCustomizeHook@@QAE@PAVCXTPCustomizeSheet@@P81@AEHIJ@Z@Z 00458690 f i ToolkitPro1501vc60S:XTPCustomizeSheet.obj
 0001:000576b0       ??1CXTPCustomizeHook@@QAE@XZ 004586b0 f i ToolkitPro1501vc60S:XTPCustomizeSheet.obj
 0001:000576b0       ?Unhook@CXTPCustomizeHook@@QAEXXZ 004586b0 f i ToolkitPro1501vc60S:XTPCustomizeSheet.obj
 0001:000576d0       ??1CXTPCustomizeHooks@@QAE@XZ 004586d0 f i ToolkitPro1501vc60S:XTPCustomizeSheet.obj
 0001:00057740       ?MouseProc@CXTPCustomizeHooks@@SGJHIJ@Z 00458740 f i ToolkitPro1501vc60S:XTPCustomizeSheet.obj
 0001:00057790       ?KeyProc@CXTPCustomizeHooks@@SGJHIJ@Z 00458790 f i ToolkitPro1501vc60S:XTPCustomizeSheet.obj
 0001:000577e0       ?MessageProc@CXTPCustomizeHooks@@SGJHIJ@Z 004587e0 f i ToolkitPro1501vc60S:XTPCustomizeSheet.obj
 0001:00057830       ?FilterMouse@CXTPCustomizeSheet@@AAEHIJ@Z 00458830 f   ToolkitPro1501vc60S:XTPCustomizeSheet.obj
 0001:00057a50       ?FilterKey@CXTPCustomizeSheet@@AAEHIJ@Z 00458a50 f   ToolkitPro1501vc60S:XTPCustomizeSheet.obj
 0001:00057af0       ?FilterMessage@CXTPCustomizeSheet@@AAEHIJ@Z 00458af0 f   ToolkitPro1501vc60S:XTPCustomizeSheet.obj
 0001:00057b40       ?GetDragControl@CXTPCustomizeSheet@@QBEPAVCXTPControl@@XZ 00458b40 f   ToolkitPro1501vc60S:XTPCustomizeSheet.obj
 0001:00057b60       ?OnCustomizeDefaultStyle@CXTPCustomizeSheet@@IAEXXZ 00458b60 f   ToolkitPro1501vc60S:XTPCustomizeSheet.obj
 0001:00057b90       ?OnCustomizeImageAndText@CXTPCustomizeSheet@@IAEXXZ 00458b90 f   ToolkitPro1501vc60S:XTPCustomizeSheet.obj
 0001:00057bc0       ?OnCustomizeTextOnly@CXTPCustomizeSheet@@IAEXXZ 00458bc0 f   ToolkitPro1501vc60S:XTPCustomizeSheet.obj
 0001:00057bf0       ?OnCustomizeBeginGroup@CXTPCustomizeSheet@@IAEXXZ 00458bf0 f   ToolkitPro1501vc60S:XTPCustomizeSheet.obj
 0001:00057c20       ?OnCustomizeDelete@CXTPCustomizeSheet@@IAEXXZ 00458c20 f   ToolkitPro1501vc60S:XTPCustomizeSheet.obj
 0001:00057c60       ?OnCustomizeEditImage@CXTPCustomizeSheet@@IAEXXZ 00458c60 f   ToolkitPro1501vc60S:XTPCustomizeSheet.obj
 0001:00057ff0       ??1CDlgToolBar@CXTPImageEditorDlg@@UAE@XZ 00458ff0 f i ToolkitPro1501vc60S:XTPCustomizeSheet.obj
 0001:00058000       ??1CXTPImageEditorDlg@@UAE@XZ 00459000 f i ToolkitPro1501vc60S:XTPCustomizeSheet.obj
 0001:00058100       ?OnCustomizeCopyImage@CXTPCustomizeSheet@@IAEXXZ 00459100 f   ToolkitPro1501vc60S:XTPCustomizeSheet.obj
 0001:00058460       ?OnCustomizePasteImage@CXTPCustomizeSheet@@IAEXXZ 00459460 f   ToolkitPro1501vc60S:XTPCustomizeSheet.obj
 0001:00058680       ?OnCustomizeResetImage@CXTPCustomizeSheet@@IAEXXZ 00459680 f   ToolkitPro1501vc60S:XTPCustomizeSheet.obj
 0001:000586b0       ?OnCustomizeReset@CXTPCustomizeSheet@@IAEXXZ 004596b0 f   ToolkitPro1501vc60S:XTPCustomizeSheet.obj
 0001:000586d0       ?OnInitCommandsPopup@CXTPCustomizeSheet@@IAEXPAVCXTPPopupBar@@@Z 004596d0 f   ToolkitPro1501vc60S:XTPCustomizeSheet.obj
 0001:000587f0       ?OnCmdMsg@CXTPCustomizeSheet@@MAEHIHPAXPAUAFX_CMDHANDLERINFO@@@Z 004597f0 f   ToolkitPro1501vc60S:XTPCustomizeSheet.obj
 0001:00058870       ?OnCustomizeName@CXTPCustomizeSheet@@IAEJIJ@Z 00459870 f   ToolkitPro1501vc60S:XTPCustomizeSheet.obj
 0001:00058a60       ?IsAllowChangeStyle@CXTPCustomizeSheet@@ABEHPAVCXTPControl@@@Z 00459a60 f   ToolkitPro1501vc60S:XTPCustomizeSheet.obj
 0001:00058af0       ?OnUpdateCustomizeDefaultStyle@CXTPCustomizeSheet@@IAEXPAVCCmdUI@@@Z 00459af0 f   ToolkitPro1501vc60S:XTPCustomizeSheet.obj
 0001:00058b60       ?OnUpdateCustomizeImageAndText@CXTPCustomizeSheet@@IAEXPAVCCmdUI@@@Z 00459b60 f   ToolkitPro1501vc60S:XTPCustomizeSheet.obj
 0001:00058bb0       ?OnUpdateCustomizeTextOnly@CXTPCustomizeSheet@@IAEXPAVCCmdUI@@@Z 00459bb0 f   ToolkitPro1501vc60S:XTPCustomizeSheet.obj
 0001:00058c00       ?OnUpdateCustomizePasteImage@CXTPCustomizeSheet@@IAEXPAVCCmdUI@@@Z 00459c00 f   ToolkitPro1501vc60S:XTPCustomizeSheet.obj
 0001:00058c60       ?OnUpdateCustomizeCopyImage@CXTPCustomizeSheet@@IAEXPAVCCmdUI@@@Z 00459c60 f   ToolkitPro1501vc60S:XTPCustomizeSheet.obj
 0001:00058c60       ?OnUpdateCustomizeEditImage@CXTPCustomizeSheet@@IAEXPAVCCmdUI@@@Z 00459c60 f   ToolkitPro1501vc60S:XTPCustomizeSheet.obj
 0001:00058cf0       ?OnUpdateCustomizeResetImage@CXTPCustomizeSheet@@IAEXPAVCCmdUI@@@Z 00459cf0 f   ToolkitPro1501vc60S:XTPCustomizeSheet.obj
 0001:00058d20       ?OnUpdateCustomizeReset@CXTPCustomizeSheet@@IAEXPAVCCmdUI@@@Z 00459d20 f   ToolkitPro1501vc60S:XTPCustomizeSheet.obj
 0001:00058d70       ?OnUpdateCustomizeBeginGroup@CXTPCustomizeSheet@@IAEXPAVCCmdUI@@@Z 00459d70 f   ToolkitPro1501vc60S:XTPCustomizeSheet.obj
 0001:00058db0       ?OnUpdateCustomizeName@CXTPCustomizeSheet@@IAEXPAVCCmdUI@@@Z 00459db0 f   ToolkitPro1501vc60S:XTPCustomizeSheet.obj
 0001:00058ea0       ?OnGrabFocus@CXTPCustomizeSheet@@IAEXXZ 00459ea0 f   ToolkitPro1501vc60S:XTPCustomizeSheet.obj
 0001:00058eb0       ?PreTranslateMessage@CXTPCustomizeSheet@@MAEHPAUtagMSG@@@Z 00459eb0 f   ToolkitPro1501vc60S:XTPCustomizeSheet.obj
 0001:00058ec0       ?MessageBoxA@CXTPCustomizeSheet@@QAEHPBDI@Z 00459ec0 f   ToolkitPro1501vc60S:XTPCustomizeSheet.obj
 0001:00058fb0       ??1COleDataObject@@QAE@XZ  00459fb0 f i ToolkitPro1501vc60S:XTPCustomizeSheet.obj
 0001:00058fc0       ??_ECCustomizeEdit@CXTPCustomizeSheet@@WBM@AEPAXI@Z 00459fc0 f i ToolkitPro1501vc60S:XTPCustomizeSheet.obj
 0001:00058fd0       ??0CXTPGroupLine@@QAE@XZ   00459fd0 f   ToolkitPro1501vc60S:XTPCustomizeOptionsPage.obj
 0001:00059040       ??_GCXTPGroupLine@@UAEPAXI@Z 0045a040 f i ToolkitPro1501vc60S:XTPCustomizeOptionsPage.obj
 0001:00059040       ??_ECXTPGroupLine@@UAEPAXI@Z 0045a040 f i ToolkitPro1501vc60S:XTPCustomizeOptionsPage.obj
 0001:00059060       ??1CXTPGroupLine@@UAE@XZ   0045a060 f i ToolkitPro1501vc60S:XTPCustomizeOptionsPage.obj
 0001:000590b0       ?GetMessageMap@CXTPGroupLine@@MBEPBUAFX_MSGMAP@@XZ 0045a0b0 f   ToolkitPro1501vc60S:XTPCustomizeOptionsPage.obj
 0001:000590c0       ?OnPaint@CXTPGroupLine@@IAEXXZ 0045a0c0 f   ToolkitPro1501vc60S:XTPCustomizeOptionsPage.obj
 0001:00059380       ??0CXTPCustomizeOptionsPage@@QAE@PAVCXTPCustomizeSheet@@@Z 0045a380 f   ToolkitPro1501vc60S:XTPCustomizeOptionsPage.obj
 0001:00059460       ??_ECXTPCustomizeOptionsPage@@UAEPAXI@Z 0045a460 f i ToolkitPro1501vc60S:XTPCustomizeOptionsPage.obj
 0001:00059460       ??_GCXTPCustomizeOptionsPage@@UAEPAXI@Z 0045a460 f i ToolkitPro1501vc60S:XTPCustomizeOptionsPage.obj
 0001:00059480       ??1CXTPCustomizeOptionsPage@@UAE@XZ 0045a480 f   ToolkitPro1501vc60S:XTPCustomizeOptionsPage.obj
 0001:00059530       ?GetCommandBars@CXTPCustomizeOptionsPage@@QBEPAVCXTPCommandBars@@XZ 0045a530 f   ToolkitPro1501vc60S:XTPCustomizeOptionsPage.obj
 0001:00059550       ?DoDataExchange@CXTPCustomizeOptionsPage@@MAEXPAVCDataExchange@@@Z 0045a550 f   ToolkitPro1501vc60S:XTPCustomizeOptionsPage.obj
 0001:000595d0       ?GetMessageMap@CXTPCustomizeOptionsPage@@MBEPBUAFX_MSGMAP@@XZ 0045a5d0 f   ToolkitPro1501vc60S:XTPCustomizeOptionsPage.obj
 0001:000595e0       ?AddComboString@CXTPCustomizeOptionsPage@@IAEXI@Z 0045a5e0 f   ToolkitPro1501vc60S:XTPCustomizeOptionsPage.obj
 0001:00059660       ?OnInitDialog@CXTPCustomizeOptionsPage@@MAEHXZ 0045a660 f   ToolkitPro1501vc60S:XTPCustomizeOptionsPage.obj
 0001:000597e0       ?OnCheckFullMenus@CXTPCustomizeOptionsPage@@IAEXXZ 0045a7e0 f   ToolkitPro1501vc60S:XTPCustomizeOptionsPage.obj
 0001:00059820       ?OnAnimationChanged@CXTPCustomizeOptionsPage@@IAEXXZ 0045a820 f   ToolkitPro1501vc60S:XTPCustomizeOptionsPage.obj
 0001:00059850       ?OnCheckAfterdelay@CXTPCustomizeOptionsPage@@IAEXXZ 0045a850 f   ToolkitPro1501vc60S:XTPCustomizeOptionsPage.obj
 0001:00059870       ?OnCheckLargeicons@CXTPCustomizeOptionsPage@@IAEXXZ 0045a870 f   ToolkitPro1501vc60S:XTPCustomizeOptionsPage.obj
 0001:000598a0       ?OnCheckScreenttips@CXTPCustomizeOptionsPage@@IAEXXZ 0045a8a0 f   ToolkitPro1501vc60S:XTPCustomizeOptionsPage.obj
 0001:000598e0       ?OnCheckShortcuts@CXTPCustomizeOptionsPage@@IAEXXZ 0045a8e0 f   ToolkitPro1501vc60S:XTPCustomizeOptionsPage.obj
 0001:00059900       ?OnResetData@CXTPCustomizeOptionsPage@@IAEXXZ 0045a900 f   ToolkitPro1501vc60S:XTPCustomizeOptionsPage.obj
 0001:000599a0       ??_ECXTPCustomizeOptionsPage@@WIM@AEPAXI@Z 0045a9a0 f i ToolkitPro1501vc60S:XTPCustomizeOptionsPage.obj
 0001:000599b0       ??0XTP_COMMANDBARS_CATEGORYINFO@@QAE@PBDPAVCXTPCommandBars@@@Z 0045a9b0 f   ToolkitPro1501vc60S:XTPCustomizeCommandsPage.obj
 0001:00059a40       ??1XTP_COMMANDBARS_CATEGORYINFO@@QAE@XZ 0045aa40 f   ToolkitPro1501vc60S:XTPCustomizeCommandsPage.obj
 0001:00059a90       ?DrawItem@CXTPCustomizeCommandsListBox@@MAEXPAUtagDRAWITEMSTRUCT@@@Z 0045aa90 f   ToolkitPro1501vc60S:XTPCustomizeCommandsPage.obj
 0001:00059b10       ?GetMessageMap@CXTPCustomizeCommandsListBox@@MBEPBUAFX_MSGMAP@@XZ 0045ab10 f   ToolkitPro1501vc60S:XTPCustomizeCommandsPage.obj
 0001:00059b20       ?WindowProc@CXTPCustomizeCommandsListBox@@MAEJIIJ@Z 0045ab20 f   ToolkitPro1501vc60S:XTPCustomizeCommandsPage.obj
 0001:00059ce0       ?OnSetFocus@CXTPCustomizeCommandsListBox@@IAEXPAVCWnd@@@Z 0045ace0 f   ToolkitPro1501vc60S:XTPCustomizeCommandsPage.obj
 0001:00059d30       ?OnLButtonDown@CXTPCustomizeCommandsListBox@@IAEXIVCPoint@@@Z 0045ad30 f   ToolkitPro1501vc60S:XTPCustomizeCommandsPage.obj
 0001:00059e80       ?CreateObject@CXTPCustomizeCommandsPage@@SGPAVCObject@@XZ 0045ae80 f   ToolkitPro1501vc60S:XTPCustomizeCommandsPage.obj
 0001:00059ee0       ?GetRuntimeClass@CXTPCustomizeCommandsPage@@UBEPAUCRuntimeClass@@XZ 0045aee0 f   ToolkitPro1501vc60S:XTPCustomizeCommandsPage.obj
 0001:00059ef0       ??0CXTPCustomizeCommandsPage@@QAE@PAVCXTPCustomizeSheet@@@Z 0045aef0 f   ToolkitPro1501vc60S:XTPCustomizeCommandsPage.obj
 0001:00059fb0       ??_ECXTPCustomizeCommandsPage@@UAEPAXI@Z 0045afb0 f i ToolkitPro1501vc60S:XTPCustomizeCommandsPage.obj
 0001:00059fb0       ??_GCXTPCustomizeCommandsPage@@UAEPAXI@Z 0045afb0 f i ToolkitPro1501vc60S:XTPCustomizeCommandsPage.obj
 0001:00059fd0       ??1CXTPCustomizeCommandsPage@@UAE@XZ 0045afd0 f   ToolkitPro1501vc60S:XTPCustomizeCommandsPage.obj
 0001:0005a0b0       ?DoDataExchange@CXTPCustomizeCommandsPage@@MAEXPAVCDataExchange@@@Z 0045b0b0 f   ToolkitPro1501vc60S:XTPCustomizeCommandsPage.obj
 0001:0005a0f0       ?FindCategory@CXTPCustomizeCommandsPage@@QBEPAUXTP_COMMANDBARS_CATEGORYINFO@@PBD@Z 0045b0f0 f   ToolkitPro1501vc60S:XTPCustomizeCommandsPage.obj
 0001:0005a140       ?GetCategoryInfo@CXTPCustomizeCommandsPage@@QBEPAUXTP_COMMANDBARS_CATEGORYINFO@@H@Z 0045b140 f   ToolkitPro1501vc60S:XTPCustomizeCommandsPage.obj
 0001:0005a170       ?AddCategory@CXTPCustomizeCommandsPage@@QAEHPBDPAVCMenu@@H@Z 0045b170 f   ToolkitPro1501vc60S:XTPCustomizeCommandsPage.obj
 0001:0005a230       ?AddCategories@CXTPCustomizeCommandsPage@@QAEHIH@Z 0045b230 f   ToolkitPro1501vc60S:XTPCustomizeCommandsPage.obj
 0001:0005a3b0       ?InsertBuiltInMenus@CXTPCustomizeCommandsPage@@QAEHIIH@Z 0045b3b0 f   ToolkitPro1501vc60S:XTPCustomizeCommandsPage.obj
 0001:0005a580       ?InsertNewMenuCategory@CXTPCustomizeCommandsPage@@QAEXIH@Z 0045b580 f   ToolkitPro1501vc60S:XTPCustomizeCommandsPage.obj
 0001:0005a6d0       ?InsertCategory@CXTPCustomizeCommandsPage@@QAEPAVCXTPControls@@PBDH@Z 0045b6d0 f   ToolkitPro1501vc60S:XTPCustomizeCommandsPage.obj
 0001:0005a920       ?InsertAllCommandsCategory@CXTPCustomizeCommandsPage@@QAEXIHH@Z 0045b920 f   ToolkitPro1501vc60S:XTPCustomizeCommandsPage.obj
 0001:0005abe0       ?GetMessageMap@CXTPCustomizeCommandsPage@@MBEPBUAFX_MSGMAP@@XZ 0045bbe0 f   ToolkitPro1501vc60S:XTPCustomizeCommandsPage.obj
 0001:0005abf0       ?OnInitDialog@CXTPCustomizeCommandsPage@@MAEHXZ 0045bbf0 f   ToolkitPro1501vc60S:XTPCustomizeCommandsPage.obj
 0001:0005adc0       ?OnDestroy@CXTPCustomizeCommandsPage@@IAEXXZ 0045bdc0 f   ToolkitPro1501vc60S:XTPCustomizeCommandsPage.obj
 0001:0005adf0       ?OnCategoriesSelectionChanged@CXTPCustomizeCommandsPage@@IAEXXZ 0045bdf0 f   ToolkitPro1501vc60S:XTPCustomizeCommandsPage.obj
 0001:0005aeb0       ??1?$CArray@PAUXTP_COMMANDBARS_CATEGORYINFO@@PAU1@@@UAE@XZ 0045beb0 f i ToolkitPro1501vc60S:XTPCustomizeCommandsPage.obj
 0001:0005af00       ??_G?$CArray@PAUXTP_COMMANDBARS_CATEGORYINFO@@PAU1@@@UAEPAXI@Z 0045bf00 f i ToolkitPro1501vc60S:XTPCustomizeCommandsPage.obj
 0001:0005af00       ??_E?$CArray@PAUXTP_COMMANDBARS_CATEGORYINFO@@PAU1@@@UAEPAXI@Z 0045bf00 f i ToolkitPro1501vc60S:XTPCustomizeCommandsPage.obj
 0001:0005af20       ??_ECXTPCustomizeCommandsPage@@WIM@AEPAXI@Z 0045bf20 f i ToolkitPro1501vc60S:XTPCustomizeCommandsPage.obj
 0001:0005af30       ??_ECListBox@@UAEPAXI@Z    0045bf30 f i ToolkitPro1501vc60S:XTPCustomizeCommandsPage.obj
 0001:0005af30       ??_GCListBox@@UAEPAXI@Z    0045bf30 f i ToolkitPro1501vc60S:XTPCustomizeCommandsPage.obj
 0001:0005af50       ??0CXTPShortcutManagerAccel@@QAE@XZ 0045bf50 f   ToolkitPro1501vc60S:XTPShortcutManager.obj
 0001:0005af80       ??0CXTPShortcutManagerAccel@@QAE@PAUtagACCEL@@@Z 0045bf80 f   ToolkitPro1501vc60S:XTPShortcutManager.obj
 0001:0005afc0       ??0CXTPShortcutManagerAccel@@QAE@ABUXTP_SHORTCUTMANAGER_ACCEL@@@Z 0045bfc0 f   ToolkitPro1501vc60S:XTPShortcutManager.obj
 0001:0005aff0       ??0CXTPShortcutManagerAccelTable@@QAE@PAVCXTPShortcutManager@@@Z 0045bff0 f   ToolkitPro1501vc60S:XTPShortcutManager.obj
 0001:0005b010       ??1CXTPShortcutManagerAccelTable@@QAE@XZ 0045c010 f   ToolkitPro1501vc60S:XTPShortcutManager.obj
 0001:0005b070       ?RemoveAll@CXTPShortcutManagerAccelTable@@QAEXXZ 0045c070 f   ToolkitPro1501vc60S:XTPShortcutManager.obj
 0001:0005b0c0       ?Add@CXTPShortcutManagerAccelTable@@QAEXABUXTP_SHORTCUTMANAGER_ACCEL@@@Z 0045c0c0 f   ToolkitPro1501vc60S:XTPShortcutManager.obj
 0001:0005b280       ?CopyAccelTable@CXTPShortcutManagerAccelTable@@QAEXPAUtagACCEL@@H@Z 0045c280 f   ToolkitPro1501vc60S:XTPShortcutManager.obj
 0001:0005b300       ?CopyAccels@CXTPShortcutManagerAccelTable@@QBEPAUXTP_SHORTCUTMANAGER_ACCEL@@XZ 0045c300 f   ToolkitPro1501vc60S:XTPShortcutManager.obj
 0001:0005b370       ?GetAt@CXTPShortcutManagerAccelTable@@QBEPAVCXTPShortcutManagerAccel@@H@Z 0045c370 f   ToolkitPro1501vc60S:XTPShortcutManager.obj
 0001:0005b390       ?CopyAccelTable@CXTPShortcutManagerAccelTable@@QAEXPAV1@@Z 0045c390 f   ToolkitPro1501vc60S:XTPShortcutManager.obj
 0001:0005b3e0       ??0CKeyNameText@CXTPShortcutManager@@QAE@XZ 0045c3e0 f   ToolkitPro1501vc60S:XTPShortcutManager.obj
 0001:0005b460       ?Parse@CKeyNameText@CXTPShortcutManager@@QAEGPBD@Z 0045c460 f   ToolkitPro1501vc60S:XTPShortcutManager.obj
 0001:0005b560       ?Translate@CKeyNameText@CXTPShortcutManager@@QAE?AVCString@@I@Z 0045c560 f   ToolkitPro1501vc60S:XTPShortcutManager.obj
 0001:0005b630       ?SetAt@CKeyNameText@CXTPShortcutManager@@QAEXIPBD@Z 0045c630 f   ToolkitPro1501vc60S:XTPShortcutManager.obj
 0001:0005b660       ??0CXTPShortcutManager@@QAE@PAVCXTPCommandBars@@@Z 0045c660 f   ToolkitPro1501vc60S:XTPShortcutManager.obj
 0001:0005b710       ?GetDefaultAccelerator@CXTPShortcutManager@@UBEPAVCXTPShortcutManagerAccelTable@@XZ 0045c710 f i ToolkitPro1501vc60S:XTPShortcutManager.obj
 0001:0005b720       ??_ECXTPShortcutManager@@UAEPAXI@Z 0045c720 f i ToolkitPro1501vc60S:XTPShortcutManager.obj
 0001:0005b720       ??_GCXTPShortcutManager@@UAEPAXI@Z 0045c720 f i ToolkitPro1501vc60S:XTPShortcutManager.obj
 0001:0005b740       ??1CXTPShortcutManager@@UAE@XZ 0045c740 f   ToolkitPro1501vc60S:XTPShortcutManager.obj
 0001:0005b850       ?Reset@CXTPShortcutManager@@UAEXXZ 0045c850 f   ToolkitPro1501vc60S:XTPShortcutManager.obj
 0001:0005b870       ?Format@CXTPShortcutManager@@UAE?AVCString@@PAVCXTPShortcutManagerAccel@@PAH@Z 0045c870 f   ToolkitPro1501vc60S:XTPShortcutManager.obj
 0001:0005b920       ?OnPreviewEditKey@CXTPShortcutManager@@UAEHPAVCXTPShortcutManagerAccel@@@Z 0045c920 f   ToolkitPro1501vc60S:XTPShortcutManager.obj
 0001:0005b950       ?DisableShortcuts@CXTPShortcutManager@@QAEXH@Z 0045c950 f   ToolkitPro1501vc60S:XTPShortcutManager.obj
 0001:0005b970       ?IsAccelMessage@CXTPShortcutManager@@ABEHAAUSHORTCUTACCEL@XTP_SHORTCUTMANAGER_ACCEL@@HPAUtagMSG@@@Z 0045c970 f   ToolkitPro1501vc60S:XTPShortcutManager.obj
 0001:0005b9f0       ?GetAccelKeyState@CXTPShortcutManager@@ABEHXZ 0045c9f0 f   ToolkitPro1501vc60S:XTPShortcutManager.obj
 0001:0005ba60       ?TranslateAcceleratorA@CXTPShortcutManager@@QAEHPAUtagMSG@@@Z 0045ca60 f   ToolkitPro1501vc60S:XTPShortcutManager.obj
 0001:0005be20       ?FindDefaultFrameAccelerator@CXTPShortcutManager@@QAEHHAAVCString@@@Z 0045ce20 f   ToolkitPro1501vc60S:XTPShortcutManager.obj
 0001:0005bfe0       ?FindDefaultAccelerator@CXTPShortcutManager@@UAEHHAAVCString@@@Z 0045cfe0 f   ToolkitPro1501vc60S:XTPShortcutManager.obj
 0001:0005c180       ??0CKeyHelper@CXTPShortcutManager@@QAE@PBVCXTPShortcutManagerAccel@@PAV1@@Z 0045d180 f   ToolkitPro1501vc60S:XTPShortcutManager.obj
 0001:0005c1a0       ??_ECKeyHelper@CXTPShortcutManager@@UAEPAXI@Z 0045d1a0 f i ToolkitPro1501vc60S:XTPShortcutManager.obj
 0001:0005c1a0       ??_GCKeyHelper@CXTPShortcutManager@@UAEPAXI@Z 0045d1a0 f i ToolkitPro1501vc60S:XTPShortcutManager.obj
 0001:0005c1c0       ??1CKeyHelper@CXTPShortcutManager@@UAE@XZ 0045d1c0 f   ToolkitPro1501vc60S:XTPShortcutManager.obj
 0001:0005c1d0       ?Priority@CKeyHelper@CXTPShortcutManager@@QAEHXZ 0045d1d0 f   ToolkitPro1501vc60S:XTPShortcutManager.obj
 0001:0005c200       ?Format@CKeyHelper@CXTPShortcutManager@@QBEXAAVCString@@@Z 0045d200 f   ToolkitPro1501vc60S:XTPShortcutManager.obj
 0001:0005c2f0       ?Format@CKeyHelper@CXTPShortcutManager@@QBE?AVCString@@PBUSHORTCUTACCEL@XTP_SHORTCUTMANAGER_ACCEL@@@Z 0045d2f0 f   ToolkitPro1501vc60S:XTPShortcutManager.obj
 0001:0005c470       ?AddVirtKeyStr@CKeyHelper@CXTPShortcutManager@@IBEXAAVCString@@IH@Z 0045d470 f   ToolkitPro1501vc60S:XTPShortcutManager.obj
 0001:0005c580       ?GetLocalKeyNameText@CKeyHelper@CXTPShortcutManager@@SA?AVCString@@I@Z 0045d580 f   ToolkitPro1501vc60S:XTPShortcutManager.obj
 0001:0005c6c0       ?FindAccelPos@CXTPShortcutManager@@SAHPBD@Z 0045d6c0 f   ToolkitPro1501vc60S:XTPShortcutManager.obj
 0001:0005c700       ?CompareAccelKey@CXTPShortcutManager@@SAHDI@Z 0045d700 f   ToolkitPro1501vc60S:XTPShortcutManager.obj
 0001:0005c970       ?GetKeyNameTextA@CXTPShortcutManager@@UAE?AVCString@@I@Z 0045d970 f   ToolkitPro1501vc60S:XTPShortcutManager.obj
 0001:0005ca90       ?ToUpper@CXTPShortcutManager@@SADD@Z 0045da90 f   ToolkitPro1501vc60S:XTPShortcutManager.obj
 0001:0005cab0       ?UpdateAcellTable@CXTPShortcutManager@@QAEXPAUtagACCEL@@H@Z 0045dab0 f   ToolkitPro1501vc60S:XTPShortcutManager.obj
 0001:0005cad0       ?UpdateAcellTable@CXTPShortcutManager@@QAEXPAUXTP_SHORTCUTMANAGER_ACCEL@@H@Z 0045dad0 f   ToolkitPro1501vc60S:XTPShortcutManager.obj
 0001:0005cb00       ?SaveShortcuts@CXTPShortcutManager@@QAEXPBD@Z 0045db00 f   ToolkitPro1501vc60S:XTPShortcutManager.obj
 0001:0005cb70       ?LoadShortcuts@CXTPShortcutManager@@QAEXPBD@Z 0045db70 f   ToolkitPro1501vc60S:XTPShortcutManager.obj
 0001:0005cc60       ?ParseShortcutVirtKey@CXTPShortcutManager@@ABEHAAVCString@@H@Z 0045dc60 f   ToolkitPro1501vc60S:XTPShortcutManager.obj
 0001:0005cd90       ?ParseShortcut@CXTPShortcutManager@@ABEHVCString@@AAEAAG@Z 0045dd90 f   ToolkitPro1501vc60S:XTPShortcutManager.obj
 0001:0005cea0       ?ParseShortcut@CXTPShortcutManager@@QAEHVCString@@PAVCXTPShortcutManagerAccel@@@Z 0045dea0 f   ToolkitPro1501vc60S:XTPShortcutManager.obj
 0001:0005cff0       ?DoPropExchange@CXTPShortcutManager@@UAEXPAVCXTPPropExchange@@@Z 0045dff0 f   ToolkitPro1501vc60S:XTPShortcutManager.obj
 0001:0005d4a0       ??1CXTPPropExchangeEnumeratorPtr@@QAE@XZ 0045e4a0 f i ToolkitPro1501vc60S:XTPShortcutManager.obj
 0001:0005d4b0       ??1?$CArray@PAVCXTPShortcutManagerAccel@@PAV1@@@UAE@XZ 0045e4b0 f i ToolkitPro1501vc60S:XTPShortcutManager.obj
 0001:0005d500       ?SetAt@?$CMap@GGVCString@@V1@@@QAEXGVCString@@@Z 0045e500 f i ToolkitPro1501vc60S:XTPShortcutManager.obj
 0001:0005d640       ??1?$CMap@GGVCString@@V1@@@UAE@XZ 0045e640 f i ToolkitPro1501vc60S:XTPShortcutManager.obj
 0001:0005d6e0       ?Serialize@?$CMap@GGVCString@@V1@@@UAEXAAVCArchive@@@Z 0045e6e0 f i ToolkitPro1501vc60S:XTPShortcutManager.obj
 0001:0005d810       ??1?$CArray@PAUHKL__@@AAPAU1@@@UAE@XZ 0045e810 f i ToolkitPro1501vc60S:XTPShortcutManager.obj
 0001:0005d860       ??1?$CArray@UtagACCEL@@AAU1@@@UAE@XZ 0045e860 f i ToolkitPro1501vc60S:XTPShortcutManager.obj
 0001:0005d8b0       ?Serialize@?$CArray@UtagACCEL@@AAU1@@@UAEXAAVCArchive@@@Z 0045e8b0 f i ToolkitPro1501vc60S:XTPShortcutManager.obj
 0001:0005da60       ??_G?$CArray@PAVCXTPShortcutManagerAccel@@PAV1@@@UAEPAXI@Z 0045ea60 f i ToolkitPro1501vc60S:XTPShortcutManager.obj
 0001:0005da60       ??_E?$CArray@PAVCXTPShortcutManagerAccel@@PAV1@@@UAEPAXI@Z 0045ea60 f i ToolkitPro1501vc60S:XTPShortcutManager.obj
 0001:0005da80       ??_G?$CMap@GGVCString@@V1@@@UAEPAXI@Z 0045ea80 f i ToolkitPro1501vc60S:XTPShortcutManager.obj
 0001:0005da80       ??_E?$CMap@GGVCString@@V1@@@UAEPAXI@Z 0045ea80 f i ToolkitPro1501vc60S:XTPShortcutManager.obj
 0001:0005daa0       ??_G?$CArray@PAUHKL__@@AAPAU1@@@UAEPAXI@Z 0045eaa0 f i ToolkitPro1501vc60S:XTPShortcutManager.obj
 0001:0005daa0       ??_E?$CArray@PAUHKL__@@AAPAU1@@@UAEPAXI@Z 0045eaa0 f i ToolkitPro1501vc60S:XTPShortcutManager.obj
 0001:0005dac0       ??_E?$CArray@UtagACCEL@@AAU1@@@UAEPAXI@Z 0045eac0 f i ToolkitPro1501vc60S:XTPShortcutManager.obj
 0001:0005dac0       ??_G?$CArray@UtagACCEL@@AAU1@@@UAEPAXI@Z 0045eac0 f i ToolkitPro1501vc60S:XTPShortcutManager.obj
 0001:0005dae0       ?ConstructElements@@YGXPAPAVCXTPControlAction@@H@Z 0045eae0 f i ToolkitPro1501vc60S:XTPShortcutManager.obj
 0001:0005dae0       ?ConstructElements@@YGXPAHH@Z 0045eae0 f i ToolkitPro1501vc60S:XTPShortcutManager.obj
 0001:0005dae0       ?ConstructElements@@YGXPAPAUHKL__@@H@Z 0045eae0 f i ToolkitPro1501vc60S:XTPShortcutManager.obj
 0001:0005dae0       ?ConstructElements@@YGXPAPAVCXTPMarkupObject@@H@Z 0045eae0 f i ToolkitPro1501vc60S:XTPShortcutManager.obj
 0001:0005dae0       ?ConstructElements@@YGXPAPAVCXTPToolBar@@H@Z 0045eae0 f i ToolkitPro1501vc60S:XTPShortcutManager.obj
 0001:0005dae0       ?ConstructElements@@YGXPAV?$XTP_MAPHANDLER_T@$03@@H@Z 0045eae0 f i ToolkitPro1501vc60S:XTPShortcutManager.obj
 0001:0005dae0       ?ConstructElements@@YGXPAPAUXTP_IMAGERESOURCE_INFO@@H@Z 0045eae0 f i ToolkitPro1501vc60S:XTPShortcutManager.obj
 0001:0005dae0       ?ConstructElements@@YGXPAPAVCXTPRibbonGroup@@H@Z 0045eae0 f i ToolkitPro1501vc60S:XTPShortcutManager.obj
 0001:0005dae0       ?ConstructElements@@YGXPAMH@Z 0045eae0 f i ToolkitPro1501vc60S:XTPShortcutManager.obj
 0001:0005dae0       ?ConstructElements@@YGXPAPAVCShadowWnd@CXTPShadowManager@@H@Z 0045eae0 f i ToolkitPro1501vc60S:XTPShortcutManager.obj
 0001:0005dae0       ?ConstructElements@@YGXPAPAVCXTPControl@@H@Z 0045eae0 f i ToolkitPro1501vc60S:XTPShortcutManager.obj
 0001:0005dae0       ?ConstructElements@@YGXPAPAVCXTPImageManagerIconSet@@H@Z 0045eae0 f i ToolkitPro1501vc60S:XTPShortcutManager.obj
 0001:0005dae0       ?ConstructElements@@YGXPAPAUXTP_COMMANDBARS_CATEGORYINFO@@H@Z 0045eae0 f i ToolkitPro1501vc60S:XTPShortcutManager.obj
 0001:0005dae0       ?ConstructElements@@YGXPAPAVCXTPDockingPaneBase@@H@Z 0045eae0 f i ToolkitPro1501vc60S:XTPShortcutManager.obj
 0001:0005db00       ?SetSize@?$CArray@UtagACCEL@@AAU1@@@QAEXHH@Z 0045eb00 f i ToolkitPro1501vc60S:XTPShortcutManager.obj
 0001:0005dc60       ??0CToolBarInfo@CXTPToolBar@@QAE@XZ 0045ec60 f   ToolkitPro1501vc60S:XTPDockState.obj
 0001:0005dcc0       ?SaveState@CToolBarInfo@CXTPToolBar@@QAEHPBDH@Z 0045ecc0 f   ToolkitPro1501vc60S:XTPDockState.obj
 0001:0005deb0       ?LoadState@CToolBarInfo@CXTPToolBar@@QAEHPBDHPAVCXTPDockState@@@Z 0045eeb0 f   ToolkitPro1501vc60S:XTPDockState.obj
 0001:0005e0f0       ?ScalePoint@CXTPDockState@@QAEXAAVCPoint@@@Z 0045f0f0 f   ToolkitPro1501vc60S:XTPDockState.obj
 0001:0005e180       ?ScaleRectPos@CXTPDockState@@QAEXAAVCRect@@@Z 0045f180 f   ToolkitPro1501vc60S:XTPDockState.obj
 0001:0005e230       ??0CXTPDockState@@QAE@XZ   0045f230 f   ToolkitPro1501vc60S:XTPDockState.obj
 0001:0005e270       ??1CXTPDockState@@QAE@XZ   0045f270 f   ToolkitPro1501vc60S:XTPDockState.obj
 0001:0005e2d0       ?Clear@CXTPDockState@@AAEXXZ 0045f2d0 f   ToolkitPro1501vc60S:XTPDockState.obj
 0001:0005e320       ?SaveState@CXTPDockState@@QAEXPBD@Z 0045f320 f   ToolkitPro1501vc60S:XTPDockState.obj
 0001:0005e3d0       ?LoadState@CXTPDockState@@QAEXPBD@Z 0045f3d0 f   ToolkitPro1501vc60S:XTPDockState.obj
 0001:0005e5f0       ?GetScreenSize@CXTPDockState@@AAE?AVCSize@@XZ 0045f5f0 f   ToolkitPro1501vc60S:XTPDockState.obj
 0001:0005e610       ?SetScreenSize@CXTPDockState@@AAEXAAVCSize@@@Z 0045f610 f   ToolkitPro1501vc60S:XTPDockState.obj
 0001:0005e660       ?GetBarInfo@CXTPToolBar@@QAEXPAVCToolBarInfo@1@@Z 0045f660 f   ToolkitPro1501vc60S:XTPDockState.obj
 0001:0005e770       ?SetBarInfo@CXTPToolBar@@QAEXPAVCToolBarInfo@1@@Z 0045f770 f   ToolkitPro1501vc60S:XTPDockState.obj
 0001:0005e860       ?GetIsolatedFileName@CXTPCommandBars@@IAE?AVCString@@ABV2@@Z 0045f860 f   ToolkitPro1501vc60S:XTPDockState.obj
 0001:0005ea70       ?GetControlsFileName@CXTPCommandBars@@IAEHAAVCString@@PBD@Z 0045fa70 f   ToolkitPro1501vc60S:XTPDockState.obj
 0001:0005eb90       ?SaveBarState@CXTPCommandBars@@QAEXPBDH@Z 0045fb90 f   ToolkitPro1501vc60S:XTPDockState.obj
 0001:0005ef20       ?_LoadControlsPart@CXTPCommandBars@@IAEXAAVCFile@@PAUXTP_COMMANDBARS_PROPEXCHANGE_PARAM@@@Z 0045ff20 f   ToolkitPro1501vc60S:XTPDockState.obj
 0001:0005f050       ?LoadBarState@CXTPCommandBars@@QAEXPBDH@Z 00460050 f   ToolkitPro1501vc60S:XTPDockState.obj
 0001:0005f340       ?GetStatusBar@CXTPCommandBars@@QBEPAVCXTPStatusBar@@XZ 00460340 f   ToolkitPro1501vc60S:XTPDockState.obj
 0001:0005f360       ?SaveDockBarsState@CXTPCommandBars@@IAEXPBD@Z 00460360 f   ToolkitPro1501vc60S:XTPDockState.obj
 0001:0005f4c0       ?LoadDockBarsState@CXTPCommandBars@@IAEXPBD@Z 004604c0 f   ToolkitPro1501vc60S:XTPDockState.obj
 0001:0005f810       ?GetDockState@CXTPCommandBars@@IAEXAAVCXTPDockState@@@Z 00460810 f   ToolkitPro1501vc60S:XTPDockState.obj
 0001:0005f9e0       ?SetDockState@CXTPCommandBars@@IAEXAAVCXTPDockState@@@Z 004609e0 f   ToolkitPro1501vc60S:XTPDockState.obj
 0001:0005fa50       ?GenerateCommandBarList@CXTPCommandBars@@MAEXPAVCXTPCommandBarList@@PAUXTP_COMMANDBARS_PROPEXCHANGE_PARAM@@@Z 00460a50 f   ToolkitPro1501vc60S:XTPDockState.obj
 0001:0005fb20       ?GenerateCommandBarList@CXTPCommandBar@@MAEXAAKPAVCXTPCommandBarList@@PAUXTP_COMMANDBARS_PROPEXCHANGE_PARAM@@@Z 00460b20 f   ToolkitPro1501vc60S:XTPDockState.obj
 0001:0005fb90       ?GenerateCommandBarList@CXTPMenuBar@@MAEXAAKPAVCXTPCommandBarList@@PAUXTP_COMMANDBARS_PROPEXCHANGE_PARAM@@@Z 00460b90 f   ToolkitPro1501vc60S:XTPDockState.obj
 0001:0005fc00       ?GenerateCommandBarList@CXTPControl@@MAEXAAKPAVCXTPCommandBarList@@PAUXTP_COMMANDBARS_PROPEXCHANGE_PARAM@@@Z 00460c00 f   ToolkitPro1501vc60S:XTPDockState.obj
 0001:0005fc30       ?GenerateCommandBarList@CXTPControls@@IAEXAAKPAVCXTPCommandBarList@@PAUXTP_COMMANDBARS_PROPEXCHANGE_PARAM@@@Z 00460c30 f   ToolkitPro1501vc60S:XTPDockState.obj
 0001:0005fca0       ?SaveCommandBarList@CXTPCommandBars@@MAEHPAVCXTPPropExchange@@PAVCXTPCommandBarList@@@Z 00460ca0 f   ToolkitPro1501vc60S:XTPDockState.obj
 0001:0005fdd0       ?LoadCommandBarList@CXTPCommandBars@@MAEHPAVCXTPPropExchange@@PAVCXTPCommandBarList@@@Z 00460dd0 f   ToolkitPro1501vc60S:XTPDockState.obj
 0001:0005ff40       ?MergeToolBar@CXTPToolBar@@MAEXPAVCXTPCommandBar@@H@Z 00460f40 f   ToolkitPro1501vc60S:XTPDockState.obj
 0001:000600e0       ?RestoreCommandBarList@CXTPCommandBars@@MAEXPAVCXTPCommandBarList@@H@Z 004610e0 f   ToolkitPro1501vc60S:XTPDockState.obj
 0001:000602a0       ?RestoreCommandBarList@CXTPCommandBar@@MAEXPAVCXTPCommandBarList@@@Z 004612a0 f   ToolkitPro1501vc60S:XTPDockState.obj
 0001:000602c0       ?RestoreCommandBarList@CXTPMenuBar@@MAEXPAVCXTPCommandBarList@@@Z 004612c0 f   ToolkitPro1501vc60S:XTPDockState.obj
 0001:00060320       ?RestoreCommandBarList@CXTPControlPopup@@MAEXPAVCXTPCommandBarList@@@Z 00461320 f   ToolkitPro1501vc60S:XTPDockState.obj
 0001:00060370       ?RestoreCommandBarList@CXTPControls@@IAEXPAVCXTPCommandBarList@@@Z 00461370 f   ToolkitPro1501vc60S:XTPDockState.obj
 0001:000603c0       ?DoPropExchange@CXTPCommandBar@@UAEXPAVCXTPPropExchange@@@Z 004613c0 f   ToolkitPro1501vc60S:XTPDockState.obj
 0001:00060590       ?DoPropExchange@CXTPToolBar@@MAEXPAVCXTPPropExchange@@@Z 00461590 f   ToolkitPro1501vc60S:XTPDockState.obj
 0001:00060650       ?DoPropExchange@CXTPMenuBar@@MAEXPAVCXTPPropExchange@@@Z 00461650 f   ToolkitPro1501vc60S:XTPDockState.obj
 0001:00060930       ?DoPropExchange@CXTPPopupBar@@MAEXPAVCXTPPropExchange@@@Z 00461930 f   ToolkitPro1501vc60S:XTPDockState.obj
 0001:00060a40       ?ShouldSerializeControl@CXTPControls@@UAEHPAVCXTPControl@@@Z 00461a40 f   ToolkitPro1501vc60S:XTPDockState.obj
 0001:00060a60       ?DoPropExchange@CXTPControls@@UAEXPAVCXTPPropExchange@@@Z 00461a60 f   ToolkitPro1501vc60S:XTPDockState.obj
 0001:00060e60       ?DoPropExchange@CXTPControl@@UAEXPAVCXTPPropExchange@@@Z 00461e60 f   ToolkitPro1501vc60S:XTPDockState.obj
 0001:00061220       ?DoPropExchange@CXTPControlButton@@UAEXPAVCXTPPropExchange@@@Z 00462220 f   ToolkitPro1501vc60S:XTPDockState.obj
 0001:00061250       ?DoPropExchange@CXTPControlPopup@@UAEXPAVCXTPPropExchange@@@Z 00462250 f   ToolkitPro1501vc60S:XTPDockState.obj
 0001:000612e0       ?DoPropExchange@CXTPControlComboBox@@UAEXPAVCXTPPropExchange@@@Z 004622e0 f   ToolkitPro1501vc60S:XTPDockState.obj
 0001:00061410       ?DoPropExchange@CXTPControlEdit@@UAEXPAVCXTPPropExchange@@@Z 00462410 f   ToolkitPro1501vc60S:XTPDockState.obj
 0001:00061550       ??1?$CArray@PAVCToolBarInfo@CXTPToolBar@@PAV12@@@UAE@XZ 00462550 f i ToolkitPro1501vc60S:XTPDockState.obj
 0001:000615a0       ??_G?$CArray@PAVCToolBarInfo@CXTPToolBar@@PAV12@@@UAEPAXI@Z 004625a0 f i ToolkitPro1501vc60S:XTPDockState.obj
 0001:000615a0       ??_E?$CArray@PAVCToolBarInfo@CXTPToolBar@@PAV12@@@UAEPAXI@Z 004625a0 f i ToolkitPro1501vc60S:XTPDockState.obj
 0001:000615c0       ??0CRichEditContext@CXTPCommandBarEditCtrl@@QAE@XZ 004625c0 f   ToolkitPro1501vc60S:XTPControlComboBox.obj
 0001:00061660       ??1CRichEditContext@CXTPCommandBarEditCtrl@@QAE@XZ 00462660 f   ToolkitPro1501vc60S:XTPControlComboBox.obj
 0001:00061670       ?GetRichEditContext@CXTPCommandBarEditCtrl@@IAEAAVCRichEditContext@1@XZ 00462670 f   ToolkitPro1501vc60S:XTPControlComboBox.obj
 0001:000616c0       ?CreateObject@CXTPCommandBarEditCtrl@@SGPAVCObject@@XZ 004626c0 f   ToolkitPro1501vc60S:XTPControlComboBox.obj
 0001:00061720       ?GetRuntimeClass@CXTPCommandBarEditCtrl@@UBEPAUCRuntimeClass@@XZ 00462720 f   ToolkitPro1501vc60S:XTPControlComboBox.obj
 0001:00061730       ??0CXTPCommandBarEditCtrl@@QAE@XZ 00462730 f   ToolkitPro1501vc60S:XTPControlComboBox.obj
 0001:00061750       ??1CXTPCommandBarEditCtrl@@UAE@XZ 00462750 f i ToolkitPro1501vc60S:XTPControlComboBox.obj
 0001:00061750       ??1CXTPControlEditCtrl@@UAE@XZ 00462750 f i ToolkitPro1501vc60S:XTPControlComboBox.obj
 0001:00061750       ??1CXTPComboBoxEditCtrl@@UAE@XZ 00462750 f i ToolkitPro1501vc60S:XTPControlComboBox.obj
 0001:00061750       ??1CXTPControlComboBoxEditCtrl@@UAE@XZ 00462750 f i ToolkitPro1501vc60S:XTPControlComboBox.obj
 0001:00061760       ?IsCommandEnabled@CXTPCommandBarEditCtrl@@IAEHI@Z 00462760 f   ToolkitPro1501vc60S:XTPControlComboBox.obj
 0001:00061800       ?OnCmdMsg@CXTPCommandBarEditCtrl@@UAEHIHPAXPAUAFX_CMDHANDLERINFO@@@Z 00462800 f   ToolkitPro1501vc60S:XTPControlComboBox.obj
 0001:00061850       ?OnCommand@CXTPCommandBarEditCtrl@@UAEHIJ@Z 00462850 f   ToolkitPro1501vc60S:XTPControlComboBox.obj
 0001:000618d0       ?ShowContextMenu@CXTPCommandBarEditCtrl@@UAEHPAVCXTPControl@@VCPoint@@@Z 004628d0 f   ToolkitPro1501vc60S:XTPControlComboBox.obj
 0001:00061b00       ?CreateEdit@CXTPCommandBarEditCtrl@@UAEHKPAVCWnd@@@Z 00462b00 f   ToolkitPro1501vc60S:XTPControlComboBox.obj
 0001:00061bb0       ?IsDialogCode@CXTPCommandBarEditCtrl@@QAEHIJ@Z 00462bb0 f   ToolkitPro1501vc60S:XTPControlComboBox.obj
 0001:00061c30       ?SetWindowTextEx@CXTPCommandBarEditCtrl@@QAEXPBD@Z 00462c30 f   ToolkitPro1501vc60S:XTPControlComboBox.obj
 0001:00061c60       ?GetWindowTextEx@CXTPCommandBarEditCtrl@@QAEXAAVCString@@@Z 00462c60 f   ToolkitPro1501vc60S:XTPControlComboBox.obj
 0001:00061c70       ?GetMessageMap@CXTPCommandBarEditCtrl@@MBEPBUAFX_MSGMAP@@XZ 00462c70 f   ToolkitPro1501vc60S:XTPControlComboBox.obj
 0001:00061c80       ?OnImeStartComposition@CXTPCommandBarEditCtrl@@IAEXXZ 00462c80 f   ToolkitPro1501vc60S:XTPControlComboBox.obj
 0001:00061ca0       ?OnImeEndComposition@CXTPCommandBarEditCtrl@@IAEXXZ 00462ca0 f   ToolkitPro1501vc60S:XTPControlComboBox.obj
 0001:00061cc0       ?OnKillFocus@CXTPCommandBarEditCtrl@@IAEXPAVCWnd@@@Z 00462cc0 f   ToolkitPro1501vc60S:XTPControlComboBox.obj
 0001:00061ce0       ?OnPaint@CXTPCommandBarEditCtrl@@IAEXXZ 00462ce0 f   ToolkitPro1501vc60S:XTPControlComboBox.obj
 0001:00061d70       ??0CXTPControlComboBoxAutoCompleteWnd@@QAE@XZ 00462d70 f   ToolkitPro1501vc60S:XTPControlComboBox.obj
 0001:00061d90       ??_GCXTPControlComboBoxAutoCompleteWnd@@UAEPAXI@Z 00462d90 f i ToolkitPro1501vc60S:XTPControlComboBox.obj
 0001:00061d90       ??_ECXTPControlComboBoxAutoCompleteWnd@@UAEPAXI@Z 00462d90 f i ToolkitPro1501vc60S:XTPControlComboBox.obj
 0001:00061db0       ??1CXTPControlComboBoxAutoCompleteWnd@@UAE@XZ 00462db0 f   ToolkitPro1501vc60S:XTPControlComboBox.obj
 0001:00061e10       ?IsDialogCode@CXTPControlComboBoxAutoCompleteWnd@@QAEHIJ@Z 00462e10 f   ToolkitPro1501vc60S:XTPControlComboBox.obj
 0001:00061eb0       ?ShellAutoComplete@CXTPControlComboBoxAutoCompleteWnd@@QAEJPAUHWND__@@K@Z 00462eb0 f   ToolkitPro1501vc60S:XTPControlComboBox.obj
 0001:00061f00       ?CloseWindow@CXTPControlComboBoxAutoCompleteWnd@@QAEXXZ 00462f00 f   ToolkitPro1501vc60S:XTPControlComboBox.obj
 0001:00061f20       ?SetAutoCompeteHandle@CXTPControlComboBoxAutoCompleteWnd@@AAEXPAUHWND__@@@Z 00462f20 f   ToolkitPro1501vc60S:XTPControlComboBox.obj
 0001:00061f70       ?SetupMessageHook@CXTPControlComboBoxAutoCompleteWnd@@QAEXH@Z 00462f70 f   ToolkitPro1501vc60S:XTPControlComboBox.obj
 0001:00062020       ?OnHookMessage@CXTPControlComboBoxAutoCompleteWnd@@EAEHPAUHWND__@@IAAIAAJ2@Z 00463020 f   ToolkitPro1501vc60S:XTPControlComboBox.obj
 0001:00062040       ?CallWndProc@CXTPControlComboBoxAutoCompleteWnd@@CGJHIJ@Z 00463040 f   ToolkitPro1501vc60S:XTPControlComboBox.obj
 0001:00062110       ?CreateObject@CXTPControlComboBox@@SGPAVCObject@@XZ 00463110 f   ToolkitPro1501vc60S:XTPControlComboBox.obj
 0001:00062170       ?GetRuntimeClass@CXTPControlComboBox@@UBEPAUCRuntimeClass@@XZ 00463170 f   ToolkitPro1501vc60S:XTPControlComboBox.obj
 0001:000621a0       ?Clone@CXTPControlComboBox@@UAEPAVCXTPControl@@H@Z 004631a0 f   ToolkitPro1501vc60S:XTPControlComboBox.obj
 0001:000621d0       ??0CXTPControlComboBox@@QAE@PAVCXTPCommandBars@@@Z 004631d0 f   ToolkitPro1501vc60S:XTPControlComboBox.obj
 0001:00062350       ?GetCommandBar@CXTPControlPopup@@UBEPAVCXTPCommandBar@@XZ 00463350 f i ToolkitPro1501vc60S:XTPControlComboBox.obj
 0001:00062360       ?GetPopuped@CXTPControlPopup@@UBEHXZ 00463360 f i ToolkitPro1501vc60S:XTPControlComboBox.obj
 0001:00062370       ?GetText@CXTPControlComboBox@@UBE?AVCString@@XZ 00463370 f i ToolkitPro1501vc60S:XTPControlComboBox.obj
 0001:00062390       ?OnThemeChanged@CXTPControlComboBox@@MAEXXZ 00463390 f i ToolkitPro1501vc60S:XTPControlComboBox.obj
 0001:000623a0       ??_GCXTPControlComboBox@@UAEPAXI@Z 004633a0 f i ToolkitPro1501vc60S:XTPControlComboBox.obj
 0001:000623a0       ??_ECXTPControlComboBox@@UAEPAXI@Z 004633a0 f i ToolkitPro1501vc60S:XTPControlComboBox.obj
 0001:000623c0       ??1CXTPControlComboBox@@UAE@XZ 004633c0 f   ToolkitPro1501vc60S:XTPControlComboBox.obj
 0001:00062470       ?GetEditText@CXTPControlComboBox@@QBE?AVCString@@XZ 00463470 f   ToolkitPro1501vc60S:XTPControlComboBox.obj
 0001:00062550       ?_GetEditText@CXTPControlComboBox@@IBE?AVCString@@XZ 00463550 f   ToolkitPro1501vc60S:XTPControlComboBox.obj
 0001:000625b0       ?SetEditText@CXTPControlComboBox@@QAEXABVCString@@@Z 004635b0 f   ToolkitPro1501vc60S:XTPControlComboBox.obj
 0001:00062630       ?_SetEditText@CXTPControlComboBox@@IAEXABVCString@@@Z 00463630 f   ToolkitPro1501vc60S:XTPControlComboBox.obj
 0001:000626b0       ?SetEditHint@CXTPControlComboBox@@QAEXPBD@Z 004636b0 f   ToolkitPro1501vc60S:XTPControlComboBox.obj
 0001:00062830       ?IsCaptionVisible@CXTPControlComboBox@@UBEHXZ 00463830 f   ToolkitPro1501vc60S:XTPControlComboBox.obj
 0001:000628a0       ?GetEditHint@CXTPControlComboBox@@QBE?AVCString@@XZ 004638a0 f   ToolkitPro1501vc60S:XTPControlComboBox.obj
 0001:00062970       ?GetEditHint@CXTPControlAction@@QBE?AVCString@@XZ 00463970 f i ToolkitPro1501vc60S:XTPControlComboBox.obj
 0001:00062990       ?UpdatePopupSelection@CXTPControlComboBox@@QAEXXZ 00463990 f   ToolkitPro1501vc60S:XTPControlComboBox.obj
 0001:00062a60       ?OnEditChanged@CXTPControlComboBox@@UAEXXZ 00463a60 f   ToolkitPro1501vc60S:XTPControlComboBox.obj
 0001:00062be0       ?OnSelChanged@CXTPControlComboBox@@UAEXXZ 00463be0 f   ToolkitPro1501vc60S:XTPControlComboBox.obj
 0001:00062c60       ?OnHookMouseWheel@CXTPControlComboBox@@MAEHIFVCPoint@@@Z 00463c60 f   ToolkitPro1501vc60S:XTPControlComboBox.obj
 0001:00062cd0       ?OnHookKeyDown@CXTPControlComboBox@@MAEHIJ@Z 00463cd0 f   ToolkitPro1501vc60S:XTPControlComboBox.obj
 0001:00062ed0       ?CreateEditControl@CXTPControlComboBox@@MAEPAVCXTPControlComboBoxEditCtrl@@XZ 00463ed0 f   ToolkitPro1501vc60S:XTPControlComboBox.obj
 0001:00062f20       ?SetDropDownListStyle@CXTPControlComboBox@@QAEXH@Z 00463f20 f   ToolkitPro1501vc60S:XTPControlComboBox.obj
 0001:00062f70       ?EnableShellAutoComplete@CXTPControlComboBox@@QAEXK@Z 00463f70 f   ToolkitPro1501vc60S:XTPControlComboBox.obj
 0001:00063050       ?SetRect@CXTPControlComboBox@@MAEXVCRect@@@Z 00464050 f   ToolkitPro1501vc60S:XTPControlComboBox.obj
 0001:00063320       ?ShowHideEditControl@CXTPControlComboBox@@IAEXXZ 00464320 f   ToolkitPro1501vc60S:XTPControlComboBox.obj
 0001:00063390       ?OnRemoved@CXTPControlComboBox@@MAEXXZ 00464390 f   ToolkitPro1501vc60S:XTPControlComboBox.obj
 0001:000633d0       ?OnEnabledChanged@CXTPControlComboBox@@UAEXXZ 004643d0 f   ToolkitPro1501vc60S:XTPControlComboBox.obj
 0001:00063410       ?SetParent@CXTPControlComboBox@@MAEXPAVCXTPCommandBar@@@Z 00464410 f   ToolkitPro1501vc60S:XTPControlComboBox.obj
 0001:00063470       ?OnSetSelected@CXTPControlComboBox@@MAEHH@Z 00464470 f   ToolkitPro1501vc60S:XTPControlComboBox.obj
 0001:000634e0       ?OnClick@CXTPControlComboBox@@MAEXHVCPoint@@@Z 004644e0 f   ToolkitPro1501vc60S:XTPControlComboBox.obj
 0001:000635c0       ?OnUnderlineActivate@CXTPControlEdit@@MAEXXZ 004645c0 f   ToolkitPro1501vc60S:XTPControlComboBox.obj
 0001:000635c0       ?OnUnderlineActivate@CXTPControlComboBox@@MAEXXZ 004645c0 f   ToolkitPro1501vc60S:XTPControlComboBox.obj
 0001:000635e0       ?SetHideFlags@CXTPControlComboBox@@UAEXK@Z 004645e0 f   ToolkitPro1501vc60S:XTPControlComboBox.obj
 0001:00063610       ?OnActionChanged@CXTPControlComboBox@@UAEXH@Z 00464610 f   ToolkitPro1501vc60S:XTPControlComboBox.obj
 0001:00063700       ?OnActionChanging@CXTPControlComboBox@@UAEXH@Z 00464700 f   ToolkitPro1501vc60S:XTPControlComboBox.obj
 0001:000637f0       ?Copy@CXTPControlComboBox@@MAEXPAVCXTPControl@@H@Z 004647f0 f   ToolkitPro1501vc60S:XTPControlComboBox.obj
 0001:00063900       ?Compare@CXTPControlComboBox@@UAEHPAVCXTPControl@@@Z 00464900 f   ToolkitPro1501vc60S:XTPControlComboBox.obj
 0001:00063930       ?GetListBoxText@CXTPControlComboBox@@UBE?AVCString@@XZ 00464930 f   ToolkitPro1501vc60S:XTPControlComboBox.obj
 0001:000639f0       ?IsValidList@CXTPControlComboBox@@IBEHXZ 004649f0 f   ToolkitPro1501vc60S:XTPControlComboBox.obj
 0001:00063a00       ?GetComboBoxPopupBar@CXTPControlComboBox@@QBEPAVCXTPControlComboBoxPopupBar@@XZ 00464a00 f   ToolkitPro1501vc60S:XTPControlComboBox.obj
 0001:00063a20       ?GetCurSel@CXTPControlComboBox@@QBEHXZ 00464a20 f   ToolkitPro1501vc60S:XTPControlComboBox.obj
 0001:00063a40       ?SetCurSel@CXTPControlComboBox@@QAEXH@Z 00464a40 f   ToolkitPro1501vc60S:XTPControlComboBox.obj
 0001:00063a90       ?IsFocused@CXTPControlComboBox@@UBEHXZ 00464a90 f   ToolkitPro1501vc60S:XTPControlComboBox.obj
 0001:00063aa0       ?SetFocused@CXTPControlComboBox@@UAEXH@Z 00464aa0 f   ToolkitPro1501vc60S:XTPControlComboBox.obj
 0001:00063bf0       ?OnSetFocus@CXTPControlComboBox@@MAEXPAVCWnd@@@Z 00464bf0 f   ToolkitPro1501vc60S:XTPControlComboBox.obj
 0001:00063d80       ?OnKillFocus@CXTPControlComboBox@@MAEXXZ 00464d80 f   ToolkitPro1501vc60S:XTPControlComboBox.obj
 0001:00063e80       ?GetDroppedState@CXTPControlComboBox@@QBEHXZ 00464e80 f   ToolkitPro1501vc60S:XTPControlComboBox.obj
 0001:00063e90       ?OnSetPopup@CXTPControlComboBox@@MAEHH@Z 00464e90 f   ToolkitPro1501vc60S:XTPControlComboBox.obj
 0001:00063f30       ?OnExecute@CXTPControlComboBox@@UAEXXZ 00464f30 f   ToolkitPro1501vc60S:XTPControlComboBox.obj
 0001:00063f90       ?GetDefaultCharFormat@CXTPControlComboBox@@UAE?AUCHARFORMAT2A@@XZ 00464f90 f   ToolkitPro1501vc60S:XTPControlComboBox.obj
 0001:000640c0       ?CreateObject@CXTPControlComboBoxPopupBar@@SGPAVCObject@@XZ 004650c0 f   ToolkitPro1501vc60S:XTPControlComboBox.obj
 0001:00064120       ?GetRuntimeClass@CXTPControlComboBoxPopupBar@@UBEPAUCRuntimeClass@@XZ 00465120 f   ToolkitPro1501vc60S:XTPControlComboBox.obj
 0001:00064150       ?Clone@CXTPControlComboBoxPopupBar@@UAEPAVCXTPCommandBar@@H@Z 00465150 f   ToolkitPro1501vc60S:XTPControlComboBox.obj
 0001:00064180       ??0CXTPControlComboBoxPopupBar@@QAE@XZ 00465180 f   ToolkitPro1501vc60S:XTPControlComboBox.obj
 0001:000641b0       ?DelayRedraw@CXTPPopupBar@@MAEXXZ 004651b0 f i ToolkitPro1501vc60S:XTPControlComboBox.obj
 0001:000641c0       ?IsResizable@CXTPPopupBar@@UBEHXZ 004651c0 f i ToolkitPro1501vc60S:XTPControlComboBox.obj
 0001:000641d0       ?GetCurSel@CXTPControlComboBoxPopupBar@@UBEHXZ 004651d0 f i ToolkitPro1501vc60S:XTPControlComboBox.obj
 0001:000641e0       ?FindStringExact@CXTPControlComboBoxPopupBar@@UBEHHPBD@Z 004651e0 f i ToolkitPro1501vc60S:XTPControlComboBox.obj
 0001:000641e0       ?FindString@CXTPControlComboBoxPopupBar@@UBEHHPBD@Z 004651e0 f i ToolkitPro1501vc60S:XTPControlComboBox.obj
 0001:000641f0       ?IsControlEnabled@CXTPCommandBar@@MBEHPBVCXTPControl@@@Z 004651f0 f i ToolkitPro1501vc60S:XTPControlComboBox.obj
 0001:000641f0       ?SetTopIndex@CXTPControlComboBoxPopupBar@@UAEHH@Z 004651f0 f i ToolkitPro1501vc60S:XTPControlComboBox.obj
 0001:00064200       ?ProcessHookKeyDown@CXTPControlComboBoxPopupBar@@UAEHPAVCXTPControlComboBox@@IJ@Z 00465200 f   ToolkitPro1501vc60S:XTPControlComboBox.obj
 0001:000642f0       ?OnHookKeyDown@CXTPControlComboBoxPopupBar@@UAEHIJ@Z 004652f0 f   ToolkitPro1501vc60S:XTPControlComboBox.obj
 0001:00064360       ??0CXTPControlComboBoxList@@QAE@XZ 00465360 f   ToolkitPro1501vc60S:XTPControlComboBox.obj
 0001:000643b0       ?GetCurSel@CXTPControlComboBoxList@@MBEHXZ 004653b0 f i ToolkitPro1501vc60S:XTPControlComboBox.obj
 0001:000643d0       ?FindString@CXTPControlComboBoxList@@MBEHHPBD@Z 004653d0 f i ToolkitPro1501vc60S:XTPControlComboBox.obj
 0001:00064400       ?FindStringExact@CXTPControlComboBoxList@@MBEHHPBD@Z 00465400 f i ToolkitPro1501vc60S:XTPControlComboBox.obj
 0001:00064430       ?SetTopIndex@CXTPControlComboBoxList@@MAEHH@Z 00465430 f i ToolkitPro1501vc60S:XTPControlComboBox.obj
 0001:00064450       ?SetCurSel@CXTPControlComboBoxList@@MAEXH@Z 00465450 f i ToolkitPro1501vc60S:XTPControlComboBox.obj
 0001:00064470       ?GetText@CXTPControlComboBoxList@@MBEXHAAVCString@@@Z 00465470 f i ToolkitPro1501vc60S:XTPControlComboBox.obj
 0001:00064490       ?GetMessageMap@CXTPControlComboBoxList@@MBEPBUAFX_MSGMAP@@XZ 00465490 f   ToolkitPro1501vc60S:XTPControlComboBox.obj
 0001:000644a0       ?CreateObject@CXTPControlComboBoxList@@SGPAVCObject@@XZ 004654a0 f   ToolkitPro1501vc60S:XTPControlComboBox.obj
 0001:00064500       ?GetRuntimeClass@CXTPControlComboBoxList@@UBEPAUCRuntimeClass@@XZ 00465500 f   ToolkitPro1501vc60S:XTPControlComboBox.obj
 0001:00064530       ?Clone@CXTPControlComboBoxList@@UAEPAVCXTPCommandBar@@H@Z 00465530 f   ToolkitPro1501vc60S:XTPControlComboBox.obj
 0001:00064560       ?CreateListBox@CXTPControlComboBoxList@@UAEXXZ 00465560 f   ToolkitPro1501vc60S:XTPControlComboBox.obj
 0001:00064680       ?DrawItem@CXTPControlComboBoxList@@MAEXPAUtagDRAWITEMSTRUCT@@@Z 00465680 f   ToolkitPro1501vc60S:XTPControlComboBox.obj
 0001:000646a0       ?MeasureItem@CXTPControlComboBoxList@@MAEXPAUtagMEASUREITEMSTRUCT@@@Z 004656a0 f   ToolkitPro1501vc60S:XTPControlComboBox.obj
 0001:000646c0       ?OnHookMessage@CXTPControlComboBoxList@@MAEHPAUHWND__@@IAAIAAJ2@Z 004656c0 f   ToolkitPro1501vc60S:XTPControlComboBox.obj
 0001:00064710       ?OnNcPaint@CXTPControlComboBoxList@@IAEXXZ 00465710 f   ToolkitPro1501vc60S:XTPControlComboBox.obj
 0001:000647f0       ?OnEraseBkgnd@CXTPControlComboBoxList@@IAEHPAVCDC@@@Z 004657f0 f   ToolkitPro1501vc60S:XTPControlComboBox.obj
 0001:00064800       ?OnLButtonUp@CXTPControlComboBoxList@@IAEXIVCPoint@@@Z 00465800 f   ToolkitPro1501vc60S:XTPControlComboBox.obj
 0001:00064820       ?SetTrackingMode@CXTPControlComboBoxList@@MAEHHHH@Z 00465820 f   ToolkitPro1501vc60S:XTPControlComboBox.obj
 0001:000648e0       ?GetFirstInline@CXTPMarkupInline@@UBEPAV1@XZ 004658e0 f   ToolkitPro1501vc60S:XTPControlComboBox.obj
 0001:000648e0       ?GetListBoxCtrl@CXTPControlComboBoxList@@QBEPAVCListBox@@XZ 004658e0 f   ToolkitPro1501vc60S:XTPControlComboBox.obj
 0001:000648e0       ??0CStaticResourceExtension@CXTPMarkupBuilder@@QAE@XZ 004658e0 f   ToolkitPro1501vc60S:XTPControlComboBox.obj
 0001:000648e0       ??0CXTPWinDwmWrapper@@QAE@XZ 004658e0 f   ToolkitPro1501vc60S:XTPControlComboBox.obj
 0001:000648f0       ?ProcessHookKeyDown@CXTPControlComboBoxList@@MAEHPAVCXTPControlComboBox@@IJ@Z 004658f0 f   ToolkitPro1501vc60S:XTPControlComboBox.obj
 0001:00064a50       ?OnHookKeyDown@CXTPControlComboBoxList@@MAEHIJ@Z 00465a50 f   ToolkitPro1501vc60S:XTPControlComboBox.obj
 0001:00064b10       ?OnMouseMove@CXTPControlComboBoxList@@IAEXIVCPoint@@@Z 00465b10 f   ToolkitPro1501vc60S:XTPControlComboBox.obj
 0001:00064b70       ?Popup@CXTPControlComboBoxList@@MAEHPAVCXTPControlPopup@@H@Z 00465b70 f   ToolkitPro1501vc60S:XTPControlComboBox.obj
 0001:00064d00       ?OnPaint@CXTPControlComboBoxList@@IAEXXZ 00465d00 f   ToolkitPro1501vc60S:XTPControlComboBox.obj
 0001:00064dc0       ?DrawCommandBar@CXTPControlComboBoxList@@MAEXPAVCDC@@VCRect@@@Z 00465dc0 f   ToolkitPro1501vc60S:XTPControlComboBox.obj
 0001:00064e10       ?GetMessageMap@CXTPControlComboBoxEditCtrl@@MBEPBUAFX_MSGMAP@@XZ 00465e10 f   ToolkitPro1501vc60S:XTPControlComboBox.obj
 0001:00064e20       ?OnEditChanged@CXTPControlComboBoxEditCtrl@@IAEXXZ 00465e20 f   ToolkitPro1501vc60S:XTPControlComboBox.obj
 0001:00064e70       ?UpdateCharFormat@CXTPControlComboBoxEditCtrl@@IAEXXZ 00465e70 f   ToolkitPro1501vc60S:XTPControlComboBox.obj
 0001:00064ef0       ?OnShellAutoCompleteStart@CXTPControlComboBoxEditCtrl@@IAEXXZ 00465ef0 f   ToolkitPro1501vc60S:XTPControlComboBox.obj
 0001:00064f10       ?OnRButtonDown@CXTPControlComboBoxEditCtrl@@IAEXIVCPoint@@@Z 00465f10 f   ToolkitPro1501vc60S:XTPControlComboBox.obj
 0001:00064fb0       ?OnDestroy@CXTPControlComboBoxEditCtrl@@IAEXXZ 00465fb0 f   ToolkitPro1501vc60S:XTPControlComboBox.obj
 0001:00064fd0       ?OnWndMsg@CXTPControlComboBoxEditCtrl@@MAEHIIJPAJ@Z 00465fd0 f   ToolkitPro1501vc60S:XTPControlComboBox.obj
 0001:00064fd0       ?OnWndMsg@CXTPControlEditCtrl@@MAEHIIJPAJ@Z 00465fd0 f   ToolkitPro1501vc60S:XTPControlComboBox.obj
 0001:00065010       ?OnSetFocus@CXTPControlComboBoxEditCtrl@@IAEXPAVCWnd@@@Z 00466010 f   ToolkitPro1501vc60S:XTPControlComboBox.obj
 0001:00065080       ?OnKillFocus@CXTPControlComboBoxEditCtrl@@IAEXPAVCWnd@@@Z 00466080 f   ToolkitPro1501vc60S:XTPControlComboBox.obj
 0001:000650a0       ?OnMouseMove@CXTPControlEditCtrl@@IAEXIVCPoint@@@Z 004660a0 f   ToolkitPro1501vc60S:XTPControlComboBox.obj
 0001:000650a0       ?OnMouseMove@CXTPControlComboBoxEditCtrl@@IAEXIVCPoint@@@Z 004660a0 f   ToolkitPro1501vc60S:XTPControlComboBox.obj
 0001:000650f0       ?Copy@CXTPControlComboBoxList@@MAEXPAVCXTPCommandBar@@H@Z 004660f0 f   ToolkitPro1501vc60S:XTPControlComboBox.obj
 0001:00065210       ?DoPropExchange@CXTPControlComboBoxList@@MAEXPAVCXTPPropExchange@@@Z 00466210 f   ToolkitPro1501vc60S:XTPControlComboBox.obj
 0001:00065480       ?OnMouseMove@CXTPControlComboBox@@MAEXVCPoint@@@Z 00466480 f   ToolkitPro1501vc60S:XTPControlComboBox.obj
 0001:00065540       ?GetListIconId@CXTPControlComboBox@@QBEHXZ 00466540 f   ToolkitPro1501vc60S:XTPControlComboBox.obj
 0001:00065560       ?GetCustomizeMinWidth@CXTPControlComboBox@@MBEHXZ 00466560 f   ToolkitPro1501vc60S:XTPControlComboBox.obj
 0001:00065580       ?DeflateEditRect@CXTPControlComboBox@@MAEXAAVCRect@@@Z 00466580 f   ToolkitPro1501vc60S:XTPControlComboBox.obj
 0001:000655c0       ?DrawEditText@CXTPControlComboBox@@UAEXPAVCDC@@VCRect@@@Z 004665c0 f   ToolkitPro1501vc60S:XTPControlComboBox.obj
 0001:00065840       ?CenterPoint@CRect@@QBE?AVCPoint@@XZ 00466840 f i ToolkitPro1501vc60S:XTPControlComboBox.obj
 0001:00065870       ?DrawItem@CXTPControlComboBox@@MAEXPAUtagDRAWITEMSTRUCT@@@Z 00466870 f   ToolkitPro1501vc60S:XTPControlComboBox.obj
 0001:00065aa0       ??_9@$BBLE@AE              00466aa0 f i ToolkitPro1501vc60S:XTPControlComboBox.obj
 0001:00065ab0       ??_9@$BBLI@AE              00466ab0 f i ToolkitPro1501vc60S:XTPControlComboBox.obj
 0001:00065ac0       ??_ECXTPControlComboBox@@WBM@AEPAXI@Z 00466ac0 f i ToolkitPro1501vc60S:XTPControlComboBox.obj
 0001:00065ad0       ??0CXTPTabControl@@QAE@XZ  00466ad0 f   ToolkitPro1501vc60S:XTPTabControl.obj
 0001:00065c40       ?GetPaintManager@CXTPTabControl@@UBEPAVCXTPTabPaintManager@@XZ 00466c40 f i ToolkitPro1501vc60S:XTPTabControl.obj
 0001:00065c50       ?OnDragLeave@CContainerDropTarget@CXTPDockingPaneTabbedContainer@@UAEXPAVCWnd@@@Z 00466c50 f i ToolkitPro1501vc60S:XTPTabControl.obj
 0001:00065c50       ?OnDragLeave@CPanelDropTarget@CXTPDockingPaneAutoHidePanel@@UAEXPAVCWnd@@@Z 00466c50 f i ToolkitPro1501vc60S:XTPTabControl.obj
 0001:00065c50       ?OnDragLeave@CTabControlDropTarget@CXTPTabControl@@UAEXPAVCWnd@@@Z 00466c50 f i ToolkitPro1501vc60S:XTPTabControl.obj
 0001:00065c70       ?OnDragOver@CTabControlDropTarget@CXTPTabControl@@UAEKPAVCWnd@@PAVCOleDataObject@@KVCPoint@@@Z 00466c70 f i ToolkitPro1501vc60S:XTPTabControl.obj
 0001:00065d20       ??_GCXTPTabControl@@UAEPAXI@Z 00466d20 f i ToolkitPro1501vc60S:XTPTabControl.obj
 0001:00065d20       ??_ECXTPTabControl@@UAEPAXI@Z 00466d20 f i ToolkitPro1501vc60S:XTPTabControl.obj
 0001:00065d40       ??1CXTPTabControl@@UAE@XZ  00466d40 f   ToolkitPro1501vc60S:XTPTabControl.obj
 0001:00065e00       ?Create@CXTPTabControl@@QAEHKABUtagRECT@@PAVCWnd@@I@Z 00466e00 f   ToolkitPro1501vc60S:XTPTabControl.obj
 0001:00065e60       ?InsertItem@CXTPTabControl@@QAEPAVCXTPTabManagerItem@@HPBDPAUHWND__@@HPAV2@@Z 00466e60 f   ToolkitPro1501vc60S:XTPTabControl.obj
 0001:00065ee0       ?RedrawControl@CXTPTabControl@@UAEXPBUtagRECT@@H@Z 00466ee0 f   ToolkitPro1501vc60S:XTPTabControl.obj
 0001:00065f10       ?Reposition@CXTPTabControl@@UAEXXZ 00466f10 f   ToolkitPro1501vc60S:XTPTabControl.obj
 0001:00066050       ?OnItemClick@CXTPTabControl@@UAEXPAVCXTPTabManagerItem@@@Z 00467050 f   ToolkitPro1501vc60S:XTPTabControl.obj
 0001:000660b0       ?SetSelectedItem@CXTPTabControl@@UAEXPAVCXTPTabManagerItem@@@Z 004670b0 f   ToolkitPro1501vc60S:XTPTabControl.obj
 0001:000661c0       ?PreSubclassWindow@CXTPTabControl@@MAEXXZ 004671c0 f   ToolkitPro1501vc60S:XTPTabControl.obj
 0001:000661e0       ?GetMessageMap@CXTPTabControl@@MBEPBUAFX_MSGMAP@@XZ 004671e0 f   ToolkitPro1501vc60S:XTPTabControl.obj
 0001:000661f0       ?DrawParentBackground@CXTPTabControl@@MAEHPAVCDC@@VCRect@@@Z 004671f0 f   ToolkitPro1501vc60S:XTPTabControl.obj
 0001:00066260       ?OnPaint@CXTPTabControl@@IAEXXZ 00467260 f   ToolkitPro1501vc60S:XTPTabControl.obj
 0001:00066330       ?OnPrintClient@CXTPTabControl@@IAEJIJ@Z 00467330 f   ToolkitPro1501vc60S:XTPTabControl.obj
 0001:000663c0       ?OnSize@CXTPTabControl@@IAEXIHH@Z 004673c0 f   ToolkitPro1501vc60S:XTPTabControl.obj
 0001:000663e0       ?OnLButtonDown@CXTPTabControl@@IAEXIVCPoint@@@Z 004673e0 f   ToolkitPro1501vc60S:XTPTabControl.obj
 0001:00066430       ?OnNavigateButtonClick@CXTPTabControl@@MAEXPAVCXTPTabManagerNavigateButton@@@Z 00467430 f   ToolkitPro1501vc60S:XTPTabControl.obj
 0001:00066460       ?OnSysColorChange@CXTPTabControl@@IAEXXZ 00467460 f   ToolkitPro1501vc60S:XTPTabControl.obj
 0001:00066490       ?OnToolHitTest@CXTPTabControl@@MBEHVCPoint@@PAUtagTOOLINFOA@@@Z 00467490 f   ToolkitPro1501vc60S:XTPTabControl.obj
 0001:000664c0       ?OnMouseMove@CXTPTabControl@@IAEXIVCPoint@@@Z 004674c0 f   ToolkitPro1501vc60S:XTPTabControl.obj
 0001:000664f0       ?OnMouseLeave@CXTPTabControl@@IAEXXZ 004674f0 f   ToolkitPro1501vc60S:XTPTabControl.obj
 0001:00066510       ?DrawIcon@CXTPTabControl@@UBEHPAVCDC@@VCPoint@@PAVCXTPTabManagerItem@@HAAVCSize@@@Z 00467510 f   ToolkitPro1501vc60S:XTPTabControl.obj
 0001:000665b0       ?SetPaintManager@CXTPTabControl@@UAEXPAVCXTPTabPaintManager@@@Z 004675b0 f   ToolkitPro1501vc60S:XTPTabControl.obj
 0001:000665e0       ?OnWndMsg@CXTPTabControl@@MAEHIIJPAJ@Z 004675e0 f   ToolkitPro1501vc60S:XTPTabControl.obj
 0001:00066620       ?OnKeyDown@CXTPTabControl@@IAEXIII@Z 00467620 f   ToolkitPro1501vc60S:XTPTabControl.obj
 0001:00066640       ?OnGetDlgCode@CXTPTabControl@@IAEIXZ 00467640 f   ToolkitPro1501vc60S:XTPTabControl.obj
 0001:00066660       ?OnSetFocus@CXTPTabControl@@IAEXPAVCWnd@@@Z 00467660 f   ToolkitPro1501vc60S:XTPTabControl.obj
 0001:00066660       ?OnKillFocus@CXTPTabControl@@IAEXPAVCWnd@@@Z 00467660 f   ToolkitPro1501vc60S:XTPTabControl.obj
 0001:00066680       ?SetFocusedItem@CXTPTabControl@@UAEXPAVCXTPTabManagerItem@@@Z 00467680 f   ToolkitPro1501vc60S:XTPTabControl.obj
 0001:000666d0       ?HeaderHasFocus@CXTPTabControl@@MBEHXZ 004676d0 f   ToolkitPro1501vc60S:XTPTabControl.obj
 0001:00066720       ?AdjustRect@CXTPTabControl@@QBEXHPAUtagRECT@@@Z 00467720 f   ToolkitPro1501vc60S:XTPTabControl.obj
 0001:000667d0       ??_ECXTPTabControl@@WDM@AEPAXI@Z 004677d0 f i ToolkitPro1501vc60S:XTPTabControl.obj
 0001:000667e0       ??0CXTPTabPaintManager@@QAE@XZ 004677e0 f   ToolkitPro1501vc60S:XTPTabPaintManager.obj
 0001:000669c0       ??_ECXTPTabPaintManager@@UAEPAXI@Z 004679c0 f i ToolkitPro1501vc60S:XTPTabPaintManager.obj
 0001:000669c0       ??_GCXTPTabPaintManager@@UAEPAXI@Z 004679c0 f i ToolkitPro1501vc60S:XTPTabPaintManager.obj
 0001:000669e0       ??1CXTPTabPaintManager@@UAE@XZ 004679e0 f   ToolkitPro1501vc60S:XTPTabPaintManager.obj
 0001:00066ae0       ?SetColor@CXTPTabPaintManager@@QAEPAVCColorSet@1@W4XTPTabColorStyle@@@Z 00467ae0 f   ToolkitPro1501vc60S:XTPTabPaintManager.obj
 0001:00066ed0       ?SelectClipRgn@CColorSet@CXTPTabPaintManager@@UAEXPAVCDC@@VCRect@@PAVCXTPTabManager@@@Z 00467ed0 f i ToolkitPro1501vc60S:XTPTabPaintManager.obj
 0001:00066ed0       ?DrawFloatingFrame@CXTPDockingPanePaintManager@@UAEXPAVCDC@@PAVCXTPDockingPaneMiniWnd@@VCRect@@@Z 00467ed0 f i ToolkitPro1501vc60S:XTPTabPaintManager.obj
 0001:00066ed0       ?DrawSidePanel@CXTPDockingPanePaintManager@@UAEXPAVCDC@@PAVCXTPDockingPaneSidePanel@@VCRect@@@Z 00467ed0 f i ToolkitPro1501vc60S:XTPTabPaintManager.obj
 0001:00066ee0       ??_GCColorSetWinNative@CXTPTabPaintManager@@UAEPAXI@Z 00467ee0 f i ToolkitPro1501vc60S:XTPTabPaintManager.obj
 0001:00066ee0       ??_ECColorSetWinNative@CXTPTabPaintManager@@UAEPAXI@Z 00467ee0 f i ToolkitPro1501vc60S:XTPTabPaintManager.obj
 0001:00066f00       ??1CColorSetWinNative@CXTPTabPaintManager@@UAE@XZ 00467f00 f i ToolkitPro1501vc60S:XTPTabPaintManager.obj
 0001:00066f60       ?SetColorSet@CXTPTabPaintManager@@QAEPAVCColorSet@1@PAV21@@Z 00467f60 f   ToolkitPro1501vc60S:XTPTabPaintManager.obj
 0001:00066fa0       ?SetAppearance@CXTPTabPaintManager@@QAEPAVCAppearanceSet@1@W4XTPTabAppearanceStyle@@@Z 00467fa0 f   ToolkitPro1501vc60S:XTPTabPaintManager.obj
 0001:000673e0       ?GetSupportedColorSets@CAppearanceSet@CXTPTabPaintManager@@UAEHXZ 004683e0 f i ToolkitPro1501vc60S:XTPTabPaintManager.obj
 0001:000673f0       ?GetSupportedColorSets@CAppearanceSetPropertyPage@CXTPTabPaintManager@@UAEHXZ 004683f0 f i ToolkitPro1501vc60S:XTPTabPaintManager.obj
 0001:00067400       ?GetHeaderMargin@CAppearanceSetPropertyPage2003@CXTPTabPaintManager@@UAE?AVCRect@@XZ 00468400 f i ToolkitPro1501vc60S:XTPTabPaintManager.obj
 0001:00067430       ?GetSupportedColorSets@CAppearanceSetPropertyPage2003@CXTPTabPaintManager@@UAEHXZ 00468430 f i ToolkitPro1501vc60S:XTPTabPaintManager.obj
 0001:00067440       ?GetDefaultColorSet@CAppearanceSetPropertyPage2007@CXTPTabPaintManager@@MAE?AW4XTPTabColorStyle@@XZ 00468440 f i ToolkitPro1501vc60S:XTPTabPaintManager.obj
 0001:00067440       ?GetSupportedColorSets@CAppearanceSetPropertyPage2007@CXTPTabPaintManager@@MAEHXZ 00468440 f i ToolkitPro1501vc60S:XTPTabPaintManager.obj
 0001:00067450       ?GetSupportedColorSets@CAppearanceSetPropertyPageAccess2007@CXTPTabPaintManager@@MAEHXZ 00468450 f i ToolkitPro1501vc60S:XTPTabPaintManager.obj
 0001:00067450       ?GetDefaultColorSet@CAppearanceSetPropertyPageAccess2007@CXTPTabPaintManager@@MAE?AW4XTPTabColorStyle@@XZ 00468450 f i ToolkitPro1501vc60S:XTPTabPaintManager.obj
 0001:00067460       ?GetHeaderMargin@CAppearanceSetPropertyPageAccess2007@CXTPTabPaintManager@@MAE?AVCRect@@XZ 00468460 f i ToolkitPro1501vc60S:XTPTabPaintManager.obj
 0001:000674a0       ?GetDefaultColorSet@CAppearanceSetFlat@CXTPTabPaintManager@@UAE?AW4XTPTabColorStyle@@XZ 004684a0 f i ToolkitPro1501vc60S:XTPTabPaintManager.obj
 0001:000674a0       ?BaseTheme@CXTPOffice2003Theme@@MAE?AW4XTPPaintTheme@@XZ 004684a0 f i ToolkitPro1501vc60S:XTPTabPaintManager.obj
 0001:000674a0       ?GetDefaultColorSet@CAppearanceSetVisualStudio@CXTPTabPaintManager@@UAE?AW4XTPTabColorStyle@@XZ 004684a0 f i ToolkitPro1501vc60S:XTPTabPaintManager.obj
 0001:000674a0       ?GetDefaultColorSet@CAppearanceSetStateButtons@CXTPTabPaintManager@@UAE?AW4XTPTabColorStyle@@XZ 004684a0 f i ToolkitPro1501vc60S:XTPTabPaintManager.obj
 0001:000674b0       ?BaseTheme@CXTPVisualStudio2008Theme@@UAE?AW4XTPPaintTheme@@XZ 004684b0 f i ToolkitPro1501vc60S:XTPTabPaintManager.obj
 0001:000674b0       ?GetSupportedColorSets@CAppearanceSetVisualStudio@CXTPTabPaintManager@@UAEHXZ 004684b0 f i ToolkitPro1501vc60S:XTPTabPaintManager.obj
 0001:000674c0       ?GetHeaderMargin@CAppearanceSetVisualStudio2005@CXTPTabPaintManager@@UAE?AVCRect@@XZ 004684c0 f i ToolkitPro1501vc60S:XTPTabPaintManager.obj
 0001:00067500       ?GetSupportedColorSets@CAppearanceSetFlat@CXTPTabPaintManager@@UAEHXZ 00468500 f i ToolkitPro1501vc60S:XTPTabPaintManager.obj
 0001:00067510       ?GetDefaultColorSet@CAppearanceSetPropertyPageFlat@CXTPTabPaintManager@@UAE?AW4XTPTabColorStyle@@XZ 00468510 f i ToolkitPro1501vc60S:XTPTabPaintManager.obj
 0001:00067510       ?IsCustomizeResizeAllow@CXTPControlComboBox@@MBEHXZ 00468510 f i ToolkitPro1501vc60S:XTPTabPaintManager.obj
 0001:00067510       ?IsPopupBar@CXTPPopupBar@@UBEHXZ 00468510 f i ToolkitPro1501vc60S:XTPTabPaintManager.obj
 0001:00067510       ?GetDefaultColorSet@CAppearanceSetPropertyPage@CXTPTabPaintManager@@UAE?AW4XTPTabColorStyle@@XZ 00468510 f i ToolkitPro1501vc60S:XTPTabPaintManager.obj
 0001:00067510       ?BaseTheme@CXTPOfficeTheme@@MAE?AW4XTPPaintTheme@@XZ 00468510 f i ToolkitPro1501vc60S:XTPTabPaintManager.obj
 0001:00067510       ?IsDialogBar@CXTPDialogBar@@MBEHXZ 00468510 f i ToolkitPro1501vc60S:XTPTabPaintManager.obj
 0001:00067510       ?IsAllowBlobValues@CXTPPropExchangeRegistry@@UBEHXZ 00468510 f i ToolkitPro1501vc60S:XTPTabPaintManager.obj
 0001:00067510       ?IsAllowDefaultValues@CXTPPropExchange@@UBEHXZ 00468510 f i ToolkitPro1501vc60S:XTPTabPaintManager.obj
 0001:00067510       ?IsEvent@CXTPMarkupRoutedEvent@@UBEHXZ 00468510 f i ToolkitPro1501vc60S:XTPTabPaintManager.obj
 0001:00067510       ?IsAllowBlobValues@CXTPPropExchangeArchive@@UBEHXZ 00468510 f i ToolkitPro1501vc60S:XTPTabPaintManager.obj
 0001:00067510       ?IsRibbonBar@CXTPRibbonBar@@UBEHXZ 00468510 f i ToolkitPro1501vc60S:XTPTabPaintManager.obj
 0001:00067510       ?IsCustomizeResizeAllow@CXTPControlEdit@@MBEHXZ 00468510 f i ToolkitPro1501vc60S:XTPTabPaintManager.obj
 0001:00067510       ?GetDefaultColorSet@CAppearanceSet@CXTPTabPaintManager@@UAE?AW4XTPTabColorStyle@@XZ 00468510 f i ToolkitPro1501vc60S:XTPTabPaintManager.obj
 0001:00067510       ?Unlock@CEmptySyncObject@CXTPNotifyConnection@@UAEHXZ 00468510 f i ToolkitPro1501vc60S:XTPTabPaintManager.obj
 0001:00067520       ?GetHeaderMargin@CAppearanceSetExcel@CXTPTabPaintManager@@UAE?AVCRect@@XZ 00468520 f i ToolkitPro1501vc60S:XTPTabPaintManager.obj
 0001:00067560       ?GetSupportedColorSets@CAppearanceSetVisio@CXTPTabPaintManager@@UAEHXZ 00468560 f i ToolkitPro1501vc60S:XTPTabPaintManager.obj
 0001:00067560       ?BaseTheme@CXTPOffice2007Theme@@MAE?AW4XTPPaintTheme@@XZ 00468560 f i ToolkitPro1501vc60S:XTPTabPaintManager.obj
 0001:00067570       ?GetHeaderMargin@CAppearanceSet@CXTPTabPaintManager@@UAE?AVCRect@@XZ 00468570 f i ToolkitPro1501vc60S:XTPTabPaintManager.obj
 0001:000675a0       ?FillTabControl@CAppearanceSet@CXTPTabPaintManager@@UAE?AVCRect@@PAVCXTPTabManager@@PAVCDC@@V3@@Z 004685a0 f i ToolkitPro1501vc60S:XTPTabPaintManager.obj
 0001:000675d0       ?DrawTabControl@CAppearanceSet@CXTPTabPaintManager@@UAEXPAVCXTPTabManager@@PAVCDC@@VCRect@@@Z 004685d0 f i ToolkitPro1501vc60S:XTPTabPaintManager.obj
 0001:00067610       ?RepositionTabControl@CAppearanceSet@CXTPTabPaintManager@@UAEXPAVCXTPTabManager@@PAVCDC@@VCRect@@@Z 00468610 f i ToolkitPro1501vc60S:XTPTabPaintManager.obj
 0001:00067650       ?SetAppearanceSet@CXTPTabPaintManager@@QAEPAVCAppearanceSet@1@PAV21@@Z 00468650 f   ToolkitPro1501vc60S:XTPTabPaintManager.obj
 0001:000676a0       ?SetFontIndirect@CXTPTabPaintManager@@QAEXPAUtagLOGFONTA@@H@Z 004686a0 f   ToolkitPro1501vc60S:XTPTabPaintManager.obj
 0001:000677f0       ?RefreshMetrics@CXTPTabPaintManager@@UAEXXZ 004687f0 f   ToolkitPro1501vc60S:XTPTabPaintManager.obj
 0001:00067840       ?DisableLunaColors@CXTPTabPaintManager@@QAEXH@Z 00468840 f   ToolkitPro1501vc60S:XTPTabPaintManager.obj
 0001:00067860       ?IsLunaColorsDisabled@CXTPTabPaintManager@@QBEHXZ 00468860 f   ToolkitPro1501vc60S:XTPTabPaintManager.obj
 0001:00067880       ?GetOneNoteColor@CXTPTabPaintManager@@SAKW4XTPTabOneNoteColor@@@Z 00468880 f   ToolkitPro1501vc60S:XTPTabPaintManager.obj
 0001:000678e0       ?DrawNavigateButton@CXTPTabPaintManager@@UAEXPAVCDC@@PAVCXTPTabManagerNavigateButton@@AAVCRect@@@Z 004688e0 f   ToolkitPro1501vc60S:XTPTabPaintManager.obj
 0001:000679f0       ?FillNavigateButton@CXTPTabPaintManager@@QAEXPAVCDC@@PAVCXTPTabManagerNavigateButton@@AAVCRect@@@Z 004689f0 f   ToolkitPro1501vc60S:XTPTabPaintManager.obj
 0001:00067a10       ?DrawTabControl@CXTPTabPaintManager@@UAEXPAVCXTPTabManager@@PAVCDC@@VCRect@@@Z 00468a10 f   ToolkitPro1501vc60S:XTPTabPaintManager.obj
 0001:00067a50       ?DrawRowItems@CXTPTabPaintManager@@IAEXPAVCXTPTabManager@@PAVCDC@@ABVCRect@@H@Z 00468a50 f   ToolkitPro1501vc60S:XTPTabPaintManager.obj
 0001:00067bf0       ?DrawTabControlEx@CXTPTabPaintManager@@IAEXPAVCXTPTabManager@@PAVCDC@@VCRect@@@Z 00468bf0 f   ToolkitPro1501vc60S:XTPTabPaintManager.obj
 0001:00067f30       ?_GetButtonLength@CXTPTabPaintManager@@IAEHHHH@Z 00468f30 f   ToolkitPro1501vc60S:XTPTabPaintManager.obj
 0001:00067f60       ?StripMnemonics@CXTPTabPaintManager@@IAEXAAVCString@@@Z 00468f60 f   ToolkitPro1501vc60S:XTPTabPaintManager.obj
 0001:00067f70       ?GetPrefixTextExtent@CXTPTabPaintManager@@IAEHPAVCDC@@ABVCString@@I@Z 00468f70 f   ToolkitPro1501vc60S:XTPTabPaintManager.obj
 0001:00068030       ?DrawTextPathEllipsis@CXTPTabPaintManager@@IAEXPAVCDC@@PAVCXTPTabManager@@ABVCString@@VCRect@@I@Z 00469030 f   ToolkitPro1501vc60S:XTPTabPaintManager.obj
 0001:000683d0       ?DrawFocusRect@CXTPTabPaintManager@@MAEXPAVCDC@@PAVCXTPTabManagerItem@@VCRect@@@Z 004693d0 f   ToolkitPro1501vc60S:XTPTabPaintManager.obj
 0001:00068420       ?DrawSingleButtonIconAndText@CXTPTabPaintManager@@UAEHPAVCDC@@PAVCXTPTabManagerItem@@VCRect@@H@Z 00469420 f   ToolkitPro1501vc60S:XTPTabPaintManager.obj
 0001:00069020       ?AdjustClientRect@CXTPTabPaintManager@@UAEXPAVCXTPTabManager@@AAVCRect@@@Z 0046a020 f   ToolkitPro1501vc60S:XTPTabPaintManager.obj
 0001:000690a0       ?RepositionNavigateButtons@CXTPTabPaintManager@@QAE?AVCRect@@PAVCXTPTabManager@@V2@@Z 0046a0a0 f   ToolkitPro1501vc60S:XTPTabPaintManager.obj
 0001:00069170       ?RepositionTabControl@CXTPTabPaintManager@@UAEXPAVCXTPTabManager@@PAVCDC@@VCRect@@@Z 0046a170 f   ToolkitPro1501vc60S:XTPTabPaintManager.obj
 0001:00069230       ?_CreateMultiRowIndexerBestFit@CXTPTabPaintManager@@IAEHPAVCXTPTabManager@@HHH@Z 0046a230 f   ToolkitPro1501vc60S:XTPTabPaintManager.obj
 0001:00069340       ?CreateMultiRowIndexer@CXTPTabPaintManager@@IAEXPAVCXTPTabManager@@PAVCDC@@H@Z 0046a340 f   ToolkitPro1501vc60S:XTPTabPaintManager.obj
 0001:00069460       ?RepositionTabControlMultiRow@CXTPTabPaintManager@@IAEXPAVCXTPTabManager@@PAVCDC@@VCRect@@@Z 0046a460 f   ToolkitPro1501vc60S:XTPTabPaintManager.obj
 0001:00069a50       ?RepositionTabControlEx@CXTPTabPaintManager@@IAEXPAVCXTPTabManager@@PAVCDC@@VCRect@@@Z 0046aa50 f   ToolkitPro1501vc60S:XTPTabPaintManager.obj
 0001:0006a220       ?EnsureVisible@CXTPTabPaintManager@@QAEXPAVCXTPTabManager@@PAVCXTPTabManagerItem@@@Z 0046b220 f   ToolkitPro1501vc60S:XTPTabPaintManager.obj
 0001:0006a370       ?_SizeToFitCompare@CXTPTabPaintManager@@KAHPBX0@Z 0046b370 f   ToolkitPro1501vc60S:XTPTabPaintManager.obj
 0001:0006a390       ?SizeToFit@CXTPTabPaintManager@@IAEXPAVCXTPTabManager@@H@Z 0046b390 f   ToolkitPro1501vc60S:XTPTabPaintManager.obj
 0001:0006a4a0       ?GetAppearance@CXTPTabPaintManager@@QBE?AW4XTPTabAppearanceStyle@@XZ 0046b4a0 f   ToolkitPro1501vc60S:XTPTabPaintManager.obj
 0001:0006a4b0       ?GetColor@CXTPTabPaintManager@@QBE?AW4XTPTabColorStyle@@XZ 0046b4b0 f   ToolkitPro1501vc60S:XTPTabPaintManager.obj
 0001:0006a4c0       ?SetPosition@CXTPTabPaintManager@@QAEXW4XTPTabPosition@@@Z 0046b4c0 f   ToolkitPro1501vc60S:XTPTabPaintManager.obj
 0001:0006a4e0       ?SetLayout@CXTPTabPaintManager@@QAEXW4XTPTabLayoutStyle@@@Z 0046b4e0 f   ToolkitPro1501vc60S:XTPTabPaintManager.obj
 0001:0006a500       ?GetPosition@CXTPTabPaintManager@@QBE?AW4XTPTabPosition@@XZ 0046b500 f   ToolkitPro1501vc60S:XTPTabPaintManager.obj
 0001:0006a510       ?GetLayout@CXTPTabPaintManager@@QBE?AW4XTPTabLayoutStyle@@XZ 0046b510 f   ToolkitPro1501vc60S:XTPTabPaintManager.obj
 0001:0006a520       ?OnPropertyChanged@CXTPTabPaintManager@@MAEXXZ 0046b520 f   ToolkitPro1501vc60S:XTPTabPaintManager.obj
 0001:0006a550       ??1?$CArray@PAVCXTPTabManagerAtom@@PAV1@@@UAE@XZ 0046b550 f i ToolkitPro1501vc60S:XTPTabPaintManager.obj
 0001:0006a5a0       ??_E?$CArray@PAVCXTPTabManagerAtom@@PAV1@@@UAEPAXI@Z 0046b5a0 f i ToolkitPro1501vc60S:XTPTabPaintManager.obj
 0001:0006a5a0       ??_G?$CArray@PAVCXTPTabManagerAtom@@PAV1@@@UAEPAXI@Z 0046b5a0 f i ToolkitPro1501vc60S:XTPTabPaintManager.obj
 0001:0006a5c0       ?GetRuntimeClass@CXTPToolTipContextToolTip@@UBEPAUCRuntimeClass@@XZ 0046b5c0 f   ToolkitPro1501vc60S:XTPToolTipContext.obj
 0001:0006a5d0       ?XTPStripEllipsis@@YAXPAD@Z 0046b5d0 f   ToolkitPro1501vc60S:XTPToolTipContext.obj
 0001:0006a610       ??0CXTPToolTipContextToolTip@@QAE@PAVCXTPToolTipContext@@@Z 0046b610 f   ToolkitPro1501vc60S:XTPToolTipContext.obj
 0001:0006a760       ?SetBeginGroup@CControlButtonHide@CXTPToolBar@@UAEXH@Z 0046b760 f i ToolkitPro1501vc60S:XTPToolTipContext.obj
 0001:0006a760       ?OnRender@CXTPMarkupVisual@@MAEXPAVCXTPMarkupDrawingContext@@@Z 0046b760 f i ToolkitPro1501vc60S:XTPToolTipContext.obj
 0001:0006a760       ?OnNavigateButtonClick@CXTPTabManager@@MAEXI@Z 0046b760 f i ToolkitPro1501vc60S:XTPToolTipContext.obj
 0001:0006a760       ?OnRenderFocusVisual@CXTPMarkupVisual@@MAEXPAVCXTPMarkupDrawingContext@@@Z 0046b760 f i ToolkitPro1501vc60S:XTPToolTipContext.obj
 0001:0006a760       ?OnCaptionButtonRectChanged@CXTPDockingPaneBase@@MAEXPAVCXTPDockingPaneCaptionButton@@@Z 0046b760 f i ToolkitPro1501vc60S:XTPToolTipContext.obj
 0001:0006a760       ?SetBeginGroup@CControlMDIButton@CXTPMenuBar@@UAEXH@Z 0046b760 f i ToolkitPro1501vc60S:XTPToolTipContext.obj
 0001:0006a760       ?SetFocused@CXTPControl@@UAEXH@Z 0046b760 f i ToolkitPro1501vc60S:XTPToolTipContext.obj
 0001:0006a760       ?SetBeginGroup@CControlButtonExpand@CXTPToolBar@@UAEXH@Z 0046b760 f i ToolkitPro1501vc60S:XTPToolTipContext.obj
 0001:0006a760       ?OnVisibleChanged@CXTPToolTipContextToolTip@@MAEXH@Z 0046b760 f i ToolkitPro1501vc60S:XTPToolTipContext.obj
 0001:0006a760       ?OnActionChanging@CXTPControl@@MAEXH@Z 0046b760 f i ToolkitPro1501vc60S:XTPToolTipContext.obj
 0001:0006a760       ?OnCalcDynamicSize@CXTPControl@@UAEXK@Z 0046b760 f i ToolkitPro1501vc60S:XTPToolTipContext.obj
 0001:0006a760       ?SetCurSel@CXTPControlComboBoxPopupBar@@UAEXH@Z 0046b760 f i ToolkitPro1501vc60S:XTPToolTipContext.obj
 0001:0006a760       ?SetPaintManager@CXTPTabManager@@UAEXPAVCXTPTabPaintManager@@@Z 0046b760 f i ToolkitPro1501vc60S:XTPToolTipContext.obj
 0001:0006a760       ?SetBeginGroup@CControlButtonHide@CXTPDialogBar@@UAEXH@Z 0046b760 f i ToolkitPro1501vc60S:XTPToolTipContext.obj
 0001:0006a760       ?SetVisible@CXTPCommandBar@@UAEXH@Z 0046b760 f i ToolkitPro1501vc60S:XTPToolTipContext.obj
 0001:0006a770       ??_ECXTPToolTipContextToolTip@@UAEPAXI@Z 0046b770 f i ToolkitPro1501vc60S:XTPToolTipContext.obj
 0001:0006a770       ??_GCXTPToolTipContextToolTip@@UAEPAXI@Z 0046b770 f i ToolkitPro1501vc60S:XTPToolTipContext.obj
 0001:0006a790       ??1TOOLITEM@CXTPToolTipContextToolTip@@QAE@XZ 0046b790 f i ToolkitPro1501vc60S:XTPToolTipContext.obj
 0001:0006a790       ??1ITEMDATA@CXTPSortClass@@QAE@XZ 0046b790 f i ToolkitPro1501vc60S:XTPToolTipContext.obj
 0001:0006a7a0       ??1CXTPToolTipContextToolTip@@UAE@XZ 0046b7a0 f   ToolkitPro1501vc60S:XTPToolTipContext.obj
 0001:0006a890       ?GetMessageMap@CXTPToolTipContextToolTip@@MBEPBUAFX_MSGMAP@@XZ 0046b890 f   ToolkitPro1501vc60S:XTPToolTipContext.obj
 0001:0006a8a0       ?Create@CXTPToolTipContextToolTip@@QAEHPAVCWnd@@K@Z 0046b8a0 f   ToolkitPro1501vc60S:XTPToolTipContext.obj
 0001:0006a960       ?OnDestroy@CXTPToolTipContextToolTip@@IAEXXZ 0046b960 f   ToolkitPro1501vc60S:XTPToolTipContext.obj
 0001:0006aa60       ?OnSetImage@CXTPToolTipContextToolTip@@IAEJIJ@Z 0046ba60 f   ToolkitPro1501vc60S:XTPToolTipContext.obj
 0001:0006aa70       ?OnSetTitle@CXTPToolTipContextToolTip@@IAEJIJ@Z 0046ba70 f   ToolkitPro1501vc60S:XTPToolTipContext.obj
 0001:0006aa90       ?OnSetDelayTime@CXTPToolTipContextToolTip@@IAEJIJ@Z 0046ba90 f   ToolkitPro1501vc60S:XTPToolTipContext.obj
 0001:0006aad0       ?OnUpdateTipText@CXTPToolTipContextToolTip@@IAEJIJ@Z 0046bad0 f   ToolkitPro1501vc60S:XTPToolTipContext.obj
 0001:0006ab40       ?OnAddTool@CXTPToolTipContextToolTip@@IAEJIJ@Z 0046bb40 f   ToolkitPro1501vc60S:XTPToolTipContext.obj
 0001:0006ab50       ?OnActivate@CXTPToolTipContextToolTip@@IAEJIJ@Z 0046bb50 f   ToolkitPro1501vc60S:XTPToolTipContext.obj
 0001:0006ab60       ?OnDelTool@CXTPToolTipContextToolTip@@IAEJIJ@Z 0046bb60 f   ToolkitPro1501vc60S:XTPToolTipContext.obj
 0001:0006ab70       ?OnRelayEvent@CXTPToolTipContextToolTip@@IAEJIJ@Z 0046bb70 f   ToolkitPro1501vc60S:XTPToolTipContext.obj
 0001:0006ab80       ?OnWindowFromPoint@CXTPToolTipContextToolTip@@IAEJIJ@Z 0046bb80 f   ToolkitPro1501vc60S:XTPToolTipContext.obj
 0001:0006abe0       ?AddTool@CXTPToolTipContextToolTip@@QAEHPAUtagTOOLINFOA@@@Z 0046bbe0 f   ToolkitPro1501vc60S:XTPToolTipContext.obj
 0001:0006adc0       ?Activate@CXTPToolTipContextToolTip@@QAEXH@Z 0046bdc0 f   ToolkitPro1501vc60S:XTPToolTipContext.obj
 0001:0006ae50       ?DelTool@CXTPToolTipContextToolTip@@QAEXPAUtagTOOLINFOA@@@Z 0046be50 f   ToolkitPro1501vc60S:XTPToolTipContext.obj
 0001:0006afc0       ?FindTool@CXTPToolTipContextToolTip@@IAEPAUTOOLITEM@1@XZ 0046bfc0 f   ToolkitPro1501vc60S:XTPToolTipContext.obj
 0001:0006b0d0       ?GetToolText@CXTPToolTipContextToolTip@@IAE?AVCString@@PAUTOOLITEM@1@@Z 0046c0d0 f   ToolkitPro1501vc60S:XTPToolTipContext.obj
 0001:0006b1a0       ?GetMaxTipWidth@CXTPToolTipContextToolTip@@IBEHXZ 0046c1a0 f   ToolkitPro1501vc60S:XTPToolTipContext.obj
 0001:0006b1c0       ?GetToolSize@CXTPToolTipContextToolTip@@MAE?AVCSize@@PAUTOOLITEM@1@@Z 0046c1c0 f   ToolkitPro1501vc60S:XTPToolTipContext.obj
 0001:0006b490       ?MouseProc@CXTPToolTipContextToolTip@@KGJHIJ@Z 0046c490 f   ToolkitPro1501vc60S:XTPToolTipContext.obj
 0001:0006b540       ?HookMouseMove@CXTPToolTipContextToolTip@@IAEXH@Z 0046c540 f   ToolkitPro1501vc60S:XTPToolTipContext.obj
 0001:0006b5b0       ?EnsureVisible@CXTPToolTipContextToolTip@@IAEXAAVCRect@@@Z 0046c5b0 f   ToolkitPro1501vc60S:XTPToolTipContext.obj
 0001:0006b640       ?GetCursorHeight@CXTPToolTipContext@@SAHXZ 0046c640 f   ToolkitPro1501vc60S:XTPToolTipContext.obj
 0001:0006b770       ?SetRoundRectRegion@CXTPToolTipContextToolTip@@IAEXPAVCWnd@@@Z 0046c770 f   ToolkitPro1501vc60S:XTPToolTipContext.obj
 0001:0006b8e0       ?SetVisibleTool@CXTPToolTipContextToolTip@@IAEXPAUTOOLITEM@1@@Z 0046c8e0 f   ToolkitPro1501vc60S:XTPToolTipContext.obj
 0001:0006bc60       ?RelayEvent@CXTPToolTipContextToolTip@@QAEXPAUtagMSG@@@Z 0046cc60 f   ToolkitPro1501vc60S:XTPToolTipContext.obj
 0001:0006bea0       ?DrawEntry@CXTPToolTipContextToolTip@@MAEXPAVCDC@@PAUTOOLITEM@1@VCRect@@@Z 0046cea0 f   ToolkitPro1501vc60S:XTPToolTipContext.obj
 0001:0006c1d0       ?DrawBackground@CXTPToolTipContextToolTip@@MAEXPAVCDC@@PAUTOOLITEM@1@VCRect@@@Z 0046d1d0 f   ToolkitPro1501vc60S:XTPToolTipContext.obj
 0001:0006c210       ?OnPaint@CXTPToolTipContextToolTip@@IAEXXZ 0046d210 f   ToolkitPro1501vc60S:XTPToolTipContext.obj
 0001:0006c330       ?DrawBackground@CXTPToolTipContext@@UAEXPAVCDC@@VCRect@@@Z 0046d330 f   ToolkitPro1501vc60S:XTPToolTipContext.obj
 0001:0006c530       ?OnMouseActivate@CXTPToolTipContextToolTip@@IAEHPAVCWnd@@II@Z 0046d530 f   ToolkitPro1501vc60S:XTPToolTipContext.obj
 0001:0006c530       ?OnMouseActivate@CXTPPopupBar@@IAEHPAVCWnd@@II@Z 0046d530 f   ToolkitPro1501vc60S:XTPToolTipContext.obj
 0001:0006c540       ?OnMouseMove@CXTPToolTipContextToolTip@@IAEXIVCPoint@@@Z 0046d540 f   ToolkitPro1501vc60S:XTPToolTipContext.obj
 0001:0006c550       ?OnTimer@CXTPToolTipContextToolTip@@IAEXI@Z 0046d550 f   ToolkitPro1501vc60S:XTPToolTipContext.obj
 0001:0006c620       ?GetMessageMap@CStandardToolTip@CXTPToolTipContext@@MBEPBUAFX_MSGMAP@@XZ 0046d620 f   ToolkitPro1501vc60S:XTPToolTipContext.obj
 0001:0006c630       ?OnWindowFromPoint@CStandardToolTip@CXTPToolTipContext@@IAEJIJ@Z 0046d630 f   ToolkitPro1501vc60S:XTPToolTipContext.obj
 0001:0006c680       ?GetToolSize@CRichEditToolTip@CXTPToolTipContext@@MAE?AVCSize@@PAUTOOLITEM@CXTPToolTipContextToolTip@@@Z 0046d680 f   ToolkitPro1501vc60S:XTPToolTipContext.obj
 0001:0006c8d0       ?DrawEntry@CRichEditToolTip@CXTPToolTipContext@@MAEXPAVCDC@@PAUTOOLITEM@CXTPToolTipContextToolTip@@VCRect@@@Z 0046d8d0 f   ToolkitPro1501vc60S:XTPToolTipContext.obj
 0001:0006c940       ?GetToolSize@CMarkupToolTip@CXTPToolTipContext@@MAE?AVCSize@@PAUTOOLITEM@CXTPToolTipContextToolTip@@@Z 0046d940 f   ToolkitPro1501vc60S:XTPToolTipContext.obj
 0001:0006ca70       ?DrawEntry@CMarkupToolTip@CXTPToolTipContext@@MAEXPAVCDC@@PAUTOOLITEM@CXTPToolTipContextToolTip@@VCRect@@@Z 0046da70 f   ToolkitPro1501vc60S:XTPToolTipContext.obj
 0001:0006cb40       ?GetInterfaceMap@CHTMLToolTip@CXTPToolTipContext@@MBEPBUAFX_INTERFACEMAP@@XZ 0046db40 f   ToolkitPro1501vc60S:XTPToolTipContext.obj
 0001:0006cb50       ?AddRef@XOleClientSite@CHTMLToolTip@CXTPToolTipContext@@UAGKXZ 0046db50 f   ToolkitPro1501vc60S:XTPToolTipContext.obj
 0001:0006cb70       ?Release@XOleClientSite@CHTMLToolTip@CXTPToolTipContext@@UAGKXZ 0046db70 f   ToolkitPro1501vc60S:XTPToolTipContext.obj
 0001:0006cb90       ?QueryInterface@XOleClientSite@CHTMLToolTip@CXTPToolTipContext@@UAGJABU_GUID@@PAPAX@Z 0046db90 f   ToolkitPro1501vc60S:XTPToolTipContext.obj
 0001:0006cbb0       ?AddRef@XDocHostUIHandler@CHTMLToolTip@CXTPToolTipContext@@UAGKXZ 0046dbb0 f   ToolkitPro1501vc60S:XTPToolTipContext.obj
 0001:0006cbd0       ?Release@XDocHostUIHandler@CHTMLToolTip@CXTPToolTipContext@@UAGKXZ 0046dbd0 f   ToolkitPro1501vc60S:XTPToolTipContext.obj
 0001:0006cbf0       ?QueryInterface@XDocHostUIHandler@CHTMLToolTip@CXTPToolTipContext@@UAGJABU_GUID@@PAPAX@Z 0046dbf0 f   ToolkitPro1501vc60S:XTPToolTipContext.obj
 0001:0006cc10       ?GetHostInfo@XDocHostUIHandler@CHTMLToolTip@CXTPToolTipContext@@UAGJPAU_DOCHOSTUIINFO@@@Z 0046dc10 f   ToolkitPro1501vc60S:XTPToolTipContext.obj
 0001:0006cc30       ?ShowUI@XDocHostUIHandler@CHTMLToolTip@CXTPToolTipContext@@UAGJKPAUIOleInPlaceActiveObject@@PAUIOleCommandTarget@@PAUIOleInPlaceFrame@@PAUIOleInPlaceUIWindow@@@Z 0046dc30 f   ToolkitPro1501vc60S:XTPToolTipContext.obj
 0001:0006cc40       ?ShowContextMenu@XDocHostUIHandler@CHTMLToolTip@CXTPToolTipContext@@UAGJKPAUtagPOINT@@PAUIUnknown@@PAUIDispatch@@@Z 0046dc40 f   ToolkitPro1501vc60S:XTPToolTipContext.obj
 0001:0006cc50       ?GetDropTarget@XDocHostUIHandler@CHTMLToolTip@CXTPToolTipContext@@UAGJPAUIDropTarget@@PAPAU4@@Z 0046dc50 f   ToolkitPro1501vc60S:XTPToolTipContext.obj
 0001:0006cc50       ?AccessibleHitTest@CXTPAccessible@@UAEJJJPAUtagVARIANT@@@Z 0046dc50 f   ToolkitPro1501vc60S:XTPToolTipContext.obj
 0001:0006cc50       ?FilterDataObject@XDocHostUIHandler@CHTMLToolTip@CXTPToolTipContext@@UAGJPAUIDataObject@@PAPAU4@@Z 0046dc50 f   ToolkitPro1501vc60S:XTPToolTipContext.obj
 0001:0006cc50       ?GetOptionKeyPath@XDocHostUIHandler@CHTMLToolTip@CXTPToolTipContext@@UAGJPAPAGK@Z 0046dc50 f   ToolkitPro1501vc60S:XTPToolTipContext.obj
 0001:0006cc60       ??0CHTMLToolTip@CXTPToolTipContext@@QAE@PAV1@@Z 0046dc60 f   ToolkitPro1501vc60S:XTPToolTipContext.obj
 0001:0006cd00       ?ShowObject@XOleClientSite@CHTMLToolTip@CXTPToolTipContext@@UAGJXZ 0046dd00 f i ToolkitPro1501vc60S:XTPToolTipContext.obj
 0001:0006cd00       ?SaveObject@XOleClientSite@CHTMLToolTip@CXTPToolTipContext@@UAGJXZ 0046dd00 f i ToolkitPro1501vc60S:XTPToolTipContext.obj
 0001:0006cd00       ?RequestNewObjectLayout@XOleClientSite@CHTMLToolTip@CXTPToolTipContext@@UAGJXZ 0046dd00 f i ToolkitPro1501vc60S:XTPToolTipContext.obj
 0001:0006cd10       ?GetMoniker@XOleClientSite@CHTMLToolTip@CXTPToolTipContext@@UAGJKKPAPAUIMoniker@@@Z 0046dd10 f i ToolkitPro1501vc60S:XTPToolTipContext.obj
 0001:0006cd20       ?OnShowWindow@XOleClientSite@CHTMLToolTip@CXTPToolTipContext@@UAGJH@Z 0046dd20 f i ToolkitPro1501vc60S:XTPToolTipContext.obj
 0001:0006cd20       ?GetContainer@XOleClientSite@CHTMLToolTip@CXTPToolTipContext@@UAGJPAPAUIOleContainer@@@Z 0046dd20 f i ToolkitPro1501vc60S:XTPToolTipContext.obj
 0001:0006cd30       ??_GCHTMLToolTip@CXTPToolTipContext@@UAEPAXI@Z 0046dd30 f i ToolkitPro1501vc60S:XTPToolTipContext.obj
 0001:0006cd30       ??_ECHTMLToolTip@CXTPToolTipContext@@UAEPAXI@Z 0046dd30 f i ToolkitPro1501vc60S:XTPToolTipContext.obj
 0001:0006cd50       ??1CHTMLToolTip@CXTPToolTipContext@@UAE@XZ 0046dd50 f   ToolkitPro1501vc60S:XTPToolTipContext.obj
 0001:0006cde0       ?GetToolSize@CHTMLToolTip@CXTPToolTipContext@@MAE?AVCSize@@PAUTOOLITEM@CXTPToolTipContextToolTip@@@Z 0046dde0 f   ToolkitPro1501vc60S:XTPToolTipContext.obj
 0001:0006d340       ?DrawEntry@CHTMLToolTip@CXTPToolTipContext@@MAEXPAVCDC@@PAUTOOLITEM@CXTPToolTipContextToolTip@@VCRect@@@Z 0046e340 f   ToolkitPro1501vc60S:XTPToolTipContext.obj
 0001:0006d3d0       ?OnVisibleChanged@CHTMLToolTip@CXTPToolTipContext@@MAEXH@Z 0046e3d0 f   ToolkitPro1501vc60S:XTPToolTipContext.obj
 0001:0006d3f0       ??0CXTPToolTipContext@@QAE@XZ 0046e3f0 f   ToolkitPro1501vc60S:XTPToolTipContext.obj
 0001:0006d570       ??_ECXTPToolTipContext@@UAEPAXI@Z 0046e570 f i ToolkitPro1501vc60S:XTPToolTipContext.obj
 0001:0006d570       ??_GCXTPToolTipContext@@UAEPAXI@Z 0046e570 f i ToolkitPro1501vc60S:XTPToolTipContext.obj
 0001:0006d590       ??1CXTPToolTipContext@@UAE@XZ 0046e590 f   ToolkitPro1501vc60S:XTPToolTipContext.obj
 0001:0006d650       ?IsBalloonStyleSupported@CXTPToolTipContext@@QBEHXZ 0046e650 f   ToolkitPro1501vc60S:XTPToolTipContext.obj
 0001:0006d660       ?FillInToolInfo@CXTPToolTipContext@@SAXPAUtagTOOLINFOA@@PAUHWND__@@VCRect@@HABVCString@@@Z 0046e660 f   ToolkitPro1501vc60S:XTPToolTipContext.obj
 0001:0006d6e0       ?FillInToolInfo@CXTPToolTipContext@@SAXPAUtagTOOLINFOA@@PAUHWND__@@VCRect@@HABVCString@@33PAVCXTPImageManager@@@Z 0046e6e0 f   ToolkitPro1501vc60S:XTPToolTipContext.obj
 0001:0006d7e0       ?SetStyle@CXTPToolTipContext@@QAEXW4XTPToolTipStyle@@@Z 0046e7e0 f   ToolkitPro1501vc60S:XTPToolTipContext.obj
 0001:0006d870       ?GetTipBkColor@CXTPToolTipContext@@QBEKXZ 0046e870 f   ToolkitPro1501vc60S:XTPToolTipContext.obj
 0001:0006d890       ?ModifyToolTipStyle@CXTPToolTipContext@@QAEXKK@Z 0046e890 f   ToolkitPro1501vc60S:XTPToolTipContext.obj
 0001:0006d8d0       ?GetTipTextColor@CXTPToolTipContext@@QBEKXZ 0046e8d0 f   ToolkitPro1501vc60S:XTPToolTipContext.obj
 0001:0006d900       ?RelayToolTipMessage@CXTPToolTipContext@@QAEXPAVCWnd@@PAUtagMSG@@@Z 0046e900 f   ToolkitPro1501vc60S:XTPToolTipContext.obj
 0001:0006d9a0       ?FilterToolTipMessage@CXTPToolTipContext@@QAEXPAVCWnd@@IIJ@Z 0046e9a0 f   ToolkitPro1501vc60S:XTPToolTipContext.obj
 0001:0006d9f0       ?FilterToolTipMessage@CXTPToolTipContext@@QAEXPAVCWnd@@PAUtagMSG@@@Z 0046e9f0 f   ToolkitPro1501vc60S:XTPToolTipContext.obj
 0001:0006da10       ?CreateToolTip@CXTPToolTipContext@@MAEPAVCWnd@@PAV2@@Z 0046ea10 f   ToolkitPro1501vc60S:XTPToolTipContext.obj
 0001:0006dc50       ?DrawBackground@CLunaToolTip@CXTPToolTipContext@@UAEXPAVCDC@@PAUTOOLITEM@CXTPToolTipContextToolTip@@VCRect@@@Z 0046ec50 f i ToolkitPro1501vc60S:XTPToolTipContext.obj
 0001:0006dd80       ??_ECLunaToolTip@CXTPToolTipContext@@UAEPAXI@Z 0046ed80 f i ToolkitPro1501vc60S:XTPToolTipContext.obj
 0001:0006dd80       ??_GCLunaToolTip@CXTPToolTipContext@@UAEPAXI@Z 0046ed80 f i ToolkitPro1501vc60S:XTPToolTipContext.obj
 0001:0006dda0       ??1CLunaToolTip@CXTPToolTipContext@@UAE@XZ 0046eda0 f i ToolkitPro1501vc60S:XTPToolTipContext.obj
 0001:0006ddb0       ??_ECRichEditToolTip@CXTPToolTipContext@@UAEPAXI@Z 0046edb0 f i ToolkitPro1501vc60S:XTPToolTipContext.obj
 0001:0006ddb0       ??_GCRichEditToolTip@CXTPToolTipContext@@UAEPAXI@Z 0046edb0 f i ToolkitPro1501vc60S:XTPToolTipContext.obj
 0001:0006ddd0       ??1CRichEditToolTip@CXTPToolTipContext@@UAE@XZ 0046edd0 f i ToolkitPro1501vc60S:XTPToolTipContext.obj
 0001:0006de20       ??_GCMarkupToolTip@CXTPToolTipContext@@UAEPAXI@Z 0046ee20 f i ToolkitPro1501vc60S:XTPToolTipContext.obj
 0001:0006de20       ??_ECMarkupToolTip@CXTPToolTipContext@@UAEPAXI@Z 0046ee20 f i ToolkitPro1501vc60S:XTPToolTipContext.obj
 0001:0006de40       ??1CMarkupToolTip@CXTPToolTipContext@@UAE@XZ 0046ee40 f i ToolkitPro1501vc60S:XTPToolTipContext.obj
 0001:0006deb0       ??_ECStandardToolTip@CXTPToolTipContext@@UAEPAXI@Z 0046eeb0 f i ToolkitPro1501vc60S:XTPToolTipContext.obj
 0001:0006deb0       ??_GCStandardToolTip@CXTPToolTipContext@@UAEPAXI@Z 0046eeb0 f i ToolkitPro1501vc60S:XTPToolTipContext.obj
 0001:0006ded0       ??1CStandardToolTip@CXTPToolTipContext@@UAE@XZ 0046eed0 f i ToolkitPro1501vc60S:XTPToolTipContext.obj
 0001:0006dee0       ?CancelToolTips@CXTPToolTipContext@@QAEXXZ 0046eee0 f   ToolkitPro1501vc60S:XTPToolTipContext.obj
 0001:0006df10       ?OnToolHitTest@CXTPToolTipContext@@MAEHPAVCWnd@@VCPoint@@PAUtagTOOLINFOA@@@Z 0046ef10 f   ToolkitPro1501vc60S:XTPToolTipContext.obj
 0001:0006df30       ?FilterToolTipMessageHelper@CXTPToolTipContext@@QAEXPAVCWnd@@PAUtagMSG@@H@Z 0046ef30 f   ToolkitPro1501vc60S:XTPToolTipContext.obj
 0001:0006e680       ??1?$CArray@PAUTOOLITEM@CXTPToolTipContextToolTip@@PAU12@@@UAE@XZ 0046f680 f i ToolkitPro1501vc60S:XTPToolTipContext.obj
 0001:0006e6d0       ??_E?$CArray@PAUTOOLITEM@CXTPToolTipContextToolTip@@PAU12@@@UAEPAXI@Z 0046f6d0 f i ToolkitPro1501vc60S:XTPToolTipContext.obj
 0001:0006e6d0       ??_G?$CArray@PAUTOOLITEM@CXTPToolTipContextToolTip@@PAU12@@@UAEPAXI@Z 0046f6d0 f i ToolkitPro1501vc60S:XTPToolTipContext.obj
 0001:0006e6f0       ??1COleVariant@@QAE@XZ     0046f6f0 f i ToolkitPro1501vc60S:XTPToolTipContext.obj
 0001:0006e700       ?XTPMarkupCreateContext@@YAPAVCXTPMarkupContext@@PAUHWND__@@@Z 0046f700 f   ToolkitPro1501vc60S:XTPMarkupRender.obj
 0001:0006e770       ?XTPMarkupReleaseContext@@YAXAAPAVCXTPMarkupContext@@@Z 0046f770 f   ToolkitPro1501vc60S:XTPMarkupRender.obj
 0001:0006e790       ?XTPMarkupReleaseElement@@YAXAAPAVCXTPMarkupUIElement@@@Z 0046f790 f   ToolkitPro1501vc60S:XTPMarkupRender.obj
 0001:0006e7b0       ?XTPMarkupParseText@@YAPAVCXTPMarkupUIElement@@PAVCXTPMarkupContext@@PBD@Z 0046f7b0 f   ToolkitPro1501vc60S:XTPMarkupRender.obj
 0001:0006e7d0       ?XTPMarkupElementContext@@YAPAVCXTPMarkupContext@@PAVCXTPMarkupUIElement@@@Z 0046f7d0 f   ToolkitPro1501vc60S:XTPMarkupRender.obj
 0001:0006e7e0       ?XTPMarkupMeasureElement@@YA?AVCSize@@PAVCXTPMarkupUIElement@@HH@Z 0046f7e0 f   ToolkitPro1501vc60S:XTPMarkupRender.obj
 0001:0006e880       ?XTPMarkupRenderElement@@YAXPAVCXTPMarkupUIElement@@PAUHDC__@@PBUtagRECT@@@Z 0046f880 f   ToolkitPro1501vc60S:XTPMarkupRender.obj
 0001:0006e930       ?XTPMarkupSetDefaultFont@@YAXPAVCXTPMarkupContext@@PAUHFONT__@@K@Z 0046f930 f   ToolkitPro1501vc60S:XTPMarkupRender.obj
 0001:0006e980       ?XTPMarkupRelayMessage@@YAHPAVCXTPMarkupUIElement@@IIJPAJ@Z 0046f980 f   ToolkitPro1501vc60S:XTPMarkupRender.obj
 0001:0006e9b0       ??0CXTPButtonTheme@@QAE@XZ 0046f9b0 f   ToolkitPro1501vc60S:XTPButtonTheme.obj
 0001:0006ea90       ??_ECXTPButtonTheme@@UAEPAXI@Z 0046fa90 f i ToolkitPro1501vc60S:XTPButtonTheme.obj
 0001:0006ea90       ??_GCXTPButtonTheme@@UAEPAXI@Z 0046fa90 f i ToolkitPro1501vc60S:XTPButtonTheme.obj
 0001:0006eab0       ??1CXTPButtonTheme@@UAE@XZ 0046fab0 f   ToolkitPro1501vc60S:XTPButtonTheme.obj
 0001:0006eb10       ?RefreshMetrics@CXTPButtonTheme@@UAEXPAVCXTPButton@@@Z 0046fb10 f   ToolkitPro1501vc60S:XTPButtonTheme.obj
 0001:0006ebc0       ?DrawFocusRect@CXTPButtonTheme@@UAEXPAVCDC@@PAVCXTPButton@@@Z 0046fbc0 f   ToolkitPro1501vc60S:XTPButtonTheme.obj
 0001:0006ec70       ?DrawButtonVisualStyleBackground@CXTPButtonTheme@@UAEXPAVCDC@@PAVCXTPButton@@@Z 0046fc70 f   ToolkitPro1501vc60S:XTPButtonTheme.obj
 0001:0006edb0       ?DrawButtonBackground@CXTPButtonTheme@@UAEXPAVCDC@@PAVCXTPButton@@@Z 0046fdb0 f   ToolkitPro1501vc60S:XTPButtonTheme.obj
 0001:0006ef60       ?GetTextColor@CXTPButtonTheme@@UAEKPAVCXTPButton@@@Z 0046ff60 f   ToolkitPro1501vc60S:XTPButtonTheme.obj
 0001:0006efa0       ?DrawButtonText@CXTPButtonTheme@@QAEXPAVCDC@@PAVCXTPButton@@@Z 0046ffa0 f   ToolkitPro1501vc60S:XTPButtonTheme.obj
 0001:0006f640       ?CalcRect@CXTPButtonTheme@@QAEXPAVCDC@@PAVCXTPButton@@PAUtagRECT@@H@Z 00470640 f   ToolkitPro1501vc60S:XTPButtonTheme.obj
 0001:0006f930       ?CalcRects@CXTPButtonTheme@@QAEXPAVCDC@@PAVCXTPButton@@PAVCRect@@PAI2@Z 00470930 f   ToolkitPro1501vc60S:XTPButtonTheme.obj
 0001:0006ff10       ?IsVisualThemeUsed@CXTPButtonTheme@@QAEHPAVCXTPButton@@@Z 00470f10 f   ToolkitPro1501vc60S:XTPButtonTheme.obj
 0001:0006ff40       ?DrawPushButtonDropDown@CXTPButtonTheme@@QAEXPAVCDC@@PAVCXTPButton@@@Z 00470f40 f   ToolkitPro1501vc60S:XTPButtonTheme.obj
 0001:00070200       ?DrawPushButtonText@CXTPButtonTheme@@UAEXPAVCDC@@PAVCXTPButton@@@Z 00471200 f   ToolkitPro1501vc60S:XTPButtonTheme.obj
 0001:00070370       ?DrawPushButtonIcon@CXTPButtonTheme@@QAEXPAVCDC@@PAVCXTPButton@@@Z 00471370 f   ToolkitPro1501vc60S:XTPButtonTheme.obj
 0001:00070540       ?DrawCheckBoxMark@CXTPButtonTheme@@UAEXPAVCDC@@PAVCXTPButton@@@Z 00471540 f   ToolkitPro1501vc60S:XTPButtonTheme.obj
 0001:00070690       ?DrawRadioButtonMark@CXTPButtonTheme@@UAEXPAVCDC@@PAVCXTPButton@@@Z 00471690 f   ToolkitPro1501vc60S:XTPButtonTheme.obj
 0001:000707b0       ?DrawGroupBox@CXTPButtonTheme@@UAEXPAVCDC@@PAVCXTPButton@@@Z 004717b0 f   ToolkitPro1501vc60S:XTPButtonTheme.obj
 0001:00070940       ??0CXTPButtonFlatTheme@@QAE@XZ 00471940 f   ToolkitPro1501vc60S:XTPButtonTheme.obj
 0001:00070970       ??1CXTPButtonResourceTheme@@UAE@XZ 00471970 f i ToolkitPro1501vc60S:XTPButtonTheme.obj
 0001:00070970       ??1CXTPButtonOfficeXPTheme@@UAE@XZ 00471970 f i ToolkitPro1501vc60S:XTPButtonTheme.obj
 0001:00070970       ??1CXTPButtonOffice2003Theme@@UAE@XZ 00471970 f i ToolkitPro1501vc60S:XTPButtonTheme.obj
 0001:00070970       ??1CXTPButtonOffice2000Theme@@UAE@XZ 00471970 f i ToolkitPro1501vc60S:XTPButtonTheme.obj
 0001:00070970       ??1CXTPButtonFlatTheme@@UAE@XZ 00471970 f i ToolkitPro1501vc60S:XTPButtonTheme.obj
 0001:00070970       ??1CXTPButtonUltraFlatTheme@@UAE@XZ 00471970 f i ToolkitPro1501vc60S:XTPButtonTheme.obj
 0001:00070980       ?DrawButtonBackground@CXTPButtonFlatTheme@@UAEXPAVCDC@@PAVCXTPButton@@@Z 00471980 f   ToolkitPro1501vc60S:XTPButtonTheme.obj
 0001:00070ae0       ??0CXTPButtonUltraFlatTheme@@QAE@XZ 00471ae0 f   ToolkitPro1501vc60S:XTPButtonTheme.obj
 0001:00070b80       ?RefreshMetrics@CXTPButtonUltraFlatTheme@@UAEXPAVCXTPButton@@@Z 00471b80 f   ToolkitPro1501vc60S:XTPButtonTheme.obj
 0001:00070dc0       ?DrawButtonBackground@CXTPButtonUltraFlatTheme@@UAEXPAVCDC@@PAVCXTPButton@@@Z 00471dc0 f   ToolkitPro1501vc60S:XTPButtonTheme.obj
 0001:00070f80       ?DrawGroupBox@CXTPButtonUltraFlatTheme@@UAEXPAVCDC@@PAVCXTPButton@@@Z 00471f80 f   ToolkitPro1501vc60S:XTPButtonTheme.obj
 0001:00071090       ?DrawCheckBoxMark@CXTPButtonUltraFlatTheme@@UAEXPAVCDC@@PAVCXTPButton@@@Z 00472090 f   ToolkitPro1501vc60S:XTPButtonTheme.obj
 0001:00071360       ?AlphaEllipse@CXTPButtonTheme@@QAEXPAVCDC@@VCRect@@KK@Z 00472360 f   ToolkitPro1501vc60S:XTPButtonTheme.obj
 0001:00071590       ?DrawRadioButtonMark@CXTPButtonUltraFlatTheme@@UAEXPAVCDC@@PAVCXTPButton@@@Z 00472590 f   ToolkitPro1501vc60S:XTPButtonTheme.obj
 0001:00071780       ??0CXTPButtonOffice2000Theme@@QAE@XZ 00472780 f   ToolkitPro1501vc60S:XTPButtonTheme.obj
 0001:000717b0       ?DrawButtonBackground@CXTPButtonOffice2000Theme@@UAEXPAVCDC@@PAVCXTPButton@@@Z 004727b0 f   ToolkitPro1501vc60S:XTPButtonTheme.obj
 0001:000718c0       ??0CXTPButtonResourceTheme@@QAE@XZ 004728c0 f   ToolkitPro1501vc60S:XTPButtonTheme.obj
 0001:000718f0       ?RefreshMetrics@CXTPButtonResourceTheme@@UAEXPAVCXTPButton@@@Z 004728f0 f   ToolkitPro1501vc60S:XTPButtonTheme.obj
 0001:00071980       ?DrawCheckBoxMark@CXTPButtonResourceTheme@@UAEXPAVCDC@@PAVCXTPButton@@@Z 00472980 f   ToolkitPro1501vc60S:XTPButtonTheme.obj
 0001:00071ac0       ?DrawRadioButtonMark@CXTPButtonResourceTheme@@UAEXPAVCDC@@PAVCXTPButton@@@Z 00472ac0 f   ToolkitPro1501vc60S:XTPButtonTheme.obj
 0001:00071bf0       ?DrawButtonBackground@CXTPButtonResourceTheme@@UAEXPAVCDC@@PAVCXTPButton@@@Z 00472bf0 f   ToolkitPro1501vc60S:XTPButtonTheme.obj
 0001:00071dd0       ??0CXTPButtonOfficeXPTheme@@QAE@XZ 00472dd0 f   ToolkitPro1501vc60S:XTPButtonTheme.obj
 0001:00071e00       ?RefreshMetrics@CXTPButtonOfficeXPTheme@@UAEXPAVCXTPButton@@@Z 00472e00 f   ToolkitPro1501vc60S:XTPButtonTheme.obj
 0001:00071ec0       ?DrawButtonBackground@CXTPButtonOfficeXPTheme@@UAEXPAVCDC@@PAVCXTPButton@@@Z 00472ec0 f   ToolkitPro1501vc60S:XTPButtonTheme.obj
 0001:00072030       ??0CXTPButtonOffice2003Theme@@QAE@XZ 00473030 f   ToolkitPro1501vc60S:XTPButtonTheme.obj
 0001:00072060       ??_GCXTPButtonOffice2000Theme@@UAEPAXI@Z 00473060 f i ToolkitPro1501vc60S:XTPButtonTheme.obj
 0001:00072060       ??_ECXTPButtonFlatTheme@@UAEPAXI@Z 00473060 f i ToolkitPro1501vc60S:XTPButtonTheme.obj
 0001:00072060       ??_GCXTPButtonOfficeXPTheme@@UAEPAXI@Z 00473060 f i ToolkitPro1501vc60S:XTPButtonTheme.obj
 0001:00072060       ??_GCXTPButtonResourceTheme@@UAEPAXI@Z 00473060 f i ToolkitPro1501vc60S:XTPButtonTheme.obj
 0001:00072060       ??_GCXTPButtonUltraFlatTheme@@UAEPAXI@Z 00473060 f i ToolkitPro1501vc60S:XTPButtonTheme.obj
 0001:00072060       ??_GCXTPButtonOffice2003Theme@@UAEPAXI@Z 00473060 f i ToolkitPro1501vc60S:XTPButtonTheme.obj
 0001:00072060       ??_ECXTPButtonResourceTheme@@UAEPAXI@Z 00473060 f i ToolkitPro1501vc60S:XTPButtonTheme.obj
 0001:00072060       ??_GCXTPButtonFlatTheme@@UAEPAXI@Z 00473060 f i ToolkitPro1501vc60S:XTPButtonTheme.obj
 0001:00072060       ??_ECXTPButtonOfficeXPTheme@@UAEPAXI@Z 00473060 f i ToolkitPro1501vc60S:XTPButtonTheme.obj
 0001:00072060       ??_ECXTPButtonOffice2000Theme@@UAEPAXI@Z 00473060 f i ToolkitPro1501vc60S:XTPButtonTheme.obj
 0001:00072060       ??_ECXTPButtonOffice2003Theme@@UAEPAXI@Z 00473060 f i ToolkitPro1501vc60S:XTPButtonTheme.obj
 0001:00072060       ??_ECXTPButtonUltraFlatTheme@@UAEPAXI@Z 00473060 f i ToolkitPro1501vc60S:XTPButtonTheme.obj
 0001:00072080       ?RefreshMetrics@CXTPButtonOffice2003Theme@@UAEXPAVCXTPButton@@@Z 00473080 f   ToolkitPro1501vc60S:XTPButtonTheme.obj
 0001:00072170       ?DrawButtonBackground@CXTPButtonOffice2003Theme@@UAEXPAVCDC@@PAVCXTPButton@@@Z 00473170 f   ToolkitPro1501vc60S:XTPButtonTheme.obj
 0001:00072320       ?DrawState@CDC@@QAEHVCPoint@@VCSize@@PAUHICON__@@IPAUHBRUSH__@@@Z 00473320 f i ToolkitPro1501vc60S:XTPButtonTheme.obj
 0001:000723c0       ?BitmapsCompatible@CXTPImageManager@@ABEHPAUtagBITMAP@@0@Z 004733c0 f   ToolkitPro1501vc60S:XTPImageManager.obj
 0001:00072410       ?McTransparentBlt@CXTPImageManager@@ABEHPAUHDC__@@HHHH0HHHHI@Z 00473410 f   ToolkitPro1501vc60S:XTPImageManager.obj
 0001:000726b0       ?IsWindow2000@CXTPImageManager@@ABEHXZ 004736b0 f   ToolkitPro1501vc60S:XTPImageManager.obj
 0001:000726d0       ?TransparentBlt@CXTPImageManager@@QBEHPAUHDC__@@ABVCRect@@01I@Z 004736d0 f   ToolkitPro1501vc60S:XTPImageManager.obj
 0001:000727a0       ?BlendImages@CXTPImageManager@@ABEHPAUHBITMAP__@@H0H0@Z 004737a0 f   ToolkitPro1501vc60S:XTPImageManager.obj
 0001:000729e0       ?Create32BPPDIBSection@CXTPImageManager@@SAPAUHBITMAP__@@PAUHDC__@@HHPAPAE@Z 004739e0 f   ToolkitPro1501vc60S:XTPImageManager.obj
 0001:00072a50       ?DoAlphaBlend@CXTPImageManager@@ABEHPAUHDC__@@HHHH0HHHH@Z 00473a50 f   ToolkitPro1501vc60S:XTPImageManager.obj
 0001:00072c90       ?AlphaBlend@CXTPImageManager@@QBEHPAUHDC__@@ABVCRect@@01@Z 00473c90 f   ToolkitPro1501vc60S:XTPImageManager.obj
 0001:00072de0       ??1CXTPImageManagerImageList@@QAE@XZ 00473de0 f   ToolkitPro1501vc60S:XTPImageManager.obj
 0001:00072e90       ?RemoveAll@CXTPImageManagerImageList@@QAEXXZ 00473e90 f   ToolkitPro1501vc60S:XTPImageManager.obj
 0001:00072f40       ?Lookup@CXTPImageManagerImageList@@QAEHI@Z 00473f40 f   ToolkitPro1501vc60S:XTPImageManager.obj
 0001:00072f70       ?GetIconSize@CXTPImageManagerImageList@@QBE?AVCSize@@XZ 00473f70 f   ToolkitPro1501vc60S:XTPImageManager.obj
 0001:00072fb0       ?GetIcon@CXTPImageManagerImageList@@QAEPAVCXTPImageManagerIcon@@I@Z 00473fb0 f   ToolkitPro1501vc60S:XTPImageManager.obj
 0001:00073150       ?Draw@CXTPImageManagerImageList@@QAEXPAVCDC@@VCPoint@@PAVCXTPImageManagerIcon@@VCSize@@KKI@Z 00474150 f   ToolkitPro1501vc60S:XTPImageManager.obj
 0001:000731b0       ?IsAlphaBitmapFile@CXTPImageManagerIcon@@SAHPBD@Z 004741b0 f   ToolkitPro1501vc60S:XTPImageManager.obj
 0001:00073250       ?IsPngBitmapFile@CXTPImageManagerIcon@@SAHPBD@Z 00474250 f   ToolkitPro1501vc60S:XTPImageManager.obj
 0001:000732f0       ?LoadBitmapFromFile@CXTPImageManagerIcon@@SAPAUHBITMAP__@@PBDPAH@Z 004742f0 f   ToolkitPro1501vc60S:XTPImageManager.obj
 0001:00073590       ??1CXTPGraphicBitmapPng@@UAE@XZ 00474590 f i ToolkitPro1501vc60S:XTPImageManager.obj
 0001:000735d0       ?IsPngBitmapResource@CXTPImageManagerIcon@@SAHPAUHINSTANCE__@@PBD@Z 004745d0 f   ToolkitPro1501vc60S:XTPImageManager.obj
 0001:00073630       ?IsAlphaBitmapResource@CXTPImageManagerIcon@@SAHPAUHINSTANCE__@@PBD@Z 00474630 f   ToolkitPro1501vc60S:XTPImageManager.obj
 0001:00073680       ?LoadBitmapFromResource@CXTPImageManagerIcon@@SAPAUHBITMAP__@@PBDPAH@Z 00474680 f   ToolkitPro1501vc60S:XTPImageManager.obj
 0001:000737e0       ?LoadBitmapFromResource@CXTPImageManagerIcon@@SAPAUHBITMAP__@@PAUHINSTANCE__@@PBDPAH@Z 004747e0 f   ToolkitPro1501vc60S:XTPImageManager.obj
 0001:00073930       ?LoadAlphaBitmap@CXTPImageManagerIcon@@SAPAUHBITMAP__@@I@Z 00474930 f   ToolkitPro1501vc60S:XTPImageManager.obj
 0001:00073950       ?LoadAlphaBitmap@CXTPImageManagerIcon@@SAPAUHBITMAP__@@PAUHINSTANCE__@@PBD@Z 00474950 f   ToolkitPro1501vc60S:XTPImageManager.obj
 0001:00073b00       ?LoadAlphaIcon@CXTPImageManagerIcon@@SAPAUHBITMAP__@@PBDH@Z 00474b00 f   ToolkitPro1501vc60S:XTPImageManager.obj
 0001:00073db0       ?SetIconFromIcoFile@CXTPImageManager@@QAEHPBDIVCSize@@W4XTPImageState@@@Z 00474db0 f   ToolkitPro1501vc60S:XTPImageManager.obj
 0001:00074120       ??0CXTPImageManagerResource@@QAE@PAVCXTPImageManager@@VCSize@@@Z 00475120 f   ToolkitPro1501vc60S:XTPImageManager.obj
 0001:000741f0       ??1CBitmapDC@CXTPImageManagerResource@@UAE@XZ 004751f0 f i ToolkitPro1501vc60S:XTPImageManager.obj
 0001:00074230       ??_ECBitmapDC@CXTPImageManagerResource@@UAEPAXI@Z 00475230 f i ToolkitPro1501vc60S:XTPImageManager.obj
 0001:00074230       ??_GCBitmapDC@CXTPImageManagerResource@@UAEPAXI@Z 00475230 f i ToolkitPro1501vc60S:XTPImageManager.obj
 0001:00074250       ??1CXTPImageManagerResource@@QAE@XZ 00475250 f   ToolkitPro1501vc60S:XTPImageManager.obj
 0001:00074310       ?RemoveAll@CXTPImageManagerResource@@AAEXXZ 00475310 f   ToolkitPro1501vc60S:XTPImageManager.obj
 0001:000743b0       ?GetResource@CXTPImageManager@@QAEPAVCXTPImageManagerResource@@VCSize@@@Z 004753b0 f   ToolkitPro1501vc60S:XTPImageManager.obj
 0001:00074540       ?AllocBitmap@CXTPImageManagerResource@@AAEPAUXTP_IMAGERESOURCE_INFO@@XZ 00475540 f   ToolkitPro1501vc60S:XTPImageManager.obj
 0001:000748f0       ?Clear@CXTPImageManagerResource@@QAEXPAUXTP_IMAGERESOURCE_INFO@@@Z 004758f0 f   ToolkitPro1501vc60S:XTPImageManager.obj
 0001:000749c0       ?IsAlphaIconHandle@CXTPImageManagerIcon@@SAHPAUHICON__@@@Z 004759c0 f   ToolkitPro1501vc60S:XTPImageManager.obj
 0001:00074a70       ?Add@CXTPImageManagerResource@@QAEPAUXTP_IMAGERESOURCE_INFO@@ABVCXTPImageManagerIconHandle@@@Z 00475a70 f   ToolkitPro1501vc60S:XTPImageManager.obj
 0001:00074dd0       ?IsDrawReverted@CXTPImageManager@@QBEHPAVCDC@@@Z 00475dd0 f   ToolkitPro1501vc60S:XTPImageManager.obj
 0001:00074e00       ?CreateIcon@CXTPImageManagerResource@@QAEXAAVCXTPImageManagerIconHandle@@PAUXTP_IMAGERESOURCE_INFO@@@Z 00475e00 f   ToolkitPro1501vc60S:XTPImageManager.obj
 0001:00075030       ?DrawIconComposited@CXTPImageManagerResource@@AAEXPAVCDC@@PAUXTP_IMAGERESOURCE_INFO@@VCPoint@@VCSize@@@Z 00476030 f   ToolkitPro1501vc60S:XTPImageManager.obj
 0001:000752b0       ?Draw@CXTPImageManagerResource@@QAEXPAVCDC@@PAUXTP_IMAGERESOURCE_INFO@@VCPoint@@VCSize@@H@Z 004762b0 f   ToolkitPro1501vc60S:XTPImageManager.obj
 0001:000755c0       ?GetExtent@CXTPImageManagerResource@@QBE?AVCSize@@XZ 004765c0 f   ToolkitPro1501vc60S:XTPImageManager.obj
 0001:000755e0       ?Init@CXTPImageManagerIconHandle@@IAEXXZ 004765e0 f   ToolkitPro1501vc60S:XTPImageManager.obj
 0001:00075610       ??0CXTPImageManagerIconHandle@@QAE@XZ 00476610 f   ToolkitPro1501vc60S:XTPImageManager.obj
 0001:00075620       ??0CXTPImageManagerIconHandle@@QAE@PAUHICON__@@H@Z 00476620 f   ToolkitPro1501vc60S:XTPImageManager.obj
 0001:00075660       ??0CXTPImageManagerIconHandle@@QAE@PAUHBITMAP__@@@Z 00476660 f   ToolkitPro1501vc60S:XTPImageManager.obj
 0001:000756a0       ?CopyHandle@CXTPImageManagerIconHandle@@QAEXPAUHBITMAP__@@@Z 004766a0 f   ToolkitPro1501vc60S:XTPImageManager.obj
 0001:000756f0       ?CopyHandle@CXTPImageManagerIconHandle@@QAEXABV1@@Z 004766f0 f   ToolkitPro1501vc60S:XTPImageManager.obj
 0001:00075830       ??4CXTPImageManagerIconHandle@@QAEABV0@QAUHICON__@@@Z 00476830 f   ToolkitPro1501vc60S:XTPImageManager.obj
 0001:00075870       ??4CXTPImageManagerIconHandle@@QAEABV0@QAUHBITMAP__@@@Z 00476870 f   ToolkitPro1501vc60S:XTPImageManager.obj
 0001:000758b0       ??1CXTPImageManagerIconHandle@@QAE@XZ 004768b0 f   ToolkitPro1501vc60S:XTPImageManager.obj
 0001:000758c0       ?IsEmpty@CXTPImageManagerIconHandle@@QBEHXZ 004768c0 f   ToolkitPro1501vc60S:XTPImageManager.obj
 0001:000758f0       ?IsAlpha@CXTPImageManagerIconHandle@@QBEHXZ 004768f0 f   ToolkitPro1501vc60S:XTPImageManager.obj
 0001:00075910       ?GetBitmap@CXTPImageManagerIconHandle@@QBEPAUHBITMAP__@@XZ 00476910 f   ToolkitPro1501vc60S:XTPImageManager.obj
 0001:00075930       ?Clear@CXTPImageManagerIconHandle@@QAEXXZ 00476930 f   ToolkitPro1501vc60S:XTPImageManager.obj
 0001:00075980       ?GetExtent@CXTPImageManagerIconHandle@@QBE?AVCSize@@XZ 00476980 f   ToolkitPro1501vc60S:XTPImageManager.obj
 0001:000759a0       ?_GetExtent@CXTPImageManagerIconHandle@@ABE?AVCSize@@XZ 004769a0 f   ToolkitPro1501vc60S:XTPImageManager.obj
 0001:00075a40       ?Draw@CXTPImageManagerIconHandle@@QAEXPAVCDC@@VCPoint@@VCSize@@H@Z 00476a40 f   ToolkitPro1501vc60S:XTPImageManager.obj
 0001:00075bb0       ?CreateIconFromResource@CXTPImageManagerIconHandle@@QAEHPBDVCSize@@H@Z 00476bb0 f   ToolkitPro1501vc60S:XTPImageManager.obj
 0001:00075c20       ?CreateIconFromResource@CXTPImageManagerIconHandle@@QAEHPAUHINSTANCE__@@PBDVCSize@@H@Z 00476c20 f   ToolkitPro1501vc60S:XTPImageManager.obj
 0001:00075e80       ?PreMultiply@CXTPImageManagerIconHandle@@QAEPAEXZ 00476e80 f   ToolkitPro1501vc60S:XTPImageManager.obj
 0001:00075f00       ?IsAlpha@CXTPImageManagerIcon@@QBEHXZ 00476f00 f   ToolkitPro1501vc60S:XTPImageManager.obj
 0001:00075f10       ?PreMultiplyAlphaBitmap@CXTPImageManagerIcon@@SAPAUHBITMAP__@@PAU2@PAHPAPAE@Z 00476f10 f   ToolkitPro1501vc60S:XTPImageManager.obj
 0001:00076160       ?GetBitmapBits@CXTPImageManagerIcon@@SAHAAVCDC@@PAUHBITMAP__@@AAPAUtagBITMAPINFO@@AAPAXAAI@Z 00477160 f   ToolkitPro1501vc60S:XTPImageManager.obj
 0001:000762b0       ?CopyAlphaBitmap@CXTPImageManagerIcon@@SAPAUHBITMAP__@@PAU2@PAPAE@Z 004772b0 f   ToolkitPro1501vc60S:XTPImageManager.obj
 0001:000763f0       ??0CXTPImageManagerIcon@@QAE@IHHPAVCXTPImageManagerIconSet@@@Z 004773f0 f   ToolkitPro1501vc60S:XTPImageManager.obj
 0001:000764d0       ??_ECXTPImageManagerIcon@@UAEPAXI@Z 004774d0 f i ToolkitPro1501vc60S:XTPImageManager.obj
 0001:000764d0       ??_GCXTPImageManagerIcon@@UAEPAXI@Z 004774d0 f i ToolkitPro1501vc60S:XTPImageManager.obj
 0001:000764f0       ??0CXTPImageManagerIcon@@QAE@IHHPAVCXTPImageManagerImageList@@@Z 004774f0 f   ToolkitPro1501vc60S:XTPImageManager.obj
 0001:00076580       ??1CXTPImageManagerIcon@@UAE@XZ 00477580 f   ToolkitPro1501vc60S:XTPImageManager.obj
 0001:00076650       ?Clear@CXTPImageManagerIcon@@AAEXH@Z 00477650 f   ToolkitPro1501vc60S:XTPImageManager.obj
 0001:000766b0       ?Refresh@CXTPImageManagerIcon@@QAEXXZ 004776b0 f   ToolkitPro1501vc60S:XTPImageManager.obj
 0001:000766d0       ?GetIcon@CXTPImageManagerIcon@@QAEAAVCXTPImageManagerIconHandle@@XZ 004776d0 f   ToolkitPro1501vc60S:XTPImageManager.obj
 0001:000766e0       ?GetIcon@CXTPImageManagerIcon@@QAEAAVCXTPImageManagerIconHandle@@W4XTPImageState@@@Z 004776e0 f   ToolkitPro1501vc60S:XTPImageManager.obj
 0001:00076730       ?GetFadedIcon@CXTPImageManagerIcon@@QAEAAVCXTPImageManagerIconHandle@@XZ 00477730 f   ToolkitPro1501vc60S:XTPImageManager.obj
 0001:00076760       ?GetShadowIcon@CXTPImageManagerIcon@@QAEAAVCXTPImageManagerIconHandle@@XZ 00477760 f   ToolkitPro1501vc60S:XTPImageManager.obj
 0001:00076780       ?GetHotIcon@CXTPImageManagerIcon@@QAEAAVCXTPImageManagerIconHandle@@XZ 00477780 f   ToolkitPro1501vc60S:XTPImageManager.obj
 0001:000767a0       ?GetCheckedIcon@CXTPImageManagerIcon@@QAEAAVCXTPImageManagerIconHandle@@XZ 004777a0 f   ToolkitPro1501vc60S:XTPImageManager.obj
 0001:000767d0       ?GetPressedIcon@CXTPImageManagerIcon@@QAEAAVCXTPImageManagerIconHandle@@XZ 004777d0 f   ToolkitPro1501vc60S:XTPImageManager.obj
 0001:00076800       ?HasDisabledIcon@CXTPImageManagerIcon@@QBEHXZ 00477800 f   ToolkitPro1501vc60S:XTPImageManager.obj
 0001:00076830       ?GetDisabledIcon@CXTPImageManagerIcon@@QAEAAVCXTPImageManagerIconHandle@@H@Z 00477830 f   ToolkitPro1501vc60S:XTPImageManager.obj
 0001:00076870       ?SetIcon@CXTPImageManagerIcon@@QAEHABVCXTPImageManagerIconHandle@@@Z 00477870 f   ToolkitPro1501vc60S:XTPImageManager.obj
 0001:000768c0       ?SetHotIcon@CXTPImageManagerIcon@@QAEXABVCXTPImageManagerIconHandle@@@Z 004778c0 f   ToolkitPro1501vc60S:XTPImageManager.obj
 0001:000768e0       ?SetCheckedIcon@CXTPImageManagerIcon@@QAEXABVCXTPImageManagerIconHandle@@@Z 004778e0 f   ToolkitPro1501vc60S:XTPImageManager.obj
 0001:00076900       ?SetPressedIcon@CXTPImageManagerIcon@@QAEXABVCXTPImageManagerIconHandle@@@Z 00477900 f   ToolkitPro1501vc60S:XTPImageManager.obj
 0001:00076920       ?SetDisabledIcon@CXTPImageManagerIcon@@QAEXABVCXTPImageManagerIconHandle@@@Z 00477920 f   ToolkitPro1501vc60S:XTPImageManager.obj
 0001:00076940       ?LightenColor@CXTPImageManagerIcon@@AAEKKN@Z 00477940 f   ToolkitPro1501vc60S:XTPImageManager.obj
 0001:000769d0       ?CreateFadedIcon@CXTPImageManagerIcon@@AAEXXZ 004779d0 f   ToolkitPro1501vc60S:XTPImageManager.obj
 0001:00076c50       ?CreateShadowIcon@CXTPImageManagerIcon@@AAEXXZ 00477c50 f   ToolkitPro1501vc60S:XTPImageManager.obj
 0001:00076f50       ?CreateDisabledIcon@CXTPImageManagerIcon@@QAEXKK@Z 00477f50 f   ToolkitPro1501vc60S:XTPImageManager.obj
 0001:00077500       ?GetExtent@CXTPImageManagerIcon@@QBE?AVCSize@@XZ 00478500 f   ToolkitPro1501vc60S:XTPImageManager.obj
 0001:00077530       ?GetExtent@CXTPImageManagerIcon@@SA?AVCSize@@PAUHICON__@@@Z 00478530 f   ToolkitPro1501vc60S:XTPImageManager.obj
 0001:000775b0       ?ScaleToFit@CXTPImageManagerIcon@@SAPAUHICON__@@PAU2@VCSize@@H@Z 004785b0 f   ToolkitPro1501vc60S:XTPImageManager.obj
 0001:00077690       ?GetDIBBitmap@CXTPImageManagerIcon@@AAEHPAUHBITMAP__@@AAPAEAAIAAPAUtagBITMAPINFO@@2@Z 00478690 f   ToolkitPro1501vc60S:XTPImageManager.obj
 0001:00077850       ?ReadDIBBitmap@CXTPImageManagerIcon@@AAEPAUHBITMAP__@@AAVCArchive@@PAPAE@Z 00478850 f   ToolkitPro1501vc60S:XTPImageManager.obj
 0001:000779e0       ?WriteDIBBitmap@CXTPImageManagerIcon@@AAEXAAVCArchive@@PAUHBITMAP__@@@Z 004789e0 f   ToolkitPro1501vc60S:XTPImageManager.obj
 0001:00077aa0       ?SerializeIcon@CXTPImageManagerIcon@@QAEXAAVCXTPImageManagerIconHandle@@AAVCArchive@@J@Z 00478aa0 f   ToolkitPro1501vc60S:XTPImageManager.obj
 0001:00077cf0       ?Serialize@CXTPImageManagerIcon@@UAEXAAVCArchive@@@Z 00478cf0 f   ToolkitPro1501vc60S:XTPImageManager.obj
 0001:00077e00       ?DrawAlphaBitmap@CXTPImageManagerIcon@@SAXPAVCDC@@PAUHBITMAP__@@VCPoint@@VCSize@@23@Z 00478e00 f   ToolkitPro1501vc60S:XTPImageManager.obj
 0001:00077ef0       ?DrawMono@CXTPImageManagerIcon@@QAEXPAVCDC@@VCPoint@@AAVCXTPImageManagerIconHandle@@VCSize@@K@Z 00478ef0 f   ToolkitPro1501vc60S:XTPImageManager.obj
 0001:00078050       ?Draw@CXTPImageManagerIcon@@QAEXPAVCDC@@VCPoint@@VCSize@@@Z 00479050 f   ToolkitPro1501vc60S:XTPImageManager.obj
 0001:00078090       ?Draw@CXTPImageManagerIcon@@QAEXPAVCDC@@VCPoint@@@Z 00479090 f   ToolkitPro1501vc60S:XTPImageManager.obj
 0001:000780d0       ?DrawIconComposited@CXTPImageManagerIcon@@SAXPAVCDC@@VCPoint@@VCSize@@PAUHICON__@@@Z 004790d0 f   ToolkitPro1501vc60S:XTPImageManager.obj
 0001:00078280       ?Draw@CXTPImageManagerIcon@@QAEXPAVCDC@@VCPoint@@AAVCXTPImageManagerIconHandle@@VCSize@@KKI@Z 00479280 f   ToolkitPro1501vc60S:XTPImageManager.obj
 0001:00078300       ??0CXTPImageManagerIconSet@@QAE@IPAVCXTPImageManager@@@Z 00479300 f   ToolkitPro1501vc60S:XTPImageManager.obj
 0001:00078350       ??_GCXTPImageManagerIconSet@@UAEPAXI@Z 00479350 f i ToolkitPro1501vc60S:XTPImageManager.obj
 0001:00078350       ??_ECXTPImageManagerIconSet@@UAEPAXI@Z 00479350 f i ToolkitPro1501vc60S:XTPImageManager.obj
 0001:00078370       ??1CXTPImageManagerIconSet@@UAE@XZ 00479370 f   ToolkitPro1501vc60S:XTPImageManager.obj
 0001:00078420       ?RemoveAll@CXTPImageManagerIconSet@@QAEXXZ 00479420 f   ToolkitPro1501vc60S:XTPImageManager.obj
 0001:000784e0       ?CreateIcon@CXTPImageManagerIconSet@@AAEPAVCXTPImageManagerIcon@@I@Z 004794e0 f   ToolkitPro1501vc60S:XTPImageManager.obj
 0001:00078660       ?SetIcon@CXTPImageManagerIconSet@@AAEXABVCXTPImageManagerIconHandle@@I@Z 00479660 f   ToolkitPro1501vc60S:XTPImageManager.obj
 0001:00078680       ?SetDisabledIcon@CXTPImageManagerIconSet@@AAEXABVCXTPImageManagerIconHandle@@I@Z 00479680 f   ToolkitPro1501vc60S:XTPImageManager.obj
 0001:000786a0       ?SetHotIcon@CXTPImageManagerIconSet@@AAEXABVCXTPImageManagerIconHandle@@I@Z 004796a0 f   ToolkitPro1501vc60S:XTPImageManager.obj
 0001:000786c0       ?SetCheckedIcon@CXTPImageManagerIconSet@@AAEXABVCXTPImageManagerIconHandle@@I@Z 004796c0 f   ToolkitPro1501vc60S:XTPImageManager.obj
 0001:000786e0       ?SetPressedIcon@CXTPImageManagerIconSet@@AAEXABVCXTPImageManagerIconHandle@@I@Z 004796e0 f   ToolkitPro1501vc60S:XTPImageManager.obj
 0001:00078700       ?GetIcon@CXTPImageManagerIconSet@@QAEPAVCXTPImageManagerIcon@@IH@Z 00479700 f   ToolkitPro1501vc60S:XTPImageManager.obj
 0001:00078850       ?RefreshAll@CXTPImageManagerIconSet@@QAEXXZ 00479850 f   ToolkitPro1501vc60S:XTPImageManager.obj
 0001:000788c0       ??0CXTPImageManager@@QAE@XZ 004798c0 f   ToolkitPro1501vc60S:XTPImageManager.obj
 0001:00078990       ??_ECXTPImageManager@@UAEPAXI@Z 00479990 f i ToolkitPro1501vc60S:XTPImageManager.obj
 0001:00078990       ??_GCXTPImageManager@@UAEPAXI@Z 00479990 f i ToolkitPro1501vc60S:XTPImageManager.obj
 0001:000789b0       ?XTPImageManager@@YAPAVCXTPImageManager@@XZ 004799b0 f   ToolkitPro1501vc60S:XTPImageManager.obj
 0001:00078a00       ??1CXTPImageManager@@UAE@XZ 00479a00 f   ToolkitPro1501vc60S:XTPImageManager.obj
 0001:00078b30       ?LoadToolbar@CXTPImageManager@@ABEHIAAPAIAAHAAVCSize@@@Z 00479b30 f   ToolkitPro1501vc60S:XTPImageManager.obj
 0001:00078c10       ?items@CToolBarData@?1??LoadToolBar@CXTPCommandBar@@UAEHIH@Z@QAEPAGXZ 00479c10 f   ToolkitPro1501vc60S:XTPImageManager.obj
 0001:00078c10       ?items@CToolBarData@?1??LoadToolbar@CXTPImageManager@@ABEHIAAPAIAAHAAVCSize@@@Z@QAEPAGXZ 00479c10 f   ToolkitPro1501vc60S:XTPImageManager.obj
 0001:00078c20       ?SetIcons@CXTPImageManager@@QAEHIIW4XTPImageState@@@Z 00479c20 f   ToolkitPro1501vc60S:XTPImageManager.obj
 0001:00078ca0       ?SetIcons@CXTPImageManager@@QAEHIW4XTPImageState@@@Z 00479ca0 f   ToolkitPro1501vc60S:XTPImageManager.obj
 0001:00078cc0       ?SetIcon@CXTPImageManager@@QAEHABVCXTPImageManagerIconHandle@@IVCSize@@W4XTPImageState@@@Z 00479cc0 f   ToolkitPro1501vc60S:XTPImageManager.obj
 0001:00078f30       ?SetIconFromResource@CXTPImageManager@@QAEHPAUHINSTANCE__@@PBDIVCSize@@W4XTPImageState@@@Z 00479f30 f   ToolkitPro1501vc60S:XTPImageManager.obj
 0001:000790f0       ?SetIcon@CXTPImageManager@@QAEHPBDIVCSize@@W4XTPImageState@@@Z 0047a0f0 f   ToolkitPro1501vc60S:XTPImageManager.obj
 0001:000791d0       ?SetIcons@CXTPImageManager@@QAEHAAVCImageList@@PAIHVCSize@@W4XTPImageState@@@Z 0047a1d0 f   ToolkitPro1501vc60S:XTPImageManager.obj
 0001:00079380       ?SplitBitmap@CXTPImageManager@@ABEHPAUHBITMAP__@@HPAPAU2@@Z 0047a380 f   ToolkitPro1501vc60S:XTPImageManager.obj
 0001:000795e0       ?GetBitmapMaskColor@CXTPImageManager@@SAKAAVCBitmap@@VCPoint@@@Z 0047a5e0 f   ToolkitPro1501vc60S:XTPImageManager.obj
 0001:00079620       ?ResampleAlphaLayer@CXTPImageManager@@SAPAUHBITMAP__@@PAU2@K@Z 0047a620 f   ToolkitPro1501vc60S:XTPImageManager.obj
 0001:00079800       ?SetIcons@CXTPImageManager@@QAEHAAVCBitmap@@PAIHVCSize@@W4XTPImageState@@H@Z 0047a800 f   ToolkitPro1501vc60S:XTPImageManager.obj
 0001:00079ba0       ?SetIcons@CXTPImageManager@@QAEHIPAIHVCSize@@W4XTPImageState@@@Z 0047aba0 f   ToolkitPro1501vc60S:XTPImageManager.obj
 0001:00079bd0       ?SetIcons@CXTPImageManager@@QAEHPBDPAIHVCSize@@W4XTPImageState@@@Z 0047abd0 f   ToolkitPro1501vc60S:XTPImageManager.obj
 0001:00079cc0       ?AddCustomIcon@CXTPImageManager@@QAEIABVCXTPImageManagerIconHandle@@@Z 0047acc0 f   ToolkitPro1501vc60S:XTPImageManager.obj
 0001:00079e40       ?CopyImage@CXTPImageManager@@AAEXI@Z 0047ae40 f   ToolkitPro1501vc60S:XTPImageManager.obj
 0001:00079f70       ?PasteCustomImage@CXTPImageManager@@AAEIAAVCOleDataObject@@@Z 0047af70 f   ToolkitPro1501vc60S:XTPImageManager.obj
 0001:0007a080       ?IsPrimaryImageExists@CXTPImageManager@@QBEHIH@Z 0047b080 f   ToolkitPro1501vc60S:XTPImageManager.obj
 0001:0007a0f0       ?GetImage@CXTPImageManager@@QBEPAVCXTPImageManagerIcon@@IH@Z 0047b0f0 f   ToolkitPro1501vc60S:XTPImageManager.obj
 0001:0007a140       ?GetIconSet@CXTPImageManager@@QBEPAVCXTPImageManagerIconSet@@I@Z 0047b140 f   ToolkitPro1501vc60S:XTPImageManager.obj
 0001:0007a180       ?GetImageList@CXTPImageManager@@QBEPAVCXTPImageManagerImageList@@I@Z 0047b180 f   ToolkitPro1501vc60S:XTPImageManager.obj
 0001:0007a1c0       ?RemoveAll@CXTPImageManager@@QAEXXZ 0047b1c0 f   ToolkitPro1501vc60S:XTPImageManager.obj
 0001:0007a360       ?RefreshAll@CXTPImageManager@@QAEXXZ 0047b360 f   ToolkitPro1501vc60S:XTPImageManager.obj
 0001:0007a3f0       ?SetMaskColor@CXTPImageManager@@QAEKK@Z 0047b3f0 f   ToolkitPro1501vc60S:XTPImageManager.obj
 0001:0007a400       ?IsAlphaIconsImageListSupported@CXTPImageManager@@SAHXZ 0047b400 f   ToolkitPro1501vc60S:XTPImageManager.obj
 0001:0007a420       ?DoPropExchange@CXTPImageManager@@QAEXIPAVCXTPPropExchange@@@Z 0047b420 f   ToolkitPro1501vc60S:XTPImageManager.obj
 0001:0007a7f0       ?Serialize@CXTPImageManager@@QAEXIAAVCArchive@@@Z 0047b7f0 f   ToolkitPro1501vc60S:XTPImageManager.obj
 0001:0007a860       ?DoPropExchange@CXTPImageManager@@QAEXPAVCXTPPropExchange@@@Z 0047b860 f   ToolkitPro1501vc60S:XTPImageManager.obj
 0001:0007aa00       ?Serialize@CXTPImageManager@@UAEXAAVCArchive@@@Z 0047ba00 f   ToolkitPro1501vc60S:XTPImageManager.obj
 0001:0007aa60       ??1?$CArray@PAUXTP_IMAGERESOURCE_INFO@@PAU1@@@UAE@XZ 0047ba60 f i ToolkitPro1501vc60S:XTPImageManager.obj
 0001:0007aab0       ??1?$CMap@IIPAVCXTPImageManagerIcon@@PAV1@@@UAE@XZ 0047bab0 f i ToolkitPro1501vc60S:XTPImageManager.obj
 0001:0007ab30       ??1?$CMap@IIPAVCXTPImageManagerIconSet@@PAV1@@@UAE@XZ 0047bb30 f i ToolkitPro1501vc60S:XTPImageManager.obj
 0001:0007abb0       ??1?$CArray@PAVCXTPImageManagerImageList@@PAV1@@@UAE@XZ 0047bbb0 f i ToolkitPro1501vc60S:XTPImageManager.obj
 0001:0007ac00       ?Serialize@?$CArray@PAVCToolBarInfo@CXTPToolBar@@PAV12@@@UAEXAAVCArchive@@@Z 0047bc00 f i ToolkitPro1501vc60S:XTPImageManager.obj
 0001:0007ac00       ?Serialize@?$CArray@PAUHWND__@@PAU1@@@UAEXAAVCArchive@@@Z 0047bc00 f i ToolkitPro1501vc60S:XTPImageManager.obj
 0001:0007ac00       ?Serialize@?$CArray@PAVCXTPImageManagerImageList@@PAV1@@@UAEXAAVCArchive@@@Z 0047bc00 f i ToolkitPro1501vc60S:XTPImageManager.obj
 0001:0007ac00       ?Serialize@?$CArray@PAVCXTPTabManagerAtom@@PAV1@@@UAEXAAVCArchive@@@Z 0047bc00 f i ToolkitPro1501vc60S:XTPImageManager.obj
 0001:0007ac00       ?Serialize@?$CArray@PAVCXTPRibbonGroup@@PAV1@@@UAEXAAVCArchive@@@Z 0047bc00 f i ToolkitPro1501vc60S:XTPImageManager.obj
 0001:0007ac00       ?Serialize@?$CArray@PAVCXTPStatusBarPane@@PAV1@@@UAEXAAVCArchive@@@Z 0047bc00 f i ToolkitPro1501vc60S:XTPImageManager.obj
 0001:0007ac00       ?Serialize@?$CArray@PAUXTP_IMAGERESOURCE_INFO@@PAU1@@@UAEXAAVCArchive@@@Z 0047bc00 f i ToolkitPro1501vc60S:XTPImageManager.obj
 0001:0007ac00       ?Serialize@?$CArray@PAUHKL__@@AAPAU1@@@UAEXAAVCArchive@@@Z 0047bc00 f i ToolkitPro1501vc60S:XTPImageManager.obj
 0001:0007ac00       ?Serialize@?$CArray@PAVCXTPCommandBar@@PAV1@@@UAEXAAVCArchive@@@Z 0047bc00 f i ToolkitPro1501vc60S:XTPImageManager.obj
 0001:0007ac00       ?Serialize@?$CArray@PAUCItem@CXTPDockingPaneWindowSelect@@PAU12@@@UAEXAAVCArchive@@@Z 0047bc00 f i ToolkitPro1501vc60S:XTPImageManager.obj
 0001:0007ac00       ?Serialize@?$CArray@PAVCXTPDockingPaneCaptionButton@@PAV1@@@UAEXAAVCArchive@@@Z 0047bc00 f i ToolkitPro1501vc60S:XTPImageManager.obj
 0001:0007ac00       ?Serialize@?$CArray@PAUCONNECTION_DESCRIPTOR@CXTPNotifyConnection@@PAU12@@@UAEXAAVCArchive@@@Z 0047bc00 f i ToolkitPro1501vc60S:XTPImageManager.obj
 0001:0007ac00       ?Serialize@?$CArray@PAVCXTPPropertyPage@@PAV1@@@UAEXAAVCArchive@@@Z 0047bc00 f i ToolkitPro1501vc60S:XTPImageManager.obj
 0001:0007ac00       ?Serialize@?$CArray@PAVCXTPTabManagerNavigateButton@@PAV1@@@UAEXAAVCArchive@@@Z 0047bc00 f i ToolkitPro1501vc60S:XTPImageManager.obj
 0001:0007ac00       ?Serialize@?$CArray@PAVCButton@@PAV1@@@UAEXAAVCArchive@@@Z 0047bc00 f i ToolkitPro1501vc60S:XTPImageManager.obj
 0001:0007ac00       ?Serialize@?$CArray@PAVCXTPDockingPaneSidePanel@@PAV1@@@UAEXAAVCArchive@@@Z 0047bc00 f i ToolkitPro1501vc60S:XTPImageManager.obj
 0001:0007ac00       ?Serialize@?$CArray@PAUXTP_COMMANDBARS_CATEGORYINFO@@PAU1@@@UAEXAAVCArchive@@@Z 0047bc00 f i ToolkitPro1501vc60S:XTPImageManager.obj
 0001:0007ac00       ?Serialize@?$CArray@PAVCXTPResizeItem@@AAPAV1@@@UAEXAAVCArchive@@@Z 0047bc00 f i ToolkitPro1501vc60S:XTPImageManager.obj
 0001:0007ac00       ?Serialize@?$CArray@PAVCXTPControl@@PAV1@@@UAEXAAVCArchive@@@Z 0047bc00 f i ToolkitPro1501vc60S:XTPImageManager.obj
 0001:0007ac00       ?Serialize@?$CArray@PAUCAnimateInfo@CXTPCommandBarAnimation@@PAU12@@@UAEXAAVCArchive@@@Z 0047bc00 f i ToolkitPro1501vc60S:XTPImageManager.obj
 0001:0007ac00       ?Serialize@?$CArray@PAVCXTPRibbonTabContextHeader@@PAV1@@@UAEXAAVCArchive@@@Z 0047bc00 f i ToolkitPro1501vc60S:XTPImageManager.obj
 0001:0007ac00       ?Serialize@?$CArray@PAVCXTPHookManagerHookAble@@PAV1@@@UAEXAAVCArchive@@@Z 0047bc00 f i ToolkitPro1501vc60S:XTPImageManager.obj
 0001:0007ac00       ?Serialize@?$CArray@PAVCXTPShortcutManagerAccel@@PAV1@@@UAEXAAVCArchive@@@Z 0047bc00 f i ToolkitPro1501vc60S:XTPImageManager.obj
 0001:0007ac00       ?Serialize@?$CArray@PAVCXTPCommandBarKeyboardTip@@PAV1@@@UAEXAAVCArchive@@@Z 0047bc00 f i ToolkitPro1501vc60S:XTPImageManager.obj
 0001:0007ac00       ?Serialize@?$CArray@PAVCAutoHidePanelTabManager@CXTPDockingPaneAutoHidePanel@@PAV12@@@UAEXAAVCArchive@@@Z 0047bc00 f i ToolkitPro1501vc60S:XTPImageManager.obj
 0001:0007ac00       ?Serialize@?$CArray@PAVCXTPControlAction@@PAV1@@@UAEXAAVCArchive@@@Z 0047bc00 f i ToolkitPro1501vc60S:XTPImageManager.obj
 0001:0007ac00       ?Serialize@?$CArray@PAVCXTPMarkupObject@@PAV1@@@UAEXAAVCArchive@@@Z 0047bc00 f i ToolkitPro1501vc60S:XTPImageManager.obj
 0001:0007ac00       ?Serialize@?$CArray@PAVCXTPToolBar@@PAV1@@@UAEXAAVCArchive@@@Z 0047bc00 f i ToolkitPro1501vc60S:XTPImageManager.obj
 0001:0007ac00       ?Serialize@?$CArray@MAAM@@UAEXAAVCArchive@@@Z 0047bc00 f i ToolkitPro1501vc60S:XTPImageManager.obj
 0001:0007ac00       ?Serialize@?$CArray@PAVCXTPTabManagerItem@@PAV1@@@UAEXAAVCArchive@@@Z 0047bc00 f i ToolkitPro1501vc60S:XTPImageManager.obj
 0001:0007ac00       ?Serialize@?$CArray@PAUTOOLITEM@CXTPToolTipContextToolTip@@PAU12@@@UAEXAAVCArchive@@@Z 0047bc00 f i ToolkitPro1501vc60S:XTPImageManager.obj
 0001:0007ad90       ??1?$CMap@KKPAVCXTPImageManagerResource@@PAV1@@@UAE@XZ 0047bd90 f i ToolkitPro1501vc60S:XTPImageManager.obj
 0001:0007ae10       ??_E?$CArray@PAUXTP_IMAGERESOURCE_INFO@@PAU1@@@UAEPAXI@Z 0047be10 f i ToolkitPro1501vc60S:XTPImageManager.obj
 0001:0007ae10       ??_G?$CArray@PAUXTP_IMAGERESOURCE_INFO@@PAU1@@@UAEPAXI@Z 0047be10 f i ToolkitPro1501vc60S:XTPImageManager.obj
 0001:0007ae30       ??_E?$CMap@IIPAVCXTPImageManagerIcon@@PAV1@@@UAEPAXI@Z 0047be30 f i ToolkitPro1501vc60S:XTPImageManager.obj
 0001:0007ae30       ??_G?$CMap@IIPAVCXTPImageManagerIcon@@PAV1@@@UAEPAXI@Z 0047be30 f i ToolkitPro1501vc60S:XTPImageManager.obj
 0001:0007ae50       ??_G?$CMap@IIPAVCXTPImageManagerIconSet@@PAV1@@@UAEPAXI@Z 0047be50 f i ToolkitPro1501vc60S:XTPImageManager.obj
 0001:0007ae50       ??_E?$CMap@IIPAVCXTPImageManagerIconSet@@PAV1@@@UAEPAXI@Z 0047be50 f i ToolkitPro1501vc60S:XTPImageManager.obj
 0001:0007ae70       ??_G?$CArray@PAVCXTPImageManagerImageList@@PAV1@@@UAEPAXI@Z 0047be70 f i ToolkitPro1501vc60S:XTPImageManager.obj
 0001:0007ae70       ??_E?$CArray@PAVCXTPImageManagerImageList@@PAV1@@@UAEPAXI@Z 0047be70 f i ToolkitPro1501vc60S:XTPImageManager.obj
 0001:0007ae90       ??_G?$CMap@KKPAVCXTPImageManagerResource@@PAV1@@@UAEPAXI@Z 0047be90 f i ToolkitPro1501vc60S:XTPImageManager.obj
 0001:0007ae90       ??_E?$CMap@KKPAVCXTPImageManagerResource@@PAV1@@@UAEPAXI@Z 0047be90 f i ToolkitPro1501vc60S:XTPImageManager.obj
 0001:0007aeb0       ?InitHashTable@?$CMap@PAUHWND__@@PAU1@PAVCXTPDockingPaneManager@@PAV2@@@QAEXIH@Z 0047beb0 f i ToolkitPro1501vc60S:XTPImageManager.obj
 0001:0007aeb0       ?InitHashTable@?$CMap@PAVCXTPMarkupDependencyProperty@@PAV1@PAVCXTPMarkupObject@@PAV2@@@QAEXIH@Z 0047beb0 f i ToolkitPro1501vc60S:XTPImageManager.obj
 0001:0007aeb0       ?InitHashTable@?$CMap@IIPAVCXTPImageManagerIcon@@PAV1@@@QAEXIH@Z 0047beb0 f i ToolkitPro1501vc60S:XTPImageManager.obj
 0001:0007aeb0       ?InitHashTable@?$CMap@IIHH@@QAEXIH@Z 0047beb0 f i ToolkitPro1501vc60S:XTPImageManager.obj
 0001:0007aeb0       ?InitHashTable@?$CMap@HHPAVCXTPDockingPaneBase@@PAV1@@@QAEXIH@Z 0047beb0 f i ToolkitPro1501vc60S:XTPImageManager.obj
 0001:0007af20       ??0CSharedData@CXTPWinThemeWrapper@@QAE@XZ 0047bf20 f   ToolkitPro1501vc60S:XTPWinThemeWrapper.obj
 0001:0007af60       ?GetSharedData@CXTPWinThemeWrapper@@ABEAAVCSharedData@1@XZ 0047bf60 f   ToolkitPro1501vc60S:XTPWinThemeWrapper.obj
 0001:0007b000       ??0CXTPWinThemeWrapper@@QAE@H@Z 0047c000 f   ToolkitPro1501vc60S:XTPWinThemeWrapper.obj
 0001:0007b020       ??_GCXTPWinThemeWrapper@@UAEPAXI@Z 0047c020 f i ToolkitPro1501vc60S:XTPWinThemeWrapper.obj
 0001:0007b020       ??_ECXTPWinThemeWrapper@@UAEPAXI@Z 0047c020 f i ToolkitPro1501vc60S:XTPWinThemeWrapper.obj
 0001:0007b040       ??1CXTPWinThemeWrapper@@UAE@XZ 0047c040 f   ToolkitPro1501vc60S:XTPWinThemeWrapper.obj
 0001:0007b070       ?ReloadLibrary@CXTPWinThemeWrapper@@ABEXXZ 0047c070 f   ToolkitPro1501vc60S:XTPWinThemeWrapper.obj
 0001:0007b0b0       ?CloseThemeData@CXTPWinThemeWrapper@@QAEXXZ 0047c0b0 f   ToolkitPro1501vc60S:XTPWinThemeWrapper.obj
 0001:0007b150       ?DrawThemeBackground@CXTPWinThemeWrapper@@QAEJPAUHDC__@@HHPBUtagRECT@@1@Z 0047c150 f   ToolkitPro1501vc60S:XTPWinThemeWrapper.obj
 0001:0007b1f0       ?GetCurrentThemeName@CXTPWinThemeWrapper@@QAEJPAGH0H0H@Z 0047c1f0 f   ToolkitPro1501vc60S:XTPWinThemeWrapper.obj
 0001:0007b2b0       ?GetThemeBackgroundContentRect@CXTPWinThemeWrapper@@QAEJPAUHDC__@@HHPBUtagRECT@@PAU3@@Z 0047c2b0 f   ToolkitPro1501vc60S:XTPWinThemeWrapper.obj
 0001:0007b360       ?GetThemeColor@CXTPWinThemeWrapper@@QAEJHHHPAK@Z 0047c360 f   ToolkitPro1501vc60S:XTPWinThemeWrapper.obj
 0001:0007b410       ?GetThemeInt@CXTPWinThemeWrapper@@QAEJHHHPAH@Z 0047c410 f   ToolkitPro1501vc60S:XTPWinThemeWrapper.obj
 0001:0007b4b0       ?GetThemePartSize@CXTPWinThemeWrapper@@QAEJPAUHDC__@@HHPAUtagRECT@@W4THEMESIZE@@PAUtagSIZE@@@Z 0047c4b0 f   ToolkitPro1501vc60S:XTPWinThemeWrapper.obj
 0001:0007b560       ?GetThemeSysBool@CXTPWinThemeWrapper@@QAEHH@Z 0047c560 f   ToolkitPro1501vc60S:XTPWinThemeWrapper.obj
 0001:0007b5f0       ?IsAppThemed@CXTPWinThemeWrapper@@QBEHXZ 0047c5f0 f   ToolkitPro1501vc60S:XTPWinThemeWrapper.obj
 0001:0007b680       ?IsThemeActive@CXTPWinThemeWrapper@@QBEHXZ 0047c680 f   ToolkitPro1501vc60S:XTPWinThemeWrapper.obj
 0001:0007b720       ?OpenThemeData@CXTPWinThemeWrapper@@QAEXPAUHWND__@@PBG@Z 0047c720 f   ToolkitPro1501vc60S:XTPWinThemeWrapper.obj
 0001:0007b7b0       ?ThemeDataOpen@CXTPWinThemeWrapper@@QBEHXZ 0047c7b0 f   ToolkitPro1501vc60S:XTPWinThemeWrapper.obj
 0001:0007b7c0       ?IsAppThemeReady@CXTPWinThemeWrapper@@QBEHXZ 0047c7c0 f   ToolkitPro1501vc60S:XTPWinThemeWrapper.obj
 0001:0007b810       ?DrawThemeTextEx@CXTPWinThemeWrapper@@QAEJPAUHDC__@@HHPBGHKPAUtagRECT@@PBUXTP_UX_DTTOPTS@@@Z 0047c810 f   ToolkitPro1501vc60S:XTPWinThemeWrapper.obj
 0001:0007b8d0       ?BeginBufferedPaint@CXTPWinThemeWrapper@@QAEPAXPAUHDC__@@PBUtagRECT@@W4XTP_UX_BUFFERFORMAT@@PAUXTP_UX_PAINTPARAMS@@PAPAU2@@Z 0047c8d0 f   ToolkitPro1501vc60S:XTPWinThemeWrapper.obj
 0001:0007b980       ?EndBufferedPaint@CXTPWinThemeWrapper@@QAEXPAXH@Z 0047c980 f   ToolkitPro1501vc60S:XTPWinThemeWrapper.obj
 0001:0007ba10       ??0CSharedData@CXTPWinDwmWrapper@@QAE@XZ 0047ca10 f   ToolkitPro1501vc60S:XTPWinThemeWrapper.obj
 0001:0007ba30       ?GetSharedData@CXTPWinDwmWrapper@@ABEAAVCSharedData@1@XZ 0047ca30 f   ToolkitPro1501vc60S:XTPWinThemeWrapper.obj
 0001:0007ba80       ?IsCompositionEnabled@CXTPWinDwmWrapper@@QAEHXZ 0047ca80 f   ToolkitPro1501vc60S:XTPWinThemeWrapper.obj
 0001:0007bae0       ?DefWindowProcA@CXTPWinDwmWrapper@@QAEJPAUHWND__@@IIJPAJ@Z 0047cae0 f   ToolkitPro1501vc60S:XTPWinThemeWrapper.obj
 0001:0007bb40       ?ExtendFrameIntoClientArea@CXTPWinDwmWrapper@@QAEJPAUHWND__@@HHHH@Z 0047cb40 f   ToolkitPro1501vc60S:XTPWinThemeWrapper.obj
 0001:0007bbb0       ??0CXTPControlTheme@@QAE@XZ 0047cbb0 f   ToolkitPro1501vc60S:XTPControlTheme.obj
 0001:0007bbd0       ??0CXTPA2W@CXTPResourceManager@@QAE@PBD@Z 0047cbd0 f   ToolkitPro1501vc60S:XTPResourceManager.obj
 0001:0007bc30       ??1CXTPA2W@CXTPResourceManager@@QAE@XZ 0047cc30 f   ToolkitPro1501vc60S:XTPResourceManager.obj
 0001:0007bc40       ??CCXTPMarkupAutoPtr@@QBEPAVCXTPMarkupObject@@XZ 0047cc40 f   ToolkitPro1501vc60S:XTPResourceManager.obj
 0001:0007bc40       ?GetIcon@CXTPImageManagerIconHandle@@QBEPAUHICON__@@XZ 0047cc40 f   ToolkitPro1501vc60S:XTPResourceManager.obj
 0001:0007bc40       ??BCXTPA2W@CXTPResourceManager@@QBEPBGXZ 0047cc40 f   ToolkitPro1501vc60S:XTPResourceManager.obj
 0001:0007bca0       ?XTPResourceManager@@YAPAVCXTPResourceManager@@XZ 0047cca0 f   ToolkitPro1501vc60S:XTPResourceManager.obj
 0001:0007bcb0       ??0CManageState@CXTPResourceManager@@QAE@XZ 0047ccb0 f   ToolkitPro1501vc60S:XTPResourceManager.obj
 0001:0007bcc0       ??1CManageState@CXTPResourceManager@@QAE@XZ 0047ccc0 f   ToolkitPro1501vc60S:XTPResourceManager.obj
 0001:0007bce0       ?Undo@CManageState@CXTPResourceManager@@QAEXXZ 0047cce0 f   ToolkitPro1501vc60S:XTPResourceManager.obj
 0001:0007bd00       ?Redo@CManageState@CXTPResourceManager@@QAEXXZ 0047cd00 f   ToolkitPro1501vc60S:XTPResourceManager.obj
 0001:0007bd40       ??0CXTPResourceManager@@QAE@XZ 0047cd40 f   ToolkitPro1501vc60S:XTPResourceManager.obj
 0001:0007bdc0       ?GetResourcesLangID@CXTPResourceManager@@UAEGXZ 0047cdc0 f i ToolkitPro1501vc60S:XTPResourceManager.obj
 0001:0007bdd0       ?LoadStringA@CXTPResourceManager@@UAE?AVCString@@IPAH@Z 0047cdd0 f i ToolkitPro1501vc60S:XTPResourceManager.obj
 0001:0007be60       ??_ECXTPResourceManager@@UAEPAXI@Z 0047ce60 f i ToolkitPro1501vc60S:XTPResourceManager.obj
 0001:0007be60       ??_GCXTPResourceManager@@UAEPAXI@Z 0047ce60 f i ToolkitPro1501vc60S:XTPResourceManager.obj
 0001:0007be80       ??1CXTPResourceManager@@UAE@XZ 0047ce80 f   ToolkitPro1501vc60S:XTPResourceManager.obj
 0001:0007bec0       ?Close@CXTPResourceManager@@UAEXXZ 0047cec0 f   ToolkitPro1501vc60S:XTPResourceManager.obj
 0001:0007bee0       ?GetResourceHandle@CXTPResourceManager@@QBEPAUHINSTANCE__@@XZ 0047cee0 f   ToolkitPro1501vc60S:XTPResourceManager.obj
 0001:0007bef0       ?FindResourceA@CXTPResourceManager@@QAEPAUHRSRC__@@AAPAUHINSTANCE__@@PBD1@Z 0047cef0 f   ToolkitPro1501vc60S:XTPResourceManager.obj
 0001:0007bf30       ?UpdateResourcesLangID@CXTPResourceManager@@MAEXXZ 0047cf30 f   ToolkitPro1501vc60S:XTPResourceManager.obj
 0001:0007bf50       ?SetResourceLanguage@CXTPResourceManager@@QAEXG@Z 0047cf50 f   ToolkitPro1501vc60S:XTPResourceManager.obj
 0001:0007bf80       ?GetResourceLanguage@CXTPResourceManager@@SAGPAUHINSTANCE__@@@Z 0047cf80 f   ToolkitPro1501vc60S:XTPResourceManager.obj
 0001:0007bfb0       ?EnumResTypeProc@CXTPResourceManager@@KGHPAUHINSTANCE__@@PADJ@Z 0047cfb0 f   ToolkitPro1501vc60S:XTPResourceManager.obj
 0001:0007c000       ?EnumResNameProc@CXTPResourceManager@@KGHPAUHINSTANCE__@@PBDPADJ@Z 0047d000 f   ToolkitPro1501vc60S:XTPResourceManager.obj
 0001:0007c050       ?EnumResLangProc@CXTPResourceManager@@KGHPAUHINSTANCE__@@PBD1GJ@Z 0047d050 f   ToolkitPro1501vc60S:XTPResourceManager.obj
 0001:0007c080       ?GetFontCharset@CXTPResourceManager@@QBEEXZ 0047d080 f   ToolkitPro1501vc60S:XTPResourceManager.obj
 0001:0007c0a0       ?LoadStringA@CXTPResourceManager@@UAEHPAVCString@@I@Z 0047d0a0 f   ToolkitPro1501vc60S:XTPResourceManager.obj
 0001:0007c120       ?LoadMenuA@CXTPResourceManager@@UAEHPAVCMenu@@I@Z 0047d120 f   ToolkitPro1501vc60S:XTPResourceManager.obj
 0001:0007c1c0       ?LoadToolBar@CXTPResourceManager@@UAEHPAVCToolBar@@I@Z 0047d1c0 f   ToolkitPro1501vc60S:XTPResourceManager.obj
 0001:0007c260       ?LoadBitmapA@CXTPResourceManager@@UAEHPAVCBitmap@@I@Z 0047d260 f   ToolkitPro1501vc60S:XTPResourceManager.obj
 0001:0007c300       ?LoadCursorA@CXTPResourceManager@@UAEPAUHICON__@@I@Z 0047d300 f   ToolkitPro1501vc60S:XTPResourceManager.obj
 0001:0007c370       ?LoadDialogTemplate2@CXTPResourceManager@@UAEPAXPBD@Z 0047d370 f   ToolkitPro1501vc60S:XTPResourceManager.obj
 0001:0007c3e0       ?LoadDialogTemplate@CXTPResourceManager@@UAEPBUDLGTEMPLATE@@I@Z 0047d3e0 f   ToolkitPro1501vc60S:XTPResourceManager.obj
 0001:0007c400       ?LoadHTML@CXTPResourceManager@@UAEHPAVCString@@I@Z 0047d400 f   ToolkitPro1501vc60S:XTPResourceManager.obj
 0001:0007c4f0       ?CreateIconFromResource@CXTPResourceManager@@UAEPAUHICON__@@PAUHINSTANCE__@@PBDVCSize@@@Z 0047d4f0 f   ToolkitPro1501vc60S:XTPResourceManager.obj
 0001:0007c5a0       ?LoadIconA@CXTPResourceManager@@UAEPAUHICON__@@PBDVCSize@@@Z 0047d5a0 f   ToolkitPro1501vc60S:XTPResourceManager.obj
 0001:0007c610       ?LoadIconA@CXTPResourceManager@@UAEPAUHICON__@@HVCSize@@@Z 0047d610 f   ToolkitPro1501vc60S:XTPResourceManager.obj
 0001:0007c630       ?ShowMessageBox@CXTPResourceManager@@QAEHII@Z 0047d630 f   ToolkitPro1501vc60S:XTPResourceManager.obj
 0001:0007c6b0       ?ShowMessageBox@CXTPResourceManager@@QAEHPBDI@Z 0047d6b0 f   ToolkitPro1501vc60S:XTPResourceManager.obj
 0001:0007c6f0       ?GetLanguageInfo@CXTPResourceManager@@SAPAUXTP_RESOURCEMANAGER_LANGINFO@@I@Z 0047d6f0 f   ToolkitPro1501vc60S:XTPResourceManager.obj
 0001:0007c730       ?GetMenuLocaleString@CXTPResourceManager@@QBEHPAVCMenu@@IAAVCString@@I@Z 0047d730 f   ToolkitPro1501vc60S:XTPResourceManager.obj
 0001:0007c8d0       ?LoadLocaleString@CXTPResourceManager@@QBEHPAUHINSTANCE__@@IAAVCString@@@Z 0047d8d0 f   ToolkitPro1501vc60S:XTPResourceManager.obj
 0001:0007c9d0       ?CreateObject@?$CProcessLocal@VCXTPResourceManager@@@@SGPAVCNoTrackObject@@XZ 0047d9d0 f i ToolkitPro1501vc60S:XTPResourceManager.obj
 0001:0007ca80       ??0CXTPRegistryManager@@QAE@PAUHKEY__@@@Z 0047da80 f   ToolkitPro1501vc60S:XTPRegistryManager.obj
 0001:0007cab0       ??_GCXTPRegistryManager@@UAEPAXI@Z 0047dab0 f i ToolkitPro1501vc60S:XTPRegistryManager.obj
 0001:0007cab0       ??_ECXTPRegistryManager@@UAEPAXI@Z 0047dab0 f i ToolkitPro1501vc60S:XTPRegistryManager.obj
 0001:0007cad0       ??1CXTPRegistryManager@@UAE@XZ 0047dad0 f   ToolkitPro1501vc60S:XTPRegistryManager.obj
 0001:0007cb30       ?GetProfileInfo@CXTPRegistryManager@@AAEHXZ 0047db30 f   ToolkitPro1501vc60S:XTPRegistryManager.obj
 0001:0007cba0       ?GetAppRegistryKey@CXTPRegistryManager@@MAEPAUHKEY__@@K@Z 0047dba0 f   ToolkitPro1501vc60S:XTPRegistryManager.obj
 0001:0007cce0       ?GetFullPathKey@CXTPRegistryManager@@ABEPAUHKEY__@@PBD@Z 0047dce0 f   ToolkitPro1501vc60S:XTPRegistryManager.obj
 0001:0007cd30       ?RecurseOpenKey@CXTPRegistryManager@@AAEPAUHKEY__@@PBDK@Z 0047dd30 f   ToolkitPro1501vc60S:XTPRegistryManager.obj
 0001:0007cef0       ??1CHKey@CXTPRegistryManager@@QAE@XZ 0047def0 f i ToolkitPro1501vc60S:XTPRegistryManager.obj
 0001:0007cf00       ?GetSectionKey@CXTPRegistryManager@@MAEPAUHKEY__@@PBDK@Z 0047df00 f   ToolkitPro1501vc60S:XTPRegistryManager.obj
 0001:0007cfc0       ?WriteProfileStringA@CXTPRegistryManager@@QAEHPBD00@Z 0047dfc0 f   ToolkitPro1501vc60S:XTPRegistryManager.obj
 0001:0007d0e0       ?GetProfileStringA@CXTPRegistryManager@@QAE?AVCString@@PBD00@Z 0047e0e0 f   ToolkitPro1501vc60S:XTPRegistryManager.obj
 0001:0007d270       ??0CXTPLogFont@@QAE@XZ     0047e270 f   ToolkitPro1501vc60S:XTPGlobal.obj
 0001:0007d290       ??0CXTPLogFont@@QAE@AAUtagLOGFONTA@@@Z 0047e290 f   ToolkitPro1501vc60S:XTPGlobal.obj
 0001:0007d2b0       ??0CXTPAuxData@@AAE@XZ     0047e2b0 f   ToolkitPro1501vc60S:XTPGlobal.obj
 0001:0007d480       ??_ECXTPAuxData@@UAEPAXI@Z 0047e480 f i ToolkitPro1501vc60S:XTPGlobal.obj
 0001:0007d480       ??_GCXTPAuxData@@UAEPAXI@Z 0047e480 f i ToolkitPro1501vc60S:XTPGlobal.obj
 0001:0007d4a0       ??1CXTPAuxData@@UAE@XZ     0047e4a0 f   ToolkitPro1501vc60S:XTPGlobal.obj
 0001:0007d5f0       ?LoadSysCursors@CXTPAuxData@@QAEHXZ 0047e5f0 f   ToolkitPro1501vc60S:XTPGlobal.obj
 0001:0007d6f0       ?UpdateSysColors@CXTPAuxData@@QAEXXZ 0047e6f0 f   ToolkitPro1501vc60S:XTPGlobal.obj
 0001:0007d9c0       ?UpdateSysMetrics@CXTPAuxData@@QAEXXZ 0047e9c0 f   ToolkitPro1501vc60S:XTPGlobal.obj
 0001:0007da10       ?LoadSysFonts@CXTPAuxData@@QAEHPBD0@Z 0047ea10 f   ToolkitPro1501vc60S:XTPGlobal.obj
 0001:0007def0       ?FreeSysFonts@CXTPAuxData@@QAEXXZ 0047eef0 f   ToolkitPro1501vc60S:XTPGlobal.obj
 0001:0007dfe0       ?FontExists@CXTPAuxData@@QAEHPBD@Z 0047efe0 f   ToolkitPro1501vc60S:XTPGlobal.obj
 0001:0007dff0       ?CreateSysFont@CXTPAuxData@@QAEHABVCXTPLogFont@@AAVCFont@@JDJJ@Z 0047eff0 f   ToolkitPro1501vc60S:XTPGlobal.obj
 0001:0007e070       ?GetComCtlVersion@CXTPAuxData@@QAEKXZ 0047f070 f   ToolkitPro1501vc60S:XTPGlobal.obj
 0001:0007e090       ?XTPAuxData@@YGAAVCXTPAuxData@@XZ 0047f090 f   ToolkitPro1501vc60S:XTPGlobal.obj
 0001:0007e0e0       ?XTPContextMenu@@YGHPAVCMenu@@IHHPAVCWnd@@HH@Z 0047f0e0 f   ToolkitPro1501vc60S:XTPFunctions.obj
 0001:0007e220       ?CreateObject@CXTPDockBar@@SGPAVCObject@@XZ 0047f220 f   ToolkitPro1501vc60S:XTPDockBar.obj
 0001:0007e280       ?GetRuntimeClass@CXTPDockBar@@UBEPAUCRuntimeClass@@XZ 0047f280 f   ToolkitPro1501vc60S:XTPDockBar.obj
 0001:0007e290       ??0CXTPDockBar@@QAE@XZ     0047f290 f   ToolkitPro1501vc60S:XTPDockBar.obj
 0001:0007e430       ??_ECXTPDockBar@@UAEPAXI@Z 0047f430 f i ToolkitPro1501vc60S:XTPDockBar.obj
 0001:0007e430       ??_GCXTPDockBar@@UAEPAXI@Z 0047f430 f i ToolkitPro1501vc60S:XTPDockBar.obj
 0001:0007e450       ??1CXTPDockBar@@UAE@XZ     0047f450 f   ToolkitPro1501vc60S:XTPDockBar.obj
 0001:0007e4c0       ?GetMessageMap@CXTPDockBar@@MBEPBUAFX_MSGMAP@@XZ 0047f4c0 f   ToolkitPro1501vc60S:XTPDockBar.obj
 0001:0007e4d0       ?OnNcHitTest@CXTPDockBar@@IAEJVCPoint@@@Z 0047f4d0 f   ToolkitPro1501vc60S:XTPDockBar.obj
 0001:0007e530       ?Create@CXTPDockBar@@IAEHPAVCWnd@@KI@Z 0047f530 f   ToolkitPro1501vc60S:XTPDockBar.obj
 0001:0007e5f0       ?PreCreateWindow@CXTPDockBar@@MAEHAAUtagCREATESTRUCTA@@@Z 0047f5f0 f   ToolkitPro1501vc60S:XTPDockBar.obj
 0001:0007e620       ?_GetMode@CXTPDockBar@@IAEHHPAVCXTPToolBar@@@Z 0047f620 f   ToolkitPro1501vc60S:XTPDockBar.obj
 0001:0007e660       ?_AdjustRow@CXTPDockBar@@IAEHAAV?$CArray@PAVCXTPToolBar@@PAV1@@@VCPoint@@HHPAUAFX_SIZEPARENTPARAMS@@AAH@Z 0047f660 f   ToolkitPro1501vc60S:XTPDockBar.obj
 0001:0007ee00       ?CompareFunc@CDockInfoArray@CXTPDockBar@@SAHPBX0@Z 0047fe00 f i ToolkitPro1501vc60S:XTPDockBar.obj
 0001:0007ee20       ??1CDockInfoArray@CXTPDockBar@@UAE@XZ 0047fe20 f i ToolkitPro1501vc60S:XTPDockBar.obj
 0001:0007ee70       ??_GCDockInfoArray@CXTPDockBar@@UAEPAXI@Z 0047fe70 f i ToolkitPro1501vc60S:XTPDockBar.obj
 0001:0007ee70       ??_ECDockInfoArray@CXTPDockBar@@UAEPAXI@Z 0047fe70 f i ToolkitPro1501vc60S:XTPDockBar.obj
 0001:0007ee90       ?AdjustRow@CXTPDockBar@@IAEHAAV?$CArray@PAVCXTPToolBar@@PAV1@@@VCPoint@@HHPAUAFX_SIZEPARENTPARAMS@@@Z 0047fe90 f   ToolkitPro1501vc60S:XTPDockBar.obj
 0001:0007f000       ?CalcDynamicLayout@CXTPDockBar@@IAE?AVCSize@@HKPAUAFX_SIZEPARENTPARAMS@@@Z 00480000 f   ToolkitPro1501vc60S:XTPDockBar.obj
 0001:0007f1f0       ?OnSizeParent@CXTPDockBar@@IAEJIJ@Z 004801f0 f   ToolkitPro1501vc60S:XTPDockBar.obj
 0001:0007f370       ?OnPaint@CXTPDockBar@@IAEXXZ 00480370 f   ToolkitPro1501vc60S:XTPDockBar.obj
 0001:0007f3e0       ?OnPrintClient@CXTPDockBar@@IAEJIJ@Z 004803e0 f   ToolkitPro1501vc60S:XTPDockBar.obj
 0001:0007f420       ?AdjustStretchBars@CXTPDockBar@@IAEXXZ 00480420 f   ToolkitPro1501vc60S:XTPDockBar.obj
 0001:0007f7a0       ?DockCommandBar@CXTPDockBar@@IAEXPAVCXTPToolBar@@PBUtagRECT@@@Z 004807a0 f   ToolkitPro1501vc60S:XTPDockBar.obj
 0001:0007f930       ?RemoveCommandBar@CXTPDockBar@@IAEHPAVCXTPToolBar@@H@Z 00480930 f   ToolkitPro1501vc60S:XTPDockBar.obj
 0001:0007f9e0       ?GetDockedCommandBar@CXTPDockBar@@IBEPAVCXTPToolBar@@H@Z 004809e0 f   ToolkitPro1501vc60S:XTPDockBar.obj
 0001:0007f9f0       ?FindBar@CXTPDockBar@@IAEHPAVCXTPToolBar@@H@Z 004809f0 f   ToolkitPro1501vc60S:XTPDockBar.obj
 0001:0007fa20       ?Insert@CXTPDockBar@@IAEHPAVCXTPToolBar@@VCRect@@VCPoint@@@Z 00480a20 f   ToolkitPro1501vc60S:XTPDockBar.obj
 0001:0007fd60       ?GetPosition@CXTPDockBar@@QBE?AW4XTPBarPosition@@XZ 00480d60 f   ToolkitPro1501vc60S:XTPDockBar.obj
 0001:0007fd90       ?OnRButtonDown@CXTPDockBar@@IAEXIVCPoint@@@Z 00480d90 f   ToolkitPro1501vc60S:XTPDockBar.obj
 0001:0007fdc0       ?GetVisibleToolbars@CXTPDockBar@@IAEXHAAV?$CArray@PAVCXTPToolBar@@PAV1@@@@Z 00480dc0 f   ToolkitPro1501vc60S:XTPDockBar.obj
 0001:0007ffb0       ??0?$CArray@UDOCK_INFO@CXTPDockBar@@AAU12@@@QAE@XZ 00480fb0 f i ToolkitPro1501vc60S:XTPDockBar.obj
 0001:0007ffd0       ?Serialize@?$CArray@UDOCK_INFO@CXTPDockBar@@AAU12@@@UAEXAAVCArchive@@@Z 00480fd0 f i ToolkitPro1501vc60S:XTPDockBar.obj
 0001:00080160       ??_G?$CArray@UDOCK_INFO@CXTPDockBar@@AAU12@@@UAEPAXI@Z 00481160 f i ToolkitPro1501vc60S:XTPDockBar.obj
 0001:00080160       ??_E?$CArray@UDOCK_INFO@CXTPDockBar@@AAU12@@@UAEPAXI@Z 00481160 f i ToolkitPro1501vc60S:XTPDockBar.obj
 0001:00080180       ??1?$CArray@UDOCK_INFO@CXTPDockBar@@AAU12@@@UAE@XZ 00481180 f i ToolkitPro1501vc60S:XTPDockBar.obj
 0001:000801d0       ?SetSize@?$CArray@UDOCK_INFO@CXTPDockBar@@AAU12@@@QAEXHH@Z 004811d0 f i ToolkitPro1501vc60S:XTPDockBar.obj
 0001:00080310       ?SetAtGrow@?$CArray@UDOCK_INFO@CXTPDockBar@@AAU12@@@QAEXHAAUDOCK_INFO@CXTPDockBar@@@Z 00481310 f i ToolkitPro1501vc60S:XTPDockBar.obj
 0001:00080460       ?ConstructElements@@YGXPAUDOCK_INFO@CXTPDockBar@@H@Z 00481460 f i ToolkitPro1501vc60S:XTPDockBar.obj
 0001:00080500       ??0DOCK_INFO@CXTPDockBar@@QAE@PAVCXTPToolBar@@VCRect@@H@Z 00481500 f i ToolkitPro1501vc60S:XTPDockBar.obj
 0001:00080550       ?Draw@CControlExpandButton@CXTPPopupBar@@UAEXPAVCDC@@@Z 00481550 f   ToolkitPro1501vc60S:XTPPopupBar.obj
 0001:00080590       ?OnExecute@CControlExpandButton@CXTPPopupBar@@UAEXXZ 00481590 f   ToolkitPro1501vc60S:XTPPopupBar.obj
 0001:000805a0       ?CreateObject@CXTPPopupBar@@SGPAVCObject@@XZ 004815a0 f   ToolkitPro1501vc60S:XTPPopupBar.obj
 0001:00080600       ?GetRuntimeClass@CXTPPopupBar@@UBEPAUCRuntimeClass@@XZ 00481600 f   ToolkitPro1501vc60S:XTPPopupBar.obj
 0001:00080630       ?Clone@CXTPPopupBar@@UAEPAVCXTPCommandBar@@H@Z 00481630 f   ToolkitPro1501vc60S:XTPPopupBar.obj
 0001:00080660       ??0CXTPPopupBar@@IAE@XZ    00481660 f   ToolkitPro1501vc60S:XTPPopupBar.obj
 0001:000807b0       ??_ECXTPPopupBar@@MAEPAXI@Z 004817b0 f i ToolkitPro1501vc60S:XTPPopupBar.obj
 0001:000807b0       ??_GCXTPPopupBar@@MAEPAXI@Z 004817b0 f i ToolkitPro1501vc60S:XTPPopupBar.obj
 0001:000807d0       ?CreatePopupBar@CXTPPopupBar@@SAPAV1@PAVCXTPCommandBars@@@Z 004817d0 f   ToolkitPro1501vc60S:XTPPopupBar.obj
 0001:000807f0       ??1CXTPPopupBar@@MAE@XZ    004817f0 f   ToolkitPro1501vc60S:XTPPopupBar.obj
 0001:00080860       ?IsVisible@CXTPPopupBar@@UBEHXZ 00481860 f   ToolkitPro1501vc60S:XTPPopupBar.obj
 0001:00080880       ?ExpandBar@CXTPPopupBar@@QAEXXZ 00481880 f   ToolkitPro1501vc60S:XTPPopupBar.obj
 0001:00080910       ?Create@CXTPPopupBar@@UAEHXZ 00481910 f   ToolkitPro1501vc60S:XTPPopupBar.obj
 0001:00080a10       ?GetAnimationType@CXTPPopupBar@@ABE?AW4XTPAnimationType@@XZ 00481a10 f   ToolkitPro1501vc60S:XTPPopupBar.obj
 0001:00080af0       ?OnControlsChanged@CXTPPopupBar@@MAEXXZ 00481af0 f   ToolkitPro1501vc60S:XTPPopupBar.obj
 0001:00080b10       ?RecalcSizeLayout@CXTPPopupBar@@AAEXXZ 00481b10 f   ToolkitPro1501vc60S:XTPPopupBar.obj
 0001:00080cc0       ?OnRecalcLayout@CXTPPopupBar@@MAEXXZ 00481cc0 f   ToolkitPro1501vc60S:XTPPopupBar.obj
 0001:00081170       ?GetBorders@CXTPPopupBar@@UAE?AVCRect@@XZ 00482170 f   ToolkitPro1501vc60S:XTPPopupBar.obj
 0001:000811f0       ?CalcDynamicLayout@CXTPPopupBar@@UAE?AVCSize@@HK@Z 004821f0 f   ToolkitPro1501vc60S:XTPPopupBar.obj
 0001:00081630       ??1CXTPControlToolbar@CXTPControlToolbars@@UAE@XZ 00482630 f i ToolkitPro1501vc60S:XTPPopupBar.obj
 0001:00081630       ??1CControlButtonHide@CXTPToolBar@@UAE@XZ 00482630 f i ToolkitPro1501vc60S:XTPPopupBar.obj
 0001:00081630       ??1CControlMDIButton@CXTPMenuBar@@UAE@XZ 00482630 f i ToolkitPro1501vc60S:XTPPopupBar.obj
 0001:00081630       ??1CControlGroupsScroll@CXTPRibbonScrollableBar@@UAE@XZ 00482630 f i ToolkitPro1501vc60S:XTPPopupBar.obj
 0001:00081630       ??1CXTPRibbonGroupOption@@UAE@XZ 00482630 f i ToolkitPro1501vc60S:XTPPopupBar.obj
 0001:00081630       ??1CControlButtonHide@CXTPDialogBar@@UAE@XZ 00482630 f i ToolkitPro1501vc60S:XTPPopupBar.obj
 0001:00081630       ??1CXTPControlWindowList@@UAE@XZ 00482630 f i ToolkitPro1501vc60S:XTPPopupBar.obj
 0001:00081630       ??1CXTPRibbonControlSystemPopupBarListItem@@UAE@XZ 00482630 f i ToolkitPro1501vc60S:XTPPopupBar.obj
 0001:00081630       ??1CControlExpandButton@CXTPPopupBar@@UAE@XZ 00482630 f i ToolkitPro1501vc60S:XTPPopupBar.obj
 0001:00081630       ??1CXTPControlOleItems@@UAE@XZ 00482630 f i ToolkitPro1501vc60S:XTPPopupBar.obj
 0001:00081630       ??1CControlCustomization@CXTPStatusBar@@UAE@XZ 00482630 f i ToolkitPro1501vc60S:XTPPopupBar.obj
 0001:00081630       ??1CControlFileItem@CXTPRibbonControlSystemRecentFileList@@UAE@XZ 00482630 f i ToolkitPro1501vc60S:XTPPopupBar.obj
 0001:00081630       ??1CXTPControlWorkspaceActions@@UAE@XZ 00482630 f i ToolkitPro1501vc60S:XTPPopupBar.obj
 0001:00081630       ??1CCustomizeButton@CXTPCustomizeSheet@@UAE@XZ 00482630 f i ToolkitPro1501vc60S:XTPPopupBar.obj
 0001:00081630       ??1CControlButtonCustomize@CXTPToolBar@@UAE@XZ 00482630 f i ToolkitPro1501vc60S:XTPPopupBar.obj
 0001:00081630       ??1CXTPControlCheckBox@@UAE@XZ 00482630 f i ToolkitPro1501vc60S:XTPPopupBar.obj
 0001:00081630       ??1CXTPControlToolbars@@UAE@XZ 00482630 f i ToolkitPro1501vc60S:XTPPopupBar.obj
 0001:00081630       ??1CXTPRibbonBarControlCaptionButton@@UAE@XZ 00482630 f i ToolkitPro1501vc60S:XTPPopupBar.obj
 0001:00081630       ??1CXTPRibbonControlSystemPopupBarButton@@UAE@XZ 00482630 f i ToolkitPro1501vc60S:XTPPopupBar.obj
 0001:00081630       ??1CControlQuickAccessCommand@CXTPRibbonBar@@UAE@XZ 00482630 f i ToolkitPro1501vc60S:XTPPopupBar.obj
 0001:00081630       ??1CXTPControlRecentFileList@@UAE@XZ 00482630 f i ToolkitPro1501vc60S:XTPPopupBar.obj
 0001:00081630       ??1CXTPControlRadioButton@@UAE@XZ 00482630 f i ToolkitPro1501vc60S:XTPPopupBar.obj
 0001:00081640       ?CalculatePopupRect@CXTPPopupBar@@UAE?AVCRect@@VCPoint@@VCSize@@@Z 00482640 f   ToolkitPro1501vc60S:XTPPopupBar.obj
 0001:00081ba0       ?UpdateLocation@CXTPPopupBar@@IAEXVCSize@@@Z 00482ba0 f   ToolkitPro1501vc60S:XTPPopupBar.obj
 0001:00081c20       ?AdjustScrolling@CXTPPopupBar@@AAEXPAUtagSIZE@@HH@Z 00482c20 f   ToolkitPro1501vc60S:XTPPopupBar.obj
 0001:00082270       ?UpdateShortcuts@CXTPCommandBar@@MAEXXZ 00483270 f   ToolkitPro1501vc60S:XTPPopupBar.obj
 0001:000823a0       ?AdjustExcludeRect@CXTPPopupBar@@MAEXAAVCRect@@H@Z 004833a0 f   ToolkitPro1501vc60S:XTPPopupBar.obj
 0001:000823c0       ?UpdateFlags@CXTPPopupBar@@MAEXXZ 004833c0 f   ToolkitPro1501vc60S:XTPPopupBar.obj
 0001:00082560       ?UpdateExpandingState@CXTPPopupBar@@IAEXXZ 00483560 f   ToolkitPro1501vc60S:XTPPopupBar.obj
 0001:000826d0       ?Animate@CXTPPopupBar@@MAEXXZ 004836d0 f   ToolkitPro1501vc60S:XTPPopupBar.obj
 0001:00082990       ?Popup@CXTPPopupBar@@UAEHPAVCXTPControlPopup@@H@Z 00483990 f   ToolkitPro1501vc60S:XTPPopupBar.obj
 0001:00082be0       ?Popup@CXTPPopupBar@@QAEHHHPBUtagRECT@@@Z 00483be0 f   ToolkitPro1501vc60S:XTPPopupBar.obj
 0001:00082c20       ?GetMessageMap@CXTPPopupBar@@MBEPBUAFX_MSGMAP@@XZ 00483c20 f   ToolkitPro1501vc60S:XTPPopupBar.obj
 0001:00082c30       ?SwitchTearOffTracking@CXTPPopupBar@@AAEXHVCPoint@@@Z 00483c30 f   ToolkitPro1501vc60S:XTPPopupBar.obj
 0001:00082e10       ?TrackResize@CXTPPopupBar@@AAEXXZ 00483e10 f   ToolkitPro1501vc60S:XTPPopupBar.obj
 0001:00083060       ?TrackTearOff@CXTPPopupBar@@AAEXXZ 00484060 f   ToolkitPro1501vc60S:XTPPopupBar.obj
 0001:00083210       ?_MouseInResizeGripper@CXTPPopupBar@@AAEHABUtagPOINT@@@Z 00484210 f   ToolkitPro1501vc60S:XTPPopupBar.obj
 0001:000832a0       ?OnSetCursor@CXTPPopupBar@@IAEHPAVCWnd@@II@Z 004842a0 f   ToolkitPro1501vc60S:XTPPopupBar.obj
 0001:00083330       ?OnLButtonDown@CXTPPopupBar@@IAEXIVCPoint@@@Z 00484330 f   ToolkitPro1501vc60S:XTPPopupBar.obj
 0001:00083430       ?DestroyWindow@CXTPPopupBar@@UAEHXZ 00484430 f   ToolkitPro1501vc60S:XTPPopupBar.obj
 0001:000834d0       ?SetTrackingMode@CXTPPopupBar@@UAEHHHH@Z 004844d0 f   ToolkitPro1501vc60S:XTPPopupBar.obj
 0001:000835a0       ?OnMouseMove@CXTPPopupBar@@IAEXIVCPoint@@@Z 004845a0 f   ToolkitPro1501vc60S:XTPPopupBar.obj
 0001:00083760       ?GetParentCommandBar@CXTPPopupBar@@MBEPAVCXTPCommandBar@@XZ 00484760 f   ToolkitPro1501vc60S:XTPPopupBar.obj
 0001:00083780       ?OnNcActivate@CXTPToolBar@@IAEHH@Z 00484780 f   ToolkitPro1501vc60S:XTPPopupBar.obj
 0001:00083780       ?OnNcActivate@CXTPPopupBar@@IAEHH@Z 00484780 f   ToolkitPro1501vc60S:XTPPopupBar.obj
 0001:000837a0       ?OnFloatStatus@CXTPPopupBar@@IAEJIJ@Z 004847a0 f   ToolkitPro1501vc60S:XTPPopupBar.obj
 0001:000837c0       ?DrawCommandBar@CXTPPopupBar@@MAEXPAVCDC@@VCRect@@@Z 004847c0 f   ToolkitPro1501vc60S:XTPPopupBar.obj
 0001:00083980       ?SetSelected@CXTPPopupBar@@MAEHHH@Z 00484980 f   ToolkitPro1501vc60S:XTPPopupBar.obj
 0001:00083a60       ?OnTimer@CXTPPopupBar@@IAEXI@Z 00484a60 f   ToolkitPro1501vc60S:XTPPopupBar.obj
 0001:00083c50       ?OnHookKeyDown@CXTPPopupBar@@MAEHIJ@Z 00484c50 f   ToolkitPro1501vc60S:XTPPopupBar.obj
 0001:00083cb0       ?GetDefaultItem@CXTPPopupBar@@QAEIIH@Z 00484cb0 f   ToolkitPro1501vc60S:XTPPopupBar.obj
 0001:00083d20       ?Copy@CXTPPopupBar@@MAEXPAVCXTPCommandBar@@H@Z 00484d20 f   ToolkitPro1501vc60S:XTPPopupBar.obj
 0001:00083db0       ?CreateObject@CXTPPopupToolBar@@SGPAVCObject@@XZ 00484db0 f   ToolkitPro1501vc60S:XTPPopupBar.obj
 0001:00083e10       ?GetRuntimeClass@CXTPPopupToolBar@@UBEPAUCRuntimeClass@@XZ 00484e10 f   ToolkitPro1501vc60S:XTPPopupBar.obj
 0001:00083e40       ?Clone@CXTPPopupToolBar@@UAEPAVCXTPCommandBar@@H@Z 00484e40 f   ToolkitPro1501vc60S:XTPPopupBar.obj
 0001:00083e70       ??0CXTPPopupToolBar@@QAE@XZ 00484e70 f   ToolkitPro1501vc60S:XTPPopupBar.obj
 0001:00083ea0       ??1CXTPPopupToolBar@@UAE@XZ 00484ea0 f i ToolkitPro1501vc60S:XTPPopupBar.obj
 0001:00083ea0       ??1CXTPRibbonSystemPopupBarPage@@UAE@XZ 00484ea0 f i ToolkitPro1501vc60S:XTPPopupBar.obj
 0001:00083ea0       ??1CXTPControlComboBoxGalleryPopupBar@@UAE@XZ 00484ea0 f i ToolkitPro1501vc60S:XTPPopupBar.obj
 0001:00083ea0       ??1CCaptionPopupBar@CXTPDialogBar@@UAE@XZ 00484ea0 f i ToolkitPro1501vc60S:XTPPopupBar.obj
 0001:00083ea0       ??1CXTPSysMenuPopupBar@CControlMDISysMenuPopup@CXTPMenuBar@@UAE@XZ 00484ea0 f i ToolkitPro1501vc60S:XTPPopupBar.obj
 0001:00083ea0       ??1CXTPRibbonSystemPopupBar@@UAE@XZ 00484ea0 f i ToolkitPro1501vc60S:XTPPopupBar.obj
 0001:00083ea0       ??1CXTPControlComboBoxPopupBar@@UAE@XZ 00484ea0 f i ToolkitPro1501vc60S:XTPPopupBar.obj
 0001:00083ea0       ??1CXTPControlComboBoxList@@UAE@XZ 00484ea0 f i ToolkitPro1501vc60S:XTPPopupBar.obj
 0001:00083ea0       ??1CXTPRibbonBarMorePopupToolBar@@UAE@XZ 00484ea0 f i ToolkitPro1501vc60S:XTPPopupBar.obj
 0001:00083eb0       ?CalcDynamicLayout@CXTPPopupToolBar@@MAE?AVCSize@@HK@Z 00484eb0 f   ToolkitPro1501vc60S:XTPPopupBar.obj
 0001:00083ee0       ?CreatePopupToolBar@CXTPPopupToolBar@@SAPAV1@PAVCXTPCommandBars@@@Z 00484ee0 f   ToolkitPro1501vc60S:XTPPopupBar.obj
 0001:00083f00       ??_ECXTPPopupBar@@ODM@AEPAXI@Z 00484f00 f i ToolkitPro1501vc60S:XTPPopupBar.obj
 0001:00083f10       ??_ECXTPPopupBar@@OEE@AEPAXI@Z 00484f10 f i ToolkitPro1501vc60S:XTPPopupBar.obj
 0001:00083f20       ??0CXTPMenuBarMDIMenuInfo@@QAE@PAVCXTPCommandBars@@I@Z 00484f20 f   ToolkitPro1501vc60S:XTPMenuBar.obj
 0001:00084040       ??_ECXTPMenuBarMDIMenuInfo@@UAEPAXI@Z 00485040 f i ToolkitPro1501vc60S:XTPMenuBar.obj
 0001:00084040       ??_GCXTPMenuBarMDIMenuInfo@@UAEPAXI@Z 00485040 f i ToolkitPro1501vc60S:XTPMenuBar.obj
 0001:00084060       ??1CXTPMenuBarMDIMenuInfo@@UAE@XZ 00485060 f   ToolkitPro1501vc60S:XTPMenuBar.obj
 0001:000840d0       ??0CXTPMenuBarMDIMenus@@QAE@PAVCXTPMenuBar@@@Z 004850d0 f   ToolkitPro1501vc60S:XTPMenuBar.obj
 0001:00084110       ??_ECXTPMenuBarMDIMenus@@UAEPAXI@Z 00485110 f i ToolkitPro1501vc60S:XTPMenuBar.obj
 0001:00084110       ??_GCXTPMenuBarMDIMenus@@UAEPAXI@Z 00485110 f i ToolkitPro1501vc60S:XTPMenuBar.obj
 0001:00084130       ??1CXTPMenuBarMDIMenus@@UAE@XZ 00485130 f   ToolkitPro1501vc60S:XTPMenuBar.obj
 0001:000841e0       ?RemoveAll@CXTPMenuBarMDIMenus@@QAEXXZ 004851e0 f   ToolkitPro1501vc60S:XTPMenuBar.obj
 0001:00084290       ?Remove@CXTPMenuBarMDIMenus@@QAEXI@Z 00485290 f   ToolkitPro1501vc60S:XTPMenuBar.obj
 0001:00084350       ?SetAt@CXTPMenuBarMDIMenus@@QAEXIPAVCXTPMenuBarMDIMenuInfo@@@Z 00485350 f   ToolkitPro1501vc60S:XTPMenuBar.obj
 0001:00084440       ?Lookup@CXTPMenuBarMDIMenus@@QBEPAVCXTPMenuBarMDIMenuInfo@@I@Z 00485440 f   ToolkitPro1501vc60S:XTPMenuBar.obj
 0001:00084480       ?GetHeight@CXTPImageManagerIcon@@QBEHXZ 00485480 f   ToolkitPro1501vc60S:XTPMenuBar.obj
 0001:00084480       ?GetCount@CXTPCommandBarList@@QBEHXZ 00485480 f   ToolkitPro1501vc60S:XTPMenuBar.obj
 0001:00084480       ?GetCount@CXTPMenuBarMDIMenus@@QBEHXZ 00485480 f   ToolkitPro1501vc60S:XTPMenuBar.obj
 0001:00084490       ?GetStartPosition@CXTPMenuBarMDIMenus@@QBEPAU__POSITION@@XZ 00485490 f   ToolkitPro1501vc60S:XTPMenuBar.obj
 0001:000844a0       ?GetNextMenu@CXTPMenuBarMDIMenus@@QBEXAAPAU__POSITION@@AAPAVCXTPMenuBarMDIMenuInfo@@@Z 004854a0 f   ToolkitPro1501vc60S:XTPMenuBar.obj
 0001:00084500       ?Draw@CControlMDIButton@CXTPMenuBar@@UAEXPAVCDC@@@Z 00485500 f   ToolkitPro1501vc60S:XTPMenuBar.obj
 0001:00084520       ?CreateObject@CXTPMenuBar@@SGPAVCObject@@XZ 00485520 f   ToolkitPro1501vc60S:XTPMenuBar.obj
 0001:00084580       ?GetRuntimeClass@CXTPMenuBar@@UBEPAUCRuntimeClass@@XZ 00485580 f   ToolkitPro1501vc60S:XTPMenuBar.obj
 0001:000845b0       ?Clone@CXTPMenuBar@@UAEPAVCXTPCommandBar@@H@Z 004855b0 f   ToolkitPro1501vc60S:XTPMenuBar.obj
 0001:000845e0       ??0CXTPMenuBar@@QAE@XZ     004855e0 f   ToolkitPro1501vc60S:XTPMenuBar.obj
 0001:000846b0       ?IsVisible@CXTPToolBar@@UBEHXZ 004856b0 f i ToolkitPro1501vc60S:XTPMenuBar.obj
 0001:000846c0       ??_ECXTPMenuBar@@UAEPAXI@Z 004856c0 f i ToolkitPro1501vc60S:XTPMenuBar.obj
 0001:000846c0       ??_GCXTPMenuBar@@UAEPAXI@Z 004856c0 f i ToolkitPro1501vc60S:XTPMenuBar.obj
 0001:000846e0       ??1CXTPMenuBar@@UAE@XZ     004856e0 f   ToolkitPro1501vc60S:XTPMenuBar.obj
 0001:00084760       ?OnDestroy@CXTPMenuBar@@IAEXXZ 00485760 f   ToolkitPro1501vc60S:XTPMenuBar.obj
 0001:000847a0       ?SetupHook@CXTPMenuBar@@IAEXXZ 004857a0 f   ToolkitPro1501vc60S:XTPMenuBar.obj
 0001:00084820       ?GetActiveMdiChildWnd@CXTPMenuBar@@IAEPAUHWND__@@PAH@Z 00485820 f   ToolkitPro1501vc60S:XTPMenuBar.obj
 0001:00084890       ?IsOleDocumentActive@CXTPMenuBar@@ABEHPAUHWND__@@@Z 00485890 f   ToolkitPro1501vc60S:XTPMenuBar.obj
 0001:00084920       ?SyncActiveMdiChild@CXTPMenuBar@@IAEXXZ 00485920 f   ToolkitPro1501vc60S:XTPMenuBar.obj
 0001:000849a0       ?RefreshMenu@CXTPMenuBar@@QAEXXZ 004859a0 f   ToolkitPro1501vc60S:XTPMenuBar.obj
 0001:000849d0       ?AddSysButton@CXTPMenuBar@@AAEXPAVCXTPControl@@HPBDH@Z 004859d0 f   ToolkitPro1501vc60S:XTPMenuBar.obj
 0001:00084a00       ?RefreshSysButtons@CXTPMenuBar@@MAEXXZ 00485a00 f   ToolkitPro1501vc60S:XTPMenuBar.obj
 0001:00085090       ?OnExecute@CControlMDIButton@CXTPMenuBar@@UAEXXZ 00486090 f i ToolkitPro1501vc60S:XTPMenuBar.obj
 0001:000850f0       ?SetMDISysMenu@CControlMDISysMenuPopup@CXTPMenuBar@@QAEXPAUHWND__@@PAUHMENU__@@@Z 004860f0 f i ToolkitPro1501vc60S:XTPMenuBar.obj
 0001:000853c0       ?GetSize@CControlMDISysMenuPopup@CXTPMenuBar@@UAE?AVCSize@@PAVCDC@@@Z 004863c0 f i ToolkitPro1501vc60S:XTPMenuBar.obj
 0001:000853c0       ?GetSize@CControlMDIButton@CXTPMenuBar@@UAE?AVCSize@@PAVCDC@@@Z 004863c0 f i ToolkitPro1501vc60S:XTPMenuBar.obj
 0001:000853e0       ?Draw@CControlMDISysMenuPopup@CXTPMenuBar@@UAEXPAVCDC@@@Z 004863e0 f i ToolkitPro1501vc60S:XTPMenuBar.obj
 0001:00085430       ?AdjustExcludeRect@CControlMDISysMenuPopup@CXTPMenuBar@@UAEXAAVCRect@@H@Z 00486430 f i ToolkitPro1501vc60S:XTPMenuBar.obj
 0001:00085450       ??_GCControlMDISysMenuPopup@CXTPMenuBar@@UAEPAXI@Z 00486450 f i ToolkitPro1501vc60S:XTPMenuBar.obj
 0001:00085450       ??_ECControlMDISysMenuPopup@CXTPMenuBar@@UAEPAXI@Z 00486450 f i ToolkitPro1501vc60S:XTPMenuBar.obj
 0001:00085470       ??1CControlMDISysMenuPopup@CXTPMenuBar@@UAE@XZ 00486470 f i ToolkitPro1501vc60S:XTPMenuBar.obj
 0001:000854a0       ??_ECXTPSysMenuPopupBar@CControlMDISysMenuPopup@CXTPMenuBar@@UAEPAXI@Z 004864a0 f i ToolkitPro1501vc60S:XTPMenuBar.obj
 0001:000854a0       ??_GCXTPPopupToolBar@@UAEPAXI@Z 004864a0 f i ToolkitPro1501vc60S:XTPMenuBar.obj
 0001:000854a0       ??_ECXTPControlComboBoxList@@UAEPAXI@Z 004864a0 f i ToolkitPro1501vc60S:XTPMenuBar.obj
 0001:000854a0       ??_ECXTPPopupToolBar@@UAEPAXI@Z 004864a0 f i ToolkitPro1501vc60S:XTPMenuBar.obj
 0001:000854a0       ??_ECXTPControlComboBoxPopupBar@@UAEPAXI@Z 004864a0 f i ToolkitPro1501vc60S:XTPMenuBar.obj
 0001:000854a0       ??_GCXTPControlComboBoxList@@UAEPAXI@Z 004864a0 f i ToolkitPro1501vc60S:XTPMenuBar.obj
 0001:000854a0       ??_GCXTPRibbonSystemPopupBar@@UAEPAXI@Z 004864a0 f i ToolkitPro1501vc60S:XTPMenuBar.obj
 0001:000854a0       ??_ECCaptionPopupBar@CXTPDialogBar@@UAEPAXI@Z 004864a0 f i ToolkitPro1501vc60S:XTPMenuBar.obj
 0001:000854a0       ??_ECXTPRibbonSystemPopupBarPage@@UAEPAXI@Z 004864a0 f i ToolkitPro1501vc60S:XTPMenuBar.obj
 0001:000854a0       ??_GCXTPControlComboBoxGalleryPopupBar@@UAEPAXI@Z 004864a0 f i ToolkitPro1501vc60S:XTPMenuBar.obj
 0001:000854a0       ??_ECXTPControlComboBoxGalleryPopupBar@@UAEPAXI@Z 004864a0 f i ToolkitPro1501vc60S:XTPMenuBar.obj
 0001:000854a0       ??_GCXTPControlComboBoxPopupBar@@UAEPAXI@Z 004864a0 f i ToolkitPro1501vc60S:XTPMenuBar.obj
 0001:000854a0       ??_GCCaptionPopupBar@CXTPDialogBar@@UAEPAXI@Z 004864a0 f i ToolkitPro1501vc60S:XTPMenuBar.obj
 0001:000854a0       ??_GCXTPSysMenuPopupBar@CControlMDISysMenuPopup@CXTPMenuBar@@UAEPAXI@Z 004864a0 f i ToolkitPro1501vc60S:XTPMenuBar.obj
 0001:000854a0       ??_GCXTPRibbonSystemPopupBarPage@@UAEPAXI@Z 004864a0 f i ToolkitPro1501vc60S:XTPMenuBar.obj
 0001:000854a0       ??_ECXTPRibbonBarMorePopupToolBar@@UAEPAXI@Z 004864a0 f i ToolkitPro1501vc60S:XTPMenuBar.obj
 0001:000854a0       ??_ECXTPRibbonSystemPopupBar@@UAEPAXI@Z 004864a0 f i ToolkitPro1501vc60S:XTPMenuBar.obj
 0001:000854a0       ??_GCXTPRibbonBarMorePopupToolBar@@UAEPAXI@Z 004864a0 f i ToolkitPro1501vc60S:XTPMenuBar.obj
 0001:000854c0       ?FreeMDIMenus@CXTPMenuBar@@QAEXXZ 004864c0 f   ToolkitPro1501vc60S:XTPMenuBar.obj
 0001:000854d0       ?IsMDIMenusChanged@CXTPMenuBar@@AAEHXZ 004864d0 f   ToolkitPro1501vc60S:XTPMenuBar.obj
 0001:00085570       ?SwitchActiveMenu@CXTPMenuBar@@QAEXXZ 00486570 f   ToolkitPro1501vc60S:XTPMenuBar.obj
 0001:000855b0       ?SwitchMDIMenu@CXTPMenuBar@@UAEXIPAVCMenu@@@Z 004865b0 f   ToolkitPro1501vc60S:XTPMenuBar.obj
 0001:00085850       ?SwitchMDIMenu@CXTPMenuBar@@IAEXPAUHMENU__@@@Z 00486850 f   ToolkitPro1501vc60S:XTPMenuBar.obj
 0001:000858b0       ?OnHookMessage@CXTPMenuBar@@MAEHPAUHWND__@@IAAIAAJ2@Z 004868b0 f   ToolkitPro1501vc60S:XTPMenuBar.obj
 0001:00085b00       ?SetupMenu@CXTPMenuBar@@IAEXXZ 00486b00 f   ToolkitPro1501vc60S:XTPMenuBar.obj
 0001:00085ba0       ?LoadMenuBar@CXTPMenuBar@@UAEHI@Z 00486ba0 f   ToolkitPro1501vc60S:XTPMenuBar.obj
 0001:00085cc0       ?GetMessageMap@CXTPMenuBar@@MBEPBUAFX_MSGMAP@@XZ 00486cc0 f   ToolkitPro1501vc60S:XTPMenuBar.obj
 0001:00085cd0       ?OnTimer@CXTPMenuBar@@IAEXI@Z 00486cd0 f   ToolkitPro1501vc60S:XTPMenuBar.obj
 0001:00085d00       ?Reset@CXTPMenuBar@@UAEXH@Z 00486d00 f   ToolkitPro1501vc60S:XTPMenuBar.obj
 0001:00085f40       ??1CXTPPushRoutingFrame@CXTPToolBar@@QAE@XZ 00486f40 f i ToolkitPro1501vc60S:XTPMenuBar.obj
 0001:00085f50       ?Copy@CXTPMenuBar@@MAEXPAVCXTPCommandBar@@H@Z 00486f50 f   ToolkitPro1501vc60S:XTPMenuBar.obj
 0001:00086060       ?ShouldSerializeBar@CXTPMenuBar@@MAEHXZ 00487060 f   ToolkitPro1501vc60S:XTPMenuBar.obj
 0001:000860a0       ??1?$CMap@IIPAVCXTPMenuBarMDIMenuInfo@@PAV1@@@UAE@XZ 004870a0 f i ToolkitPro1501vc60S:XTPMenuBar.obj
 0001:00086120       ??_G?$CMap@IIPAVCXTPMenuBarMDIMenuInfo@@PAV1@@@UAEPAXI@Z 00487120 f i ToolkitPro1501vc60S:XTPMenuBar.obj
 0001:00086120       ??_E?$CMap@IIPAVCXTPMenuBarMDIMenuInfo@@PAV1@@@UAEPAXI@Z 00487120 f i ToolkitPro1501vc60S:XTPMenuBar.obj
 0001:00086140       ?GetMenuStringA@CMenu@@QBEHIAAVCString@@I@Z 00487140 f i ToolkitPro1501vc60S:XTPMenuBar.obj
 0001:000861b0       ??_ECControlMDISysMenuPopup@CXTPMenuBar@@WBM@AEPAXI@Z 004871b0 f i ToolkitPro1501vc60S:XTPMenuBar.obj
 0001:000861c0       ??_ECXTPMenuBar@@WDM@AEPAXI@Z 004871c0 f i ToolkitPro1501vc60S:XTPMenuBar.obj
 0001:000861d0       ??_ECXTPMenuBar@@WEE@AEPAXI@Z 004871d0 f i ToolkitPro1501vc60S:XTPMenuBar.obj
 0001:000861e0       ?CreateObject@CXTPToolBar@@SGPAVCObject@@XZ 004871e0 f   ToolkitPro1501vc60S:XTPToolBar.obj
 0001:00086240       ?GetRuntimeClass@CXTPToolBar@@UBEPAUCRuntimeClass@@XZ 00487240 f   ToolkitPro1501vc60S:XTPToolBar.obj
 0001:00086270       ?Clone@CXTPToolBar@@UAEPAVCXTPCommandBar@@H@Z 00487270 f   ToolkitPro1501vc60S:XTPToolBar.obj
 0001:000862a0       ?Draw@CControlButtonHide@CXTPToolBar@@UAEXPAVCDC@@@Z 004872a0 f   ToolkitPro1501vc60S:XTPToolBar.obj
 0001:000862e0       ?IsHiddenExists@CControlButtonExpand@CXTPToolBar@@QAEHXZ 004872e0 f   ToolkitPro1501vc60S:XTPToolBar.obj
 0001:00086330       ?Draw@CControlButtonExpand@CXTPToolBar@@UAEXPAVCDC@@@Z 00487330 f   ToolkitPro1501vc60S:XTPToolBar.obj
 0001:00086390       ?OnSetPopup@CControlButtonExpand@CXTPToolBar@@UAEHH@Z 00487390 f   ToolkitPro1501vc60S:XTPToolBar.obj
 0001:000865c0       ??0CXTPToolBar@@QAE@XZ     004875c0 f   ToolkitPro1501vc60S:XTPToolBar.obj
 0001:000866b0       ??_ECXTPToolBar@@UAEPAXI@Z 004876b0 f i ToolkitPro1501vc60S:XTPToolBar.obj
 0001:000866b0       ??_GCXTPToolBar@@UAEPAXI@Z 004876b0 f i ToolkitPro1501vc60S:XTPToolBar.obj
 0001:000866d0       ?EnableDocking@CXTPToolBar@@QAEXK@Z 004876d0 f   ToolkitPro1501vc60S:XTPToolBar.obj
 0001:000866e0       ??1CXTPToolBar@@UAE@XZ     004876e0 f   ToolkitPro1501vc60S:XTPToolBar.obj
 0001:00086760       ?SetButtons@CXTPCommandBar@@QAEHPAIH@Z 00487760 f   ToolkitPro1501vc60S:XTPToolBar.obj
 0001:00086970       ??1XTP_COMMANDBARS_CREATECONTROL@@QAE@XZ 00487970 f i ToolkitPro1501vc60S:XTPToolBar.obj
 0001:00086980       ?LoadToolBar@CXTPToolBar@@UAEHIH@Z 00487980 f   ToolkitPro1501vc60S:XTPToolBar.obj
 0001:000869c0       ?LoadToolBar@CXTPCommandBar@@UAEHIH@Z 004879c0 f   ToolkitPro1501vc60S:XTPToolBar.obj
 0001:00086b10       ?SetPosition@CXTPToolBar@@UAEHW4XTPBarPosition@@@Z 00487b10 f   ToolkitPro1501vc60S:XTPToolBar.obj
 0001:00086b60       ?GetMessageMap@CXTPToolBar@@MBEPBUAFX_MSGMAP@@XZ 00487b60 f   ToolkitPro1501vc60S:XTPToolBar.obj
 0001:00086b70       ?OnSetCursor@CXTPToolBar@@IAEHPAVCWnd@@II@Z 00487b70 f   ToolkitPro1501vc60S:XTPToolBar.obj
 0001:00086cf0       ?OnToolHitTest@CXTPCommandBar@@UBEHVCPoint@@PAUtagTOOLINFOA@@@Z 00487cf0 f   ToolkitPro1501vc60S:XTPToolBar.obj
 0001:00087030       ?OnRButtonDown@CXTPToolBar@@IAEXIVCPoint@@@Z 00488030 f   ToolkitPro1501vc60S:XTPToolBar.obj
 0001:000870f0       ?Create@CXTPToolBar@@MAEHPAVCWnd@@H@Z 004880f0 f   ToolkitPro1501vc60S:XTPToolBar.obj
 0001:00087250       ?GetBorders@CXTPToolBar@@MAE?AVCRect@@XZ 00488250 f   ToolkitPro1501vc60S:XTPToolBar.obj
 0001:00087300       ?CalcDockingLayout@CXTPToolBar@@UAE?AVCSize@@HKH@Z 00488300 f   ToolkitPro1501vc60S:XTPToolBar.obj
 0001:00087650       ?SetRect@CControlButtonExpand@CXTPToolBar@@UAEXVCRect@@@Z 00488650 f i ToolkitPro1501vc60S:XTPToolBar.obj
 0001:00087690       ??_ECControlButtonExpand@CXTPToolBar@@UAEPAXI@Z 00488690 f i ToolkitPro1501vc60S:XTPToolBar.obj
 0001:00087690       ??_GCControlQuickAccessMorePopup@CXTPRibbonBar@@UAEPAXI@Z 00488690 f i ToolkitPro1501vc60S:XTPToolBar.obj
 0001:00087690       ??_ECControlCaptionPopup@CXTPDialogBar@@UAEPAXI@Z 00488690 f i ToolkitPro1501vc60S:XTPToolBar.obj
 0001:00087690       ??_GCXTPRibbonControlSystemButton@@UAEPAXI@Z 00488690 f i ToolkitPro1501vc60S:XTPToolBar.obj
 0001:00087690       ??_ECControlQuickAccessMorePopup@CXTPRibbonBar@@UAEPAXI@Z 00488690 f i ToolkitPro1501vc60S:XTPToolBar.obj
 0001:00087690       ??_ECXTPRibbonGroupControlPopup@@UAEPAXI@Z 00488690 f i ToolkitPro1501vc60S:XTPToolBar.obj
 0001:00087690       ??_ECXTPRibbonBarControlQuickAccessPopup@@UAEPAXI@Z 00488690 f i ToolkitPro1501vc60S:XTPToolBar.obj
 0001:00087690       ??_GCControlCaptionPopup@CXTPDialogBar@@UAEPAXI@Z 00488690 f i ToolkitPro1501vc60S:XTPToolBar.obj
 0001:00087690       ??_GCXTPRibbonGroupControlPopup@@UAEPAXI@Z 00488690 f i ToolkitPro1501vc60S:XTPToolBar.obj
 0001:00087690       ??_ECXTPRibbonControlSystemButton@@UAEPAXI@Z 00488690 f i ToolkitPro1501vc60S:XTPToolBar.obj
 0001:00087690       ??_GCControlButtonExpand@CXTPToolBar@@UAEPAXI@Z 00488690 f i ToolkitPro1501vc60S:XTPToolBar.obj
 0001:00087690       ??_GCXTPRibbonBarControlQuickAccessPopup@@UAEPAXI@Z 00488690 f i ToolkitPro1501vc60S:XTPToolBar.obj
 0001:000876b0       ?CalcDynamicLayout@CXTPToolBar@@UAE?AVCSize@@HK@Z 004886b0 f   ToolkitPro1501vc60S:XTPToolBar.obj
 0001:00087a60       ?OnExecute@CControlButtonHide@CXTPToolBar@@UAEXXZ 00488a60 f i ToolkitPro1501vc60S:XTPToolBar.obj
 0001:00087a60       ?OnExecute@CControlButtonHide@CXTPDialogBar@@UAEXXZ 00488a60 f i ToolkitPro1501vc60S:XTPToolBar.obj
 0001:00087a80       ?IsCustomizeMovable@CXTPRibbonBarControlCaptionButton@@MBEHXZ 00488a80 f i ToolkitPro1501vc60S:XTPToolBar.obj
 0001:00087a80       ?GetPaneHwnd@CXTPDockingPaneBase@@UBEPAUHWND__@@XZ 00488a80 f i ToolkitPro1501vc60S:XTPToolBar.obj
 0001:00087a80       ?IsPrinting@CXTPMarkupDrawingContext@@UBEHXZ 00488a80 f i ToolkitPro1501vc60S:XTPToolBar.obj
 0001:00087a80       ?IsDialogBar@CXTPCommandBar@@UBEHXZ 00488a80 f i ToolkitPro1501vc60S:XTPToolBar.obj
 0001:00087a80       ?IsCustomizeMovable@CControlButtonHide@CXTPToolBar@@UBEHXZ 00488a80 f i ToolkitPro1501vc60S:XTPToolBar.obj
 0001:00087a80       ?IsVisible@CXTPCommandBar@@UBEHXZ 00488a80 f i ToolkitPro1501vc60S:XTPToolBar.obj
 0001:00087a80       ?GetCommandBar@CXTPControl@@UBEPAVCXTPCommandBar@@XZ 00488a80 f i ToolkitPro1501vc60S:XTPToolBar.obj
 0001:00087a80       ?HeaderHasFocus@CXTPTabManager@@MBEHXZ 00488a80 f i ToolkitPro1501vc60S:XTPToolBar.obj
 0001:00087a80       ?IsResizable@CXTPCommandBar@@UBEHXZ 00488a80 f i ToolkitPro1501vc60S:XTPToolBar.obj
 0001:00087a80       ?GetPopuped@CXTPControl@@UBEHXZ 00488a80 f i ToolkitPro1501vc60S:XTPToolBar.obj
 0001:00087a80       ?IsPopupBar@CXTPCommandBar@@UBEHXZ 00488a80 f i ToolkitPro1501vc60S:XTPToolBar.obj
 0001:00087a80       ?IsFocused@CXTPControl@@UBEHXZ 00488a80 f i ToolkitPro1501vc60S:XTPToolBar.obj
 0001:00087a80       ?IsEvent@CXTPMarkupDependencyProperty@@UBEHXZ 00488a80 f i ToolkitPro1501vc60S:XTPToolBar.obj
 0001:00087a80       ?IsFocusable@CXTPControl@@MBEHXZ 00488a80 f i ToolkitPro1501vc60S:XTPToolBar.obj
 0001:00087a80       ?IsCustomizeMovable@CControlButtonExpand@CXTPToolBar@@UBEHXZ 00488a80 f i ToolkitPro1501vc60S:XTPToolBar.obj
 0001:00087a80       ?IsAllowBlobValues@CXTPPropExchange@@UBEHXZ 00488a80 f i ToolkitPro1501vc60S:XTPToolBar.obj
 0001:00087a80       ?BaseTheme@CXTPDefaultTheme@@MAE?AW4XTPPaintTheme@@XZ 00488a80 f i ToolkitPro1501vc60S:XTPToolBar.obj
 0001:00087a80       ?GetCustomizeMinWidth@CXTPControl@@MBEHXZ 00488a80 f i ToolkitPro1501vc60S:XTPToolBar.obj
 0001:00087a80       ?IsCustomizable@CXTPControlComboBoxList@@MBEHXZ 00488a80 f i ToolkitPro1501vc60S:XTPToolBar.obj
 0001:00087a80       ?IsRibbonBar@CXTPCommandBar@@UBEHXZ 00488a80 f i ToolkitPro1501vc60S:XTPToolBar.obj
 0001:00087a80       ?IsCaptionVisible@CControlButtonExpand@CXTPToolBar@@UBEHXZ 00488a80 f i ToolkitPro1501vc60S:XTPToolBar.obj
 0001:00087a80       ?GetSelected@CXTPControlLabel@@UBEHXZ 00488a80 f i ToolkitPro1501vc60S:XTPToolBar.obj
 0001:00087a80       ?GetParentCommandBar@CXTPCommandBar@@UBEPAV1@XZ 00488a80 f i ToolkitPro1501vc60S:XTPToolBar.obj
 0001:00087a80       ?IsAllowDefaultValues@CXTPPropExchangeArchive@@UBEHXZ 00488a80 f i ToolkitPro1501vc60S:XTPToolBar.obj
 0001:00087a80       ?GetCustomizeMinHeight@CXTPControl@@MBEHXZ 00488a80 f i ToolkitPro1501vc60S:XTPToolBar.obj
 0001:00087a80       ?IsCustomizeMovable@CControlGroupsScroll@CXTPRibbonScrollableBar@@UBEHXZ 00488a80 f i ToolkitPro1501vc60S:XTPToolBar.obj
 0001:00087a80       ?IsMouseLocked@CXTPTabManager@@MBEHXZ 00488a80 f i ToolkitPro1501vc60S:XTPToolBar.obj
 0001:00087a80       ?IsCustomizeMovable@CXTPRibbonBarControlQuickAccessPopup@@UBEHXZ 00488a80 f i ToolkitPro1501vc60S:XTPToolBar.obj
 0001:00087a80       ?IsTransparent@CXTPControl@@UBEHXZ 00488a80 f i ToolkitPro1501vc60S:XTPToolBar.obj
 0001:00087a90       ?OnRecalcLayout@CXTPToolBar@@UAEXXZ 00488a90 f   ToolkitPro1501vc60S:XTPToolBar.obj
 0001:00087bb0       ?OnNcCreate@CXTPToolBar@@IAEHPAUtagCREATESTRUCTA@@@Z 00488bb0 f   ToolkitPro1501vc60S:XTPToolBar.obj
 0001:00087bb0       ?OnNcCreate@CXTPPopupBar@@IAEHPAUtagCREATESTRUCTA@@@Z 00488bb0 f   ToolkitPro1501vc60S:XTPToolBar.obj
 0001:00087c50       ?OnFloatStatus@CXTPToolBar@@IAEJIJ@Z 00488c50 f   ToolkitPro1501vc60S:XTPToolBar.obj
 0001:00087d60       ?IsFloatingFrameFocused@CXTPToolBar@@ABEHXZ 00488d60 f   ToolkitPro1501vc60S:XTPToolBar.obj
 0001:00087dc0       ?OnMouseActivate@CXTPToolBar@@IAEHPAVCWnd@@II@Z 00488dc0 f   ToolkitPro1501vc60S:XTPToolBar.obj
 0001:00087e00       ?OnLButtonDown@CXTPToolBar@@IAEXIVCPoint@@@Z 00488e00 f   ToolkitPro1501vc60S:XTPToolBar.obj
 0001:00087ea0       ?OnLButtonDblClk@CXTPToolBar@@IAEXIVCPoint@@@Z 00488ea0 f   ToolkitPro1501vc60S:XTPToolBar.obj
 0001:00087ef0       ?OnNcHitTest@CXTPToolBar@@IAEJVCPoint@@@Z 00488ef0 f   ToolkitPro1501vc60S:XTPToolBar.obj
 0001:00087fc0       ?OnNcLButtonDown@CXTPToolBar@@IAEXIVCPoint@@@Z 00488fc0 f   ToolkitPro1501vc60S:XTPToolBar.obj
 0001:00088040       ?IsWindowVisible@CXTPToolBar@@QBEHXZ 00489040 f   ToolkitPro1501vc60S:XTPToolBar.obj
 0001:000880a0       ?SetVisible@CXTPToolBar@@UAEXH@Z 004890a0 f   ToolkitPro1501vc60S:XTPToolBar.obj
 0001:000881e0       ?OnSizeParent@CXTPToolBar@@IAEJIJ@Z 004891e0 f   ToolkitPro1501vc60S:XTPToolBar.obj
 0001:000882e0       ?GetAutoIconSize@CXTPCommandBar@@IBE?AVCSize@@H@Z 004892e0 f   ToolkitPro1501vc60S:XTPToolBar.obj
 0001:00088310       ?GetIconSize@CXTPCommandBar@@UBE?AVCSize@@XZ 00489310 f   ToolkitPro1501vc60S:XTPToolBar.obj
 0001:00088430       ?GetLargeIconSize@CXTPCommandBar@@QBE?AVCSize@@H@Z 00489430 f   ToolkitPro1501vc60S:XTPToolBar.obj
 0001:00088550       ?GetButtonSize@CXTPCommandBar@@UBE?AVCSize@@XZ 00489550 f   ToolkitPro1501vc60S:XTPToolBar.obj
 0001:000885b0       ?IsTextBelowIcons@CXTPCommandBar@@QBEHXZ 004895b0 f   ToolkitPro1501vc60S:XTPToolBar.obj
 0001:000885d0       ?_FindNearest@CXTPToolBar@@ABEHPAVCXTPControls@@PAVCXTPControl@@HH@Z 004895d0 f   ToolkitPro1501vc60S:XTPToolBar.obj
 0001:00088630       ?Reset@CXTPToolBar@@UAEXH@Z 00489630 f   ToolkitPro1501vc60S:XTPToolBar.obj
 0001:00088840       ?BuildCustomizePopup@CXTPToolBar@@AAEXPAVCXTPCommandBar@@@Z 00489840 f   ToolkitPro1501vc60S:XTPToolBar.obj
 0001:00088ce0       ?OnExecute@CControlButtonCustomize@CXTPToolBar@@UAEXXZ 00489ce0 f i ToolkitPro1501vc60S:XTPToolBar.obj
 0001:00088da0       ??_ECXTPControlCheckBox@@UAEPAXI@Z 00489da0 f i ToolkitPro1501vc60S:XTPToolBar.obj
 0001:00088da0       ??_ECXTPControlWorkspaceActions@@UAEPAXI@Z 00489da0 f i ToolkitPro1501vc60S:XTPToolBar.obj
 0001:00088da0       ??_ECXTPRibbonBarControlCaptionButton@@UAEPAXI@Z 00489da0 f i ToolkitPro1501vc60S:XTPToolBar.obj
 0001:00088da0       ??_ECControlButtonCustomize@CXTPToolBar@@UAEPAXI@Z 00489da0 f i ToolkitPro1501vc60S:XTPToolBar.obj
 0001:00088da0       ??_GCXTPControlToolbars@@UAEPAXI@Z 00489da0 f i ToolkitPro1501vc60S:XTPToolBar.obj
 0001:00088da0       ??_GCXTPControlToolbar@CXTPControlToolbars@@UAEPAXI@Z 00489da0 f i ToolkitPro1501vc60S:XTPToolBar.obj
 0001:00088da0       ??_ECXTPControlWindowList@@UAEPAXI@Z 00489da0 f i ToolkitPro1501vc60S:XTPToolBar.obj
 0001:00088da0       ??_ECXTPRibbonControlSystemPopupBarListItem@@UAEPAXI@Z 00489da0 f i ToolkitPro1501vc60S:XTPToolBar.obj
 0001:00088da0       ??_GCControlCustomization@CXTPStatusBar@@UAEPAXI@Z 00489da0 f i ToolkitPro1501vc60S:XTPToolBar.obj
 0001:00088da0       ??_ECControlGroupsScroll@CXTPRibbonScrollableBar@@UAEPAXI@Z 00489da0 f i ToolkitPro1501vc60S:XTPToolBar.obj
 0001:00088da0       ??_ECControlCustomization@CXTPStatusBar@@UAEPAXI@Z 00489da0 f i ToolkitPro1501vc60S:XTPToolBar.obj
 0001:00088da0       ??_ECXTPControlToolbars@@UAEPAXI@Z 00489da0 f i ToolkitPro1501vc60S:XTPToolBar.obj
 0001:00088da0       ??_GCXTPRibbonControlSystemPopupBarListItem@@UAEPAXI@Z 00489da0 f i ToolkitPro1501vc60S:XTPToolBar.obj
 0001:00088da0       ??_ECControlFileItem@CXTPRibbonControlSystemRecentFileList@@UAEPAXI@Z 00489da0 f i ToolkitPro1501vc60S:XTPToolBar.obj
 0001:00088da0       ??_ECControlButtonHide@CXTPToolBar@@UAEPAXI@Z 00489da0 f i ToolkitPro1501vc60S:XTPToolBar.obj
 0001:00088da0       ??_ECXTPControlRecentFileList@@UAEPAXI@Z 00489da0 f i ToolkitPro1501vc60S:XTPToolBar.obj
 0001:00088da0       ??_GCControlFileItem@CXTPRibbonControlSystemRecentFileList@@UAEPAXI@Z 00489da0 f i ToolkitPro1501vc60S:XTPToolBar.obj
 0001:00088da0       ??_ECXTPControlRadioButton@@UAEPAXI@Z 00489da0 f i ToolkitPro1501vc60S:XTPToolBar.obj
 0001:00088da0       ??_GCXTPControlRadioButton@@UAEPAXI@Z 00489da0 f i ToolkitPro1501vc60S:XTPToolBar.obj
 0001:00088da0       ??_ECCustomizeButton@CXTPCustomizeSheet@@UAEPAXI@Z 00489da0 f i ToolkitPro1501vc60S:XTPToolBar.obj
 0001:00088da0       ??_ECXTPRibbonControlSystemPopupBarButton@@UAEPAXI@Z 00489da0 f i ToolkitPro1501vc60S:XTPToolBar.obj
 0001:00088da0       ??_GCXTPRibbonControlSystemPopupBarButton@@UAEPAXI@Z 00489da0 f i ToolkitPro1501vc60S:XTPToolBar.obj
 0001:00088da0       ??_GCControlButtonHide@CXTPDialogBar@@UAEPAXI@Z 00489da0 f i ToolkitPro1501vc60S:XTPToolBar.obj
 0001:00088da0       ??_GCXTPControlWindowList@@UAEPAXI@Z 00489da0 f i ToolkitPro1501vc60S:XTPToolBar.obj
 0001:00088da0       ??_GCXTPRibbonGroupOption@@UAEPAXI@Z 00489da0 f i ToolkitPro1501vc60S:XTPToolBar.obj
 0001:00088da0       ??_GCXTPControlWorkspaceActions@@UAEPAXI@Z 00489da0 f i ToolkitPro1501vc60S:XTPToolBar.obj
 0001:00088da0       ??_GCXTPRibbonBarControlCaptionButton@@UAEPAXI@Z 00489da0 f i ToolkitPro1501vc60S:XTPToolBar.obj
 0001:00088da0       ??_GCControlGroupsScroll@CXTPRibbonScrollableBar@@UAEPAXI@Z 00489da0 f i ToolkitPro1501vc60S:XTPToolBar.obj
 0001:00088da0       ??_GCControlButtonHide@CXTPToolBar@@UAEPAXI@Z 00489da0 f i ToolkitPro1501vc60S:XTPToolBar.obj
 0001:00088da0       ??_ECXTPControlToolbar@CXTPControlToolbars@@UAEPAXI@Z 00489da0 f i ToolkitPro1501vc60S:XTPToolBar.obj
 0001:00088da0       ??_GCControlMDIButton@CXTPMenuBar@@UAEPAXI@Z 00489da0 f i ToolkitPro1501vc60S:XTPToolBar.obj
 0001:00088da0       ??_GCXTPControlOleItems@@UAEPAXI@Z 00489da0 f i ToolkitPro1501vc60S:XTPToolBar.obj
 0001:00088da0       ??_GCXTPControlRecentFileList@@UAEPAXI@Z 00489da0 f i ToolkitPro1501vc60S:XTPToolBar.obj
 0001:00088da0       ??_GCCustomizeButton@CXTPCustomizeSheet@@UAEPAXI@Z 00489da0 f i ToolkitPro1501vc60S:XTPToolBar.obj
 0001:00088da0       ??_ECXTPControlOleItems@@UAEPAXI@Z 00489da0 f i ToolkitPro1501vc60S:XTPToolBar.obj
 0001:00088da0       ??_ECControlExpandButton@CXTPPopupBar@@UAEPAXI@Z 00489da0 f i ToolkitPro1501vc60S:XTPToolBar.obj
 0001:00088da0       ??_GCControlQuickAccessCommand@CXTPRibbonBar@@UAEPAXI@Z 00489da0 f i ToolkitPro1501vc60S:XTPToolBar.obj
 0001:00088da0       ??_GCControlExpandButton@CXTPPopupBar@@UAEPAXI@Z 00489da0 f i ToolkitPro1501vc60S:XTPToolBar.obj
 0001:00088da0       ??_GCControlButtonCustomize@CXTPToolBar@@UAEPAXI@Z 00489da0 f i ToolkitPro1501vc60S:XTPToolBar.obj
 0001:00088da0       ??_ECControlMDIButton@CXTPMenuBar@@UAEPAXI@Z 00489da0 f i ToolkitPro1501vc60S:XTPToolBar.obj
 0001:00088da0       ??_ECControlQuickAccessCommand@CXTPRibbonBar@@UAEPAXI@Z 00489da0 f i ToolkitPro1501vc60S:XTPToolBar.obj
 0001:00088da0       ??_ECXTPRibbonGroupOption@@UAEPAXI@Z 00489da0 f i ToolkitPro1501vc60S:XTPToolBar.obj
 0001:00088da0       ??_GCXTPControlCheckBox@@UAEPAXI@Z 00489da0 f i ToolkitPro1501vc60S:XTPToolBar.obj
 0001:00088da0       ??_ECControlButtonHide@CXTPDialogBar@@UAEPAXI@Z 00489da0 f i ToolkitPro1501vc60S:XTPToolBar.obj
 0001:00088dc0       ?OnSetPreviewMode@CXTPToolBar@@QAEXH@Z 00489dc0 f   ToolkitPro1501vc60S:XTPToolBar.obj
 0001:00088e50       ?Copy@CXTPToolBar@@MAEXPAVCXTPCommandBar@@H@Z 00489e50 f   ToolkitPro1501vc60S:XTPToolBar.obj
 0001:00088e90       ?OnHookKeyDown@CXTPToolBar@@UAEHIJ@Z 00489e90 f   ToolkitPro1501vc60S:XTPToolBar.obj
 0001:00088f40       ?OnSetFocus@CXTPToolBar@@IAEXPAVCWnd@@@Z 00489f40 f   ToolkitPro1501vc60S:XTPToolBar.obj
 0001:00088f80       ?ShouldSerializeBar@CXTPToolBar@@MAEHXZ 00489f80 f   ToolkitPro1501vc60S:XTPToolBar.obj
 0001:00088fb0       ??_ECXTPToolBar@@WDM@AEPAXI@Z 00489fb0 f i ToolkitPro1501vc60S:XTPToolBar.obj
 0001:00088fc0       ??_ECXTPToolBar@@WEE@AEPAXI@Z 00489fc0 f i ToolkitPro1501vc60S:XTPToolBar.obj
 0001:00088fd0       ?CreateObject@CXTPControls@@SGPAVCObject@@XZ 00489fd0 f   ToolkitPro1501vc60S:XTPControls.obj
 0001:00089030       ?GetRuntimeClass@CXTPControls@@UBEPAUCRuntimeClass@@XZ 0048a030 f   ToolkitPro1501vc60S:XTPControls.obj
 0001:00089040       ?CreateObject@CXTPOriginalControls@@SGPAVCObject@@XZ 0048a040 f   ToolkitPro1501vc60S:XTPControls.obj
 0001:000890a0       ?GetRuntimeClass@CXTPOriginalControls@@UBEPAUCRuntimeClass@@XZ 0048a0a0 f   ToolkitPro1501vc60S:XTPControls.obj
 0001:000890b0       ??0CXTPControls@@QAE@XZ    0048a0b0 f   ToolkitPro1501vc60S:XTPControls.obj
 0001:00089120       ??_ECXTPControls@@UAEPAXI@Z 0048a120 f i ToolkitPro1501vc60S:XTPControls.obj
 0001:00089120       ??_GCXTPControls@@UAEPAXI@Z 0048a120 f i ToolkitPro1501vc60S:XTPControls.obj
 0001:00089140       ??1CXTPControls@@UAE@XZ    0048a140 f   ToolkitPro1501vc60S:XTPControls.obj
 0001:000891d0       ??0CXTPOriginalControls@@QAE@XZ 0048a1d0 f   ToolkitPro1501vc60S:XTPControls.obj
 0001:000891f0       ??_GCXTPRibbonControls@@UAEPAXI@Z 0048a1f0 f i ToolkitPro1501vc60S:XTPControls.obj
 0001:000891f0       ??_ECXTPRibbonControls@@UAEPAXI@Z 0048a1f0 f i ToolkitPro1501vc60S:XTPControls.obj
 0001:000891f0       ??_GCXTPOriginalControls@@UAEPAXI@Z 0048a1f0 f i ToolkitPro1501vc60S:XTPControls.obj
 0001:000891f0       ??_ECXTPOriginalControls@@UAEPAXI@Z 0048a1f0 f i ToolkitPro1501vc60S:XTPControls.obj
 0001:00089210       ?GetCommandBars@CXTPControls@@QBEPAVCXTPCommandBars@@XZ 0048a210 f   ToolkitPro1501vc60S:XTPControls.obj
 0001:00089230       ?SetHandle@CXTPTabManagerItem@@QAEXPAUHWND__@@@Z 0048a230 f   ToolkitPro1501vc60S:XTPControls.obj
 0001:00089230       ?SetCommandBars@CXTPControls@@QAEXPAVCXTPCommandBars@@@Z 0048a230 f   ToolkitPro1501vc60S:XTPControls.obj
 0001:00089230       ?SetPropertySheet@CXTPPropertyPageNavigator@@MAEXPAVCXTPPropertySheet@@@Z 0048a230 f   ToolkitPro1501vc60S:XTPControls.obj
 0001:00089240       ?RefreshIndexes@CXTPControls@@MAEXXZ 0048a240 f   ToolkitPro1501vc60S:XTPControls.obj
 0001:00089290       ?SetParent@CXTPControls@@QAEXPAVCXTPCommandBar@@@Z 0048a290 f   ToolkitPro1501vc60S:XTPControls.obj
 0001:000892b0       ?AddMenuItem@CXTPControls@@QAEPAVCXTPControl@@PAVCMenu@@H@Z 0048a2b0 f   ToolkitPro1501vc60S:XTPControls.obj
 0001:00089a70       ?OnControlAdded@CXTPControls@@MAEXPAVCXTPControl@@@Z 0048aa70 f   ToolkitPro1501vc60S:XTPControls.obj
 0001:00089a80       ?OnControlRemoved@CXTPControls@@MAEXPAVCXTPControl@@@Z 0048aa80 f   ToolkitPro1501vc60S:XTPControls.obj
 0001:00089ac0       ?Add@CXTPControls@@QAEPAVCXTPControl@@W4XTPControlType@@HPBDHH@Z 0048aac0 f   ToolkitPro1501vc60S:XTPControls.obj
 0001:00089e00       ?Add@CXTPControls@@QAEPAVCXTPControl@@PAV2@HPBDHH@Z 0048ae00 f   ToolkitPro1501vc60S:XTPControls.obj
 0001:00089ef0       ?InsertAt@CXTPControls@@QAEPAVCXTPControl@@PAV2@H@Z 0048aef0 f   ToolkitPro1501vc60S:XTPControls.obj
 0001:0008a0c0       ?Add@CXTPControls@@QAEPAVCXTPControl@@PAV2@@Z 0048b0c0 f   ToolkitPro1501vc60S:XTPControls.obj
 0001:0008a0d0       ?AddClone@CXTPControls@@QAEPAVCXTPControl@@PAV2@HH@Z 0048b0d0 f   ToolkitPro1501vc60S:XTPControls.obj
 0001:0008a120       ?RemoveAll@CXTPControls@@QAEXXZ 0048b120 f   ToolkitPro1501vc60S:XTPControls.obj
 0001:0008a1a0       ?FindControl@CXTPControls@@QBEPAVCXTPControl@@H@Z 0048b1a0 f   ToolkitPro1501vc60S:XTPControls.obj
 0001:0008a1c0       ?FindControl@CXTPControls@@QBEPAVCXTPControl@@W4XTPControlType@@HHH@Z 0048b1c0 f   ToolkitPro1501vc60S:XTPControls.obj
 0001:0008a270       ?Remove@CXTPControls@@UAEXPAVCXTPControl@@@Z 0048b270 f   ToolkitPro1501vc60S:XTPControls.obj
 0001:0008a310       ?Remove@CXTPControls@@QAEXH@Z 0048b310 f   ToolkitPro1501vc60S:XTPControls.obj
 0001:0008a340       ?SetControlType@CXTPControls@@QAEPAVCXTPControl@@HW4XTPControlType@@@Z 0048b340 f   ToolkitPro1501vc60S:XTPControls.obj
 0001:0008a380       ?SetControlType@CXTPControls@@QAEPAVCXTPControl@@PAV2@W4XTPControlType@@@Z 0048b380 f   ToolkitPro1501vc60S:XTPControls.obj
 0001:0008a400       ?GetNext@CXTPControls@@QBEJJHHHH@Z 0048b400 f   ToolkitPro1501vc60S:XTPControls.obj
 0001:0008a510       ?HitTest@CXTPControls@@QBEPAVCXTPControl@@VCPoint@@@Z 0048b510 f   ToolkitPro1501vc60S:XTPControls.obj
 0001:0008a580       ?_CalcSize@CXTPControls@@IAE?AVCSize@@PAUXTPBUTTONINFO@1@H@Z 0048b580 f   ToolkitPro1501vc60S:XTPControls.obj
 0001:0008a730       ?_WrapToolBar@CXTPControls@@IAEHPAUXTPBUTTONINFO@1@HAAK@Z 0048b730 f   ToolkitPro1501vc60S:XTPControls.obj
 0001:0008a940       ?_SizePopupToolBar@CXTPControls@@IAEXPAUXTPBUTTONINFO@1@K@Z 0048b940 f   ToolkitPro1501vc60S:XTPControls.obj
 0001:0008aa00       ?_SizeFloatableBar@CXTPControls@@IAEXPAUXTPBUTTONINFO@1@HK@Z 0048ba00 f   ToolkitPro1501vc60S:XTPControls.obj
 0001:0008aba0       ?_CenterControlsInRow@CXTPControls@@IAEXPAUXTPBUTTONINFO@1@HHHHVCSize@@VCRect@@@Z 0048bba0 f   ToolkitPro1501vc60S:XTPControls.obj
 0001:0008aca0       ?_AdjustBorders@CXTPControls@@IAEXPAUXTPBUTTONINFO@1@AAVCSize@@KVCRect@@@Z 0048bca0 f   ToolkitPro1501vc60S:XTPControls.obj
 0001:0008ae30       ?_MoveRightAlligned@CXTPControls@@IAEXPAUXTPBUTTONINFO@1@VCSize@@VCRect@@K@Z 0048be30 f   ToolkitPro1501vc60S:XTPControls.obj
 0001:0008b180       ?GetVisibleCount@CXTPControls@@QBEHH@Z 0048c180 f   ToolkitPro1501vc60S:XTPControls.obj
 0001:0008b1d0       ?GetVisibleAt@CXTPControls@@QBEPAVCXTPControl@@HH@Z 0048c1d0 f   ToolkitPro1501vc60S:XTPControls.obj
 0001:0008b240       ?_ReduceSmartLayoutToolBar@CXTPControls@@IAE?AVCSize@@PAVCDC@@PAUXTPBUTTONINFO@1@HAAK@Z 0048c240 f   ToolkitPro1501vc60S:XTPControls.obj
 0001:0008b6e0       ?_CalcSmartLayoutToolBar@CXTPControls@@IAE?AVCSize@@PAVCDC@@PAUXTPBUTTONINFO@1@AAK@Z 0048c6e0 f   ToolkitPro1501vc60S:XTPControls.obj
 0001:0008b920       ?_WrapSmartLayoutToolBar@CXTPControls@@IAE?AVCSize@@PAVCDC@@PAUXTPBUTTONINFO@1@HAAK@Z 0048c920 f   ToolkitPro1501vc60S:XTPControls.obj
 0001:0008bad0       ?CalcDynamicSize@CXTPControls@@QAE?AVCSize@@PAVCDC@@HKABVCRect@@H@Z 0048cad0 f   ToolkitPro1501vc60S:XTPControls.obj
 0001:0008bfb0       ?_MakeSameWidth@CXTPControls@@IAEXHHH@Z 0048cfb0 f   ToolkitPro1501vc60S:XTPControls.obj
 0001:0008c060       ?CalcPopupSize@CXTPControls@@QAE?AVCSize@@PAVCDC@@HHABVCRect@@@Z 0048d060 f   ToolkitPro1501vc60S:XTPControls.obj
 0001:0008c440       ?Copy@CXTPControls@@UAEXPAV1@H@Z 0048d440 f   ToolkitPro1501vc60S:XTPControls.obj
 0001:0008c4d0       ?Duplicate@CXTPControls@@QAEPAV1@H@Z 0048d4d0 f   ToolkitPro1501vc60S:XTPControls.obj
 0001:0008c550       ?ClearOriginalControls@CXTPControls@@QAEXXZ 0048d550 f   ToolkitPro1501vc60S:XTPControls.obj
 0001:0008c570       ?CreateOriginalControls@CXTPControls@@QAEXXZ 0048d570 f   ToolkitPro1501vc60S:XTPControls.obj
 0001:0008c630       ?SetOriginalControls@CXTPControls@@QAEXPAVCXTPOriginalControls@@@Z 0048d630 f   ToolkitPro1501vc60S:XTPControls.obj
 0001:0008c650       ?Compare@CXTPControls@@QAEHPBV1@@Z 0048d650 f   ToolkitPro1501vc60S:XTPControls.obj
 0001:0008c710       ?IsChanged@CXTPControls@@QBEHXZ 0048d710 f   ToolkitPro1501vc60S:XTPControls.obj
 0001:0008c730       ?CompareByCaption@CXTPControls@@KAHPAPBVCXTPControl@@0@Z 0048d730 f   ToolkitPro1501vc60S:XTPControls.obj
 0001:0008c7e0       ?Sort@CXTPControls@@QAEXXZ 0048d7e0 f   ToolkitPro1501vc60S:XTPControls.obj
 0001:0008c810       ??1?$CArray@PAVCXTPControl@@PAV1@@@UAE@XZ 0048d810 f i ToolkitPro1501vc60S:XTPControls.obj
 0001:0008c860       ??_G?$CArray@PAVCXTPControl@@PAV1@@@UAEPAXI@Z 0048d860 f i ToolkitPro1501vc60S:XTPControls.obj
 0001:0008c860       ??_E?$CArray@PAVCXTPControl@@PAV1@@@UAEPAXI@Z 0048d860 f i ToolkitPro1501vc60S:XTPControls.obj
 0001:0008c880       ?GetRuntimeClass@CXTPControlAction@@UBEPAUCRuntimeClass@@XZ 0048d880 f   ToolkitPro1501vc60S:XTPControl.obj
 0001:0008c890       ??0CXTPControlAction@@IAE@PAVCXTPControlActions@@@Z 0048d890 f   ToolkitPro1501vc60S:XTPControl.obj
 0001:0008c930       ??_GCXTPControlAction@@MAEPAXI@Z 0048d930 f i ToolkitPro1501vc60S:XTPControl.obj
 0001:0008c930       ??_ECXTPControlAction@@MAEPAXI@Z 0048d930 f i ToolkitPro1501vc60S:XTPControl.obj
 0001:0008c950       ??1CXTPControlAction@@MAE@XZ 0048d950 f   ToolkitPro1501vc60S:XTPControl.obj
 0001:0008ca40       ?AddControl@CXTPControlAction@@IAEXPAVCXTPControl@@@Z 0048da40 f   ToolkitPro1501vc60S:XTPControl.obj
 0001:0008cbf0       ?RemoveControl@CXTPControlAction@@IAEXPAVCXTPControl@@@Z 0048dbf0 f   ToolkitPro1501vc60S:XTPControl.obj
 0001:0008cc60       ?OnChanged@CXTPControlAction@@IAEXH@Z 0048dc60 f   ToolkitPro1501vc60S:XTPControl.obj
 0001:0008cc90       ?OnChanging@CXTPControlAction@@IAEXH@Z 0048dc90 f   ToolkitPro1501vc60S:XTPControl.obj
 0001:0008ccc0       ?RepositionControls@CXTPControlAction@@QAEXXZ 0048dcc0 f   ToolkitPro1501vc60S:XTPControl.obj
 0001:0008ccf0       ?OnRemoved@CXTPControlAction@@IAEXXZ 0048dcf0 f   ToolkitPro1501vc60S:XTPControl.obj
 0001:0008cd20       ?SetCaption@CXTPControlAction@@QAEXPBD@Z 0048dd20 f   ToolkitPro1501vc60S:XTPControl.obj
 0001:0008cdd0       ?SetPrompt@CXTPControlAction@@QAEXPBD@Z 0048ddd0 f   ToolkitPro1501vc60S:XTPControl.obj
 0001:0008ce60       ?GetEnabled@CXTPControlAction@@QBEHXZ 0048de60 f   ToolkitPro1501vc60S:XTPControl.obj
 0001:0008ce80       ?GetCommandBars@CXTPControlAction@@QBEPAVCXTPCommandBars@@XZ 0048de80 f   ToolkitPro1501vc60S:XTPControl.obj
 0001:0008ce90       ??0CXTPControlActions@@IAE@PAVCXTPCommandBars@@@Z 0048de90 f   ToolkitPro1501vc60S:XTPControl.obj
 0001:0008cec0       ??_ECXTPControlActions@@MAEPAXI@Z 0048dec0 f i ToolkitPro1501vc60S:XTPControl.obj
 0001:0008cec0       ??_GCXTPControlActions@@MAEPAXI@Z 0048dec0 f i ToolkitPro1501vc60S:XTPControl.obj
 0001:0008cee0       ??1CXTPControlActions@@MAE@XZ 0048dee0 f   ToolkitPro1501vc60S:XTPControl.obj
 0001:0008cf60       ?GetAt@CXTPControlActions@@QBEPAVCXTPControlAction@@H@Z 0048df60 f   ToolkitPro1501vc60S:XTPControl.obj
 0001:0008cf70       ?GetCount@CXTPControlActions@@QBEHXZ 0048df70 f   ToolkitPro1501vc60S:XTPControl.obj
 0001:0008cf70       ?GetWidth@CXTPImageManagerIcon@@QBEHXZ 0048df70 f   ToolkitPro1501vc60S:XTPControl.obj
 0001:0008cf70       ?GetDrawStyle@CXTPHeaderCtrlTheme@@UBEKXZ 0048df70 f   ToolkitPro1501vc60S:XTPControl.obj
 0001:0008cf70       ?GetStyle@CXTPStatusBarPane@@QBEIXZ 0048df70 f   ToolkitPro1501vc60S:XTPControl.obj
 0001:0008cf80       ?FindAction@CXTPControlActions@@QBEPAVCXTPControlAction@@H@Z 0048df80 f   ToolkitPro1501vc60S:XTPControl.obj
 0001:0008d010       ?RemoveAll@CXTPControlActions@@QAEXXZ 0048e010 f   ToolkitPro1501vc60S:XTPControl.obj
 0001:0008d070       ?Insert@CXTPControlActions@@IAEXPAVCXTPControlAction@@@Z 0048e070 f   ToolkitPro1501vc60S:XTPControl.obj
 0001:0008d240       ?SetActionId@CXTPControlActions@@IAEXPAVCXTPControlAction@@H@Z 0048e240 f   ToolkitPro1501vc60S:XTPControl.obj
 0001:0008d250       ?Add@CXTPControlActions@@QAEPAVCXTPControlAction@@HPAV2@@Z 0048e250 f   ToolkitPro1501vc60S:XTPControl.obj
 0001:0008d2e0       ?Add@CXTPControlActions@@QAEPAVCXTPControlAction@@H@Z 0048e2e0 f   ToolkitPro1501vc60S:XTPControl.obj
 0001:0008d360       ??0CXTPControl@@IAE@XZ     0048e360 f   ToolkitPro1501vc60S:XTPControl.obj
 0001:0008d540       ??_GCXTPControl@@MAEPAXI@Z 0048e540 f i ToolkitPro1501vc60S:XTPControl.obj
 0001:0008d540       ??_ECXTPControl@@MAEPAXI@Z 0048e540 f i ToolkitPro1501vc60S:XTPControl.obj
 0001:0008d560       ??1CDocTemplateMap@CXTPControl@@UAE@XZ 0048e560 f i ToolkitPro1501vc60S:XTPControl.obj
 0001:0008d5e0       ??_GCDocTemplateMap@CXTPControl@@UAEPAXI@Z 0048e5e0 f i ToolkitPro1501vc60S:XTPControl.obj
 0001:0008d5e0       ??_ECDocTemplateMap@CXTPControl@@UAEPAXI@Z 0048e5e0 f i ToolkitPro1501vc60S:XTPControl.obj
 0001:0008d600       ??1CXTPControl@@MAE@XZ     0048e600 f   ToolkitPro1501vc60S:XTPControl.obj
 0001:0008d7c0       ?SetAction@CXTPControl@@UAEXPAVCXTPControlAction@@@Z 0048e7c0 f   ToolkitPro1501vc60S:XTPControl.obj
 0001:0008d800       ?OnRemoved@CXTPControl@@MAEXXZ 0048e800 f   ToolkitPro1501vc60S:XTPControl.obj
 0001:0008d810       ?GetStyle@CXTPControl@@QBE?AW4XTPButtonStyle@@XZ 0048e810 f   ToolkitPro1501vc60S:XTPControl.obj
 0001:0008d840       ?GetSize@CXTPControl@@UAE?AVCSize@@PAVCDC@@@Z 0048e840 f   ToolkitPro1501vc60S:XTPControl.obj
 0001:0008d880       ?Draw@CXTPControl@@UAEXPAVCDC@@@Z 0048e880 f   ToolkitPro1501vc60S:XTPControl.obj
 0001:0008d8b0       ?DelayLayoutParent@CXTPControl@@QAEXXZ 0048e8b0 f   ToolkitPro1501vc60S:XTPControl.obj
 0001:0008d8d0       ?RedrawParent@CXTPControl@@QAEXH@Z 0048e8d0 f   ToolkitPro1501vc60S:XTPControl.obj
 0001:0008d930       ?OnSetSelected@CXTPControl@@MAEHH@Z 0048e930 f   ToolkitPro1501vc60S:XTPControl.obj
 0001:0008d9b0       ?OnMouseHover@CXTPControl@@MAEXXZ 0048e9b0 f   ToolkitPro1501vc60S:XTPControl.obj
 0001:0008d9f0       ?SetPrompt@CXTPControl@@QAEXPBD@Z 0048e9f0 f   ToolkitPro1501vc60S:XTPControl.obj
 0001:0008dac0       ?SetID@CXTPControl@@QAEXH@Z 0048eac0 f   ToolkitPro1501vc60S:XTPControl.obj
 0001:0008db40       ?OnActionChanged@CXTPControl@@MAEXH@Z 0048eb40 f   ToolkitPro1501vc60S:XTPControl.obj
 0001:0008db60       ?SetCaption@CXTPControl@@QAEXI@Z 0048eb60 f   ToolkitPro1501vc60S:XTPControl.obj
 0001:0008dbd0       ?SetCaption@CXTPControl@@QAEXPBD@Z 0048ebd0 f   ToolkitPro1501vc60S:XTPControl.obj
 0001:0008dce0       ?ClickToolBarButton@CXTPControl@@IAEXVCRect@@@Z 0048ece0 f   ToolkitPro1501vc60S:XTPControl.obj
 0001:0008dfc0       ?NotifySite@CXTPControl@@QAEJI@Z 0048efc0 f   ToolkitPro1501vc60S:XTPControl.obj
 0001:0008e000       ?NotifySite@CXTPControl@@QAEJIPAUNMXTPCONTROL@@@Z 0048f000 f   ToolkitPro1501vc60S:XTPControl.obj
 0001:0008e030       ?NotifySite@CXTPControl@@QAEJPAVCWnd@@IPAUNMXTPCONTROL@@@Z 0048f030 f   ToolkitPro1501vc60S:XTPControl.obj
 0001:0008e0e0       ?NeedPressOnExecute@CXTPControl@@ABEHXZ 0048f0e0 f   ToolkitPro1501vc60S:XTPControl.obj
 0001:0008e100       ?OnExecute@CXTPControl@@UAEXXZ 0048f100 f   ToolkitPro1501vc60S:XTPControl.obj
 0001:0008e2d0       ?IsCursorOver@CXTPControl@@QBEHXZ 0048f2d0 f   ToolkitPro1501vc60S:XTPControl.obj
 0001:0008e310       ?Copy@CXTPControl@@UAEXPAV1@H@Z 0048f310 f   ToolkitPro1501vc60S:XTPControl.obj
 0001:0008e4f0       ?Compare@CXTPControl@@UAEHPAV1@@Z 0048f4f0 f   ToolkitPro1501vc60S:XTPControl.obj
 0001:0008e6d0       ?CreateObject@CXTPControl@@SGPAVCObject@@XZ 0048f6d0 f   ToolkitPro1501vc60S:XTPControl.obj
 0001:0008e730       ?GetRuntimeClass@CXTPControl@@UBEPAUCRuntimeClass@@XZ 0048f730 f   ToolkitPro1501vc60S:XTPControl.obj
 0001:0008e760       ?Clone@CXTPControl@@UAEPAV1@H@Z 0048f760 f   ToolkitPro1501vc60S:XTPControl.obj
 0001:0008e790       ?IsCustomizeMode@CXTPControl@@IBEHXZ 0048f790 f   ToolkitPro1501vc60S:XTPControl.obj
 0001:0008e7b0       ?OnInvertTracker@CXTPControl@@AAEXPAVCDC@@VCRect@@@Z 0048f7b0 f   ToolkitPro1501vc60S:XTPControl.obj
 0001:0008e870       ?OnCustomizeMouseMove@CXTPControl@@IAEXVCPoint@@@Z 0048f870 f   ToolkitPro1501vc60S:XTPControl.obj
 0001:0008e8d0       ?CustomizeStartResize@CXTPControl@@MAEHVCPoint@@@Z 0048f8d0 f   ToolkitPro1501vc60S:XTPControl.obj
 0001:0008eca0       ?CustomizeStartDrag@CXTPControl@@MAEXVCPoint@@@Z 0048fca0 f   ToolkitPro1501vc60S:XTPControl.obj
 0001:0008ee10       ?OnCustomizeDragOver@CXTPControl@@MAEXPAV1@VCPoint@@AAK@Z 0048fe10 f   ToolkitPro1501vc60S:XTPControl.obj
 0001:0008ee40       ?TranslateAcceleratorA@XDocHostUIHandler@CHTMLToolTip@CXTPToolTipContext@@UAGJPAUtagMSG@@PBU_GUID@@K@Z 0048fe40 f   ToolkitPro1501vc60S:XTPControl.obj
 0001:0008ee40       ?IsCustomizeDragOverAvail@CXTPControl@@MAEHPAVCXTPCommandBar@@VCPoint@@AAK@Z 0048fe40 f   ToolkitPro1501vc60S:XTPControl.obj
 0001:0008ee50       ?GetImageManager@CXTPControl@@QBEPAVCXTPImageManager@@XZ 0048fe50 f   ToolkitPro1501vc60S:XTPControl.obj
 0001:0008ee80       ?GetPaintManager@CXTPControl@@QBEPAVCXTPPaintManager@@XZ 0048fe80 f   ToolkitPro1501vc60S:XTPControl.obj
 0001:0008eed0       ?GetImage@CXTPControl@@UBEPAVCXTPImageManagerIcon@@H@Z 0048fed0 f   ToolkitPro1501vc60S:XTPControl.obj
 0001:0008ef40       ?SetExpanded@CXTPControl@@IAEXH@Z 0048ff40 f   ToolkitPro1501vc60S:XTPControl.obj
 0001:0008ef70       ?IsItemDefault@CXTPControl@@QBEHXZ 0048ff70 f   ToolkitPro1501vc60S:XTPControl.obj
 0001:0008ef80       ?SetItemDefault@CXTPControl@@QAEXH@Z 0048ff80 f   ToolkitPro1501vc60S:XTPControl.obj
 0001:0008efa0       ?SetFlags@CXTPControl@@QAEXK@Z 0048ffa0 f   ToolkitPro1501vc60S:XTPControl.obj
 0001:0008efb0       ?GetFlags@CXTPControl@@QBEKXZ 0048ffb0 f   ToolkitPro1501vc60S:XTPControl.obj
 0001:0008efc0       ?IsCustomizeMovable@CXTPControl@@UBEHXZ 0048ffc0 f   ToolkitPro1501vc60S:XTPControl.obj
 0001:0008f010       ?Copy@CDocTemplateMap@CXTPControl@@QAEXAAV12@@Z 00490010 f   ToolkitPro1501vc60S:XTPControl.obj
 0001:0008f1d0       ?OnLButtonDown@CXTPControl@@MAEXVCPoint@@@Z 004901d0 f   ToolkitPro1501vc60S:XTPControl.obj
 0001:0008f210       ?OnLButtonDblClk@CXTPControl@@MAEHVCPoint@@@Z 00490210 f   ToolkitPro1501vc60S:XTPControl.obj
 0001:0008f230       ?Reset@CXTPControl@@QAEXXZ 00490230 f   ToolkitPro1501vc60S:XTPControl.obj
 0001:0008f2a0       ?GetButtonSize@CXTPControl@@UBE?AVCSize@@XZ 004902a0 f   ToolkitPro1501vc60S:XTPControl.obj
 0001:0008f2d0       ?GetIconSize@CXTPControl@@UBE?AVCSize@@XZ 004902d0 f   ToolkitPro1501vc60S:XTPControl.obj
 0001:0008f330       ?GetEnabled@CXTPControl@@QBEHXZ 00490330 f   ToolkitPro1501vc60S:XTPControl.obj
 0001:0008f370       ?OnUnderlineActivate@CXTPControl@@UAEXXZ 00490370 f   ToolkitPro1501vc60S:XTPControl.obj
 0001:0008f380       ?IsCaptionVisible@CXTPControl@@UBEHXZ 00490380 f   ToolkitPro1501vc60S:XTPControl.obj
 0001:0008f430       ?GetAccessible@CXTPControl@@MAEPAVCCmdTarget@@XZ 00490430 f   ToolkitPro1501vc60S:XTPControl.obj
 0001:0008f440       ?GetAccessibleParent@CXTPControl@@MAEJPAPAUIDispatch@@@Z 00490440 f   ToolkitPro1501vc60S:XTPControl.obj
 0001:0008f470       ?GetAccessibleChildCount@CXTPControl@@MAEJPAJ@Z 00490470 f   ToolkitPro1501vc60S:XTPControl.obj
 0001:0008f4a0       ?GetAccessibleChild@CXTPControl@@MAEJUtagVARIANT@@PAPAUIDispatch@@@Z 004904a0 f   ToolkitPro1501vc60S:XTPControl.obj
 0001:0008f4e0       ?GetAccessibleName@CXTPControl@@MAEJUtagVARIANT@@PAPAG@Z 004904e0 f   ToolkitPro1501vc60S:XTPControl.obj
 0001:0008f650       ?GetAccessibleKeyboardShortcut@CXTPControl@@MAEJUtagVARIANT@@PAPAG@Z 00490650 f   ToolkitPro1501vc60S:XTPControl.obj
 0001:0008f730       ?GetAccessibleDescription@CXTPControl@@MAEJUtagVARIANT@@PAPAG@Z 00490730 f   ToolkitPro1501vc60S:XTPControl.obj
 0001:0008f7c0       ?GetAccessibleRole@CXTPControl@@MAEJUtagVARIANT@@PAU2@@Z 004907c0 f   ToolkitPro1501vc60S:XTPControl.obj
 0001:0008f850       ?AccessibleSelect@CXTPControl@@MAEJJUtagVARIANT@@@Z 00490850 f   ToolkitPro1501vc60S:XTPControl.obj
 0001:0008f8b0       ?GetAccessibleState@CXTPControl@@MAEJUtagVARIANT@@PAU2@@Z 004908b0 f   ToolkitPro1501vc60S:XTPControl.obj
 0001:0008f990       ?GetAccessibleDefaultAction@CXTPControl@@MAEJUtagVARIANT@@PAPAG@Z 00490990 f   ToolkitPro1501vc60S:XTPControl.obj
 0001:0008f9c0       ?AccessibleDoDefaultAction@CXTPControl@@MAEJUtagVARIANT@@@Z 004909c0 f   ToolkitPro1501vc60S:XTPControl.obj
 0001:0008fa00       ?AccessibleLocation@CXTPControl@@MAEJPAJ000UtagVARIANT@@@Z 00490a00 f   ToolkitPro1501vc60S:XTPControl.obj
 0001:0008fad0       ?AccessibleHitTest@CXTPControl@@MAEJJJPAUtagVARIANT@@@Z 00490ad0 f   ToolkitPro1501vc60S:XTPControl.obj
 0001:0008fbb0       ?SetVisible@CXTPControl@@QAEXH@Z 00490bb0 f   ToolkitPro1501vc60S:XTPControl.obj
 0001:0008fc00       ?OnCmdMsg@CXTPControl@@MAEHIHPAXPAUAFX_CMDHANDLERINFO@@@Z 00490c00 f   ToolkitPro1501vc60S:XTPControl.obj
 0001:0008fc40       ?GetInterfaceMap@CXTPControl@@MBEPBUAFX_INTERFACEMAP@@XZ 00490c40 f   ToolkitPro1501vc60S:XTPControl.obj
 0001:0008fc50       ??1?$CArray@PAVCXTPControlAction@@PAV1@@@UAE@XZ 00490c50 f i ToolkitPro1501vc60S:XTPControl.obj
 0001:0008fca0       ??_G?$CArray@PAVCXTPControlAction@@PAV1@@@UAEPAXI@Z 00490ca0 f i ToolkitPro1501vc60S:XTPControl.obj
 0001:0008fca0       ??_E?$CArray@PAVCXTPControlAction@@PAV1@@@UAEPAXI@Z 00490ca0 f i ToolkitPro1501vc60S:XTPControl.obj
 0001:0008fcc0       ??_ECXTPControl@@OBM@AEPAXI@Z 00490cc0 f i ToolkitPro1501vc60S:XTPControl.obj
 0001:0008fcd0       ??0CXTPCustomizeDropSource@@QAE@PAVCXTPCommandBars@@@Z 00490cd0 f   ToolkitPro1501vc60S:XTPCustomizeTools.obj
 0001:0008fd70       ??1CXTPCustomizeDropSource@@QAE@XZ 00490d70 f   ToolkitPro1501vc60S:XTPCustomizeTools.obj
 0001:0008fdc0       ?DoDragDrop@CXTPCustomizeDropSource@@QAEKPAVCXTPControl@@H@Z 00490dc0 f   ToolkitPro1501vc60S:XTPCustomizeTools.obj
 0001:0008fe60       ?Register@CXTPCustomizeDropSource@@QAEXPAVCXTPCommandBar@@@Z 00490e60 f   ToolkitPro1501vc60S:XTPCustomizeTools.obj
 0001:0008ffd0       ?UnRegister@CXTPCustomizeDropSource@@QAEXPAVCXTPCommandBar@@@Z 00490fd0 f   ToolkitPro1501vc60S:XTPCustomizeTools.obj
 0001:00090020       ?GetSheet@CXTPCustomizeDropSource@@QBEPAVCXTPCustomizeSheet@@XZ 00491020 f   ToolkitPro1501vc60S:XTPCustomizeTools.obj
 0001:00090020       ?GetHashKey@CXTPMarkupBool@@UBEIXZ 00491020 f   ToolkitPro1501vc60S:XTPCustomizeTools.obj
 0001:00090030       ?PickTarget@CXTPCustomizeDropSource@@AAEXVCPoint@@@Z 00491030 f   ToolkitPro1501vc60S:XTPCustomizeTools.obj
 0001:00090180       ?FreshenCursor@CXTPCustomizeDropSource@@AAEXXZ 00491180 f   ToolkitPro1501vc60S:XTPCustomizeTools.obj
 0001:000901b0       ?_DoDragDrop@CXTPCustomizeDropSource@@AAEKXZ 004911b0 f   ToolkitPro1501vc60S:XTPCustomizeTools.obj
 0001:000903c0       ??0CXTPNewToolbarDlg@@QAE@PAVCWnd@@PAVCXTPCommandBars@@PAVCXTPCommandBar@@@Z 004913c0 f   ToolkitPro1501vc60S:XTPCustomizeTools.obj
 0001:00090460       ??_GCXTPNewToolbarDlg@@UAEPAXI@Z 00491460 f i ToolkitPro1501vc60S:XTPCustomizeTools.obj
 0001:00090460       ??_ECXTPNewToolbarDlg@@UAEPAXI@Z 00491460 f i ToolkitPro1501vc60S:XTPCustomizeTools.obj
 0001:00090480       ??1CXTPNewToolbarDlg@@UAE@XZ 00491480 f i ToolkitPro1501vc60S:XTPCustomizeTools.obj
 0001:000904d0       ?DoDataExchange@CXTPNewToolbarDlg@@MAEXPAVCDataExchange@@@Z 004914d0 f   ToolkitPro1501vc60S:XTPCustomizeTools.obj
 0001:000904f0       ?GetMessageMap@CXTPNewToolbarDlg@@MBEPBUAFX_MSGMAP@@XZ 004914f0 f   ToolkitPro1501vc60S:XTPCustomizeTools.obj
 0001:00090500       ?OnInitDialog@CXTPNewToolbarDlg@@MAEHXZ 00491500 f   ToolkitPro1501vc60S:XTPCustomizeTools.obj
 0001:000905e0       ?SetSuggestedName@CXTPNewToolbarDlg@@AAEXXZ 004915e0 f   ToolkitPro1501vc60S:XTPCustomizeTools.obj
 0001:00090700       ?OnOK@CXTPNewToolbarDlg@@MAEXXZ 00491700 f   ToolkitPro1501vc60S:XTPCustomizeTools.obj
 0001:000908c0       ?AddToolBar@CXTPReBar@@QAEHPAVCXTPToolBar@@K@Z 004918c0 f   ToolkitPro1501vc60S:XTPReBar.obj
 0001:00090990       ?DeleteToolBar@CXTPReBar@@QAEXPAVCXTPToolBar@@@Z 00491990 f   ToolkitPro1501vc60S:XTPReBar.obj
 0001:000909c0       ?GetToolBar@CXTPReBar@@QAEPAVCXTPToolBar@@H@Z 004919c0 f   ToolkitPro1501vc60S:XTPReBar.obj
 0001:00090a10       ?FindBand@CXTPReBar@@QAEHPAVCXTPToolBar@@@Z 00491a10 f   ToolkitPro1501vc60S:XTPReBar.obj
 0001:00090a60       ?OnPaint@CXTPReBar@@IAEXXZ 00491a60 f   ToolkitPro1501vc60S:XTPReBar.obj
 0001:00090b40       ?OnChildSize@CXTPReBar@@IAEXPAUtagNMHDR@@PAJ@Z 00491b40 f   ToolkitPro1501vc60S:XTPReBar.obj
 0001:00090b90       ??0CWorkspace@CXTPTabClientWnd@@QAE@XZ 00491b90 f   ToolkitPro1501vc60S:XTPTabClientWnd.obj
 0001:00090bc0       ??_GCWorkspace@CXTPTabClientWnd@@UAEPAXI@Z 00491bc0 f i ToolkitPro1501vc60S:XTPTabClientWnd.obj
 0001:00090bc0       ??_ECWorkspace@CXTPTabClientWnd@@UAEPAXI@Z 00491bc0 f i ToolkitPro1501vc60S:XTPTabClientWnd.obj
 0001:00090be0       ??1CWorkspace@CXTPTabClientWnd@@UAE@XZ 00491be0 f   ToolkitPro1501vc60S:XTPTabClientWnd.obj
 0001:00090bf0       ?SetSelectedItem@CWorkspace@CXTPTabClientWnd@@MAEXPAVCXTPTabManagerItem@@@Z 00491bf0 f   ToolkitPro1501vc60S:XTPTabClientWnd.obj
 0001:00090c30       ?IsMouseLocked@CWorkspace@CXTPTabClientWnd@@MBEHXZ 00491c30 f   ToolkitPro1501vc60S:XTPTabClientWnd.obj
 0001:00090c50       ?RedrawControl@CWorkspace@CXTPTabClientWnd@@MAEXPBUtagRECT@@H@Z 00491c50 f   ToolkitPro1501vc60S:XTPTabClientWnd.obj
 0001:00090c80       ?Reposition@CWorkspace@CXTPTabClientWnd@@MAEXXZ 00491c80 f   ToolkitPro1501vc60S:XTPTabClientWnd.obj
 0001:00090cb0       ?IsAllowReorder@CWorkspace@CXTPTabClientWnd@@MBEHXZ 00491cb0 f   ToolkitPro1501vc60S:XTPTabClientWnd.obj
 0001:00090cc0       ?SetAllowReorder@CWorkspace@CXTPTabClientWnd@@MAEXH@Z 00491cc0 f   ToolkitPro1501vc60S:XTPTabClientWnd.obj
 0001:00090ce0       ?IsDrawStaticFrame@CWorkspace@CXTPTabClientWnd@@MBEHXZ 00491ce0 f   ToolkitPro1501vc60S:XTPTabClientWnd.obj
 0001:00090d10       ?DrawIcon@CWorkspace@CXTPTabClientWnd@@MBEHPAVCDC@@VCPoint@@PAVCXTPTabManagerItem@@HAAVCSize@@@Z 00491d10 f   ToolkitPro1501vc60S:XTPTabClientWnd.obj
 0001:00090e60       ?GetPaintManager@CWorkspace@CXTPTabClientWnd@@MBEPAVCXTPTabPaintManager@@XZ 00491e60 f   ToolkitPro1501vc60S:XTPTabClientWnd.obj
 0001:00090e80       ?GetItemTooltip@CWorkspace@CXTPTabClientWnd@@MBE?AVCString@@PBVCXTPTabManagerItem@@@Z 00491e80 f   ToolkitPro1501vc60S:XTPTabClientWnd.obj
 0001:00090eb0       ?FindItem@CWorkspace@CXTPTabClientWnd@@IBEPAVCXTPTabManagerItem@@QAUHWND__@@@Z 00491eb0 f   ToolkitPro1501vc60S:XTPTabClientWnd.obj
 0001:00090f10       ?OnBeforeItemClick@CWorkspace@CXTPTabClientWnd@@MAEHPAVCXTPTabManagerItem@@@Z 00491f10 f   ToolkitPro1501vc60S:XTPTabClientWnd.obj
 0001:00090f30       ?OnItemClick@CWorkspace@CXTPTabClientWnd@@MAEXPAVCXTPTabManagerItem@@@Z 00491f30 f   ToolkitPro1501vc60S:XTPTabClientWnd.obj
 0001:00091030       ?GetWindow@CWorkspace@CXTPTabClientWnd@@MBEPAVCWnd@@XZ 00492030 f   ToolkitPro1501vc60S:XTPTabClientWnd.obj
 0001:00091040       ?OnNavigateButtonClick@CWorkspace@CXTPTabClientWnd@@MAEXPAVCXTPTabManagerNavigateButton@@@Z 00492040 f   ToolkitPro1501vc60S:XTPTabClientWnd.obj
 0001:00091090       ?GetMarkupContext@CWorkspace@CXTPTabClientWnd@@MBEPAVCXTPMarkupContext@@XZ 00492090 f   ToolkitPro1501vc60S:XTPTabClientWnd.obj
 0001:000910a0       ?GetItemIcon@CWorkspace@CXTPTabClientWnd@@MBEPAUHICON__@@PBVCXTPTabManagerItem@@@Z 004920a0 f   ToolkitPro1501vc60S:XTPTabClientWnd.obj
 0001:000910c0       ?GetItemColor@CWorkspace@CXTPTabClientWnd@@MBEKPBVCXTPTabManagerItem@@@Z 004920c0 f   ToolkitPro1501vc60S:XTPTabClientWnd.obj
 0001:00091110       ?ReOrder@CWorkspace@CXTPTabClientWnd@@MAEXPAUHWND__@@VCPoint@@PAVCXTPTabManagerItem@@@Z 00492110 f   ToolkitPro1501vc60S:XTPTabClientWnd.obj
 0001:00091500       ?DrawParentBackground@CWorkspace@CXTPTabClientWnd@@MAEHPAVCDC@@VCRect@@@Z 00492500 f   ToolkitPro1501vc60S:XTPTabClientWnd.obj
 0001:000915f0       ?OnPaint@CSingleWorkspace@CXTPTabClientWnd@@QAEXXZ 004925f0 f   ToolkitPro1501vc60S:XTPTabClientWnd.obj
 0001:00091720       ?OnPrintClient@CSingleWorkspace@CXTPTabClientWnd@@QAEJIJ@Z 00492720 f   ToolkitPro1501vc60S:XTPTabClientWnd.obj
 0001:000917f0       ?OnLButtonDown@CSingleWorkspace@CXTPTabClientWnd@@QAEXIVCPoint@@@Z 004927f0 f   ToolkitPro1501vc60S:XTPTabClientWnd.obj
 0001:00091830       ?OnLButtonDblClk@CSingleWorkspace@CXTPTabClientWnd@@QAEXIVCPoint@@@Z 00492830 f   ToolkitPro1501vc60S:XTPTabClientWnd.obj
 0001:00091850       ?OnMouseMove@CSingleWorkspace@CXTPTabClientWnd@@QAEXIVCPoint@@@Z 00492850 f   ToolkitPro1501vc60S:XTPTabClientWnd.obj
 0001:00091870       ?OnMouseLeave@CSingleWorkspace@CXTPTabClientWnd@@QAEXXZ 00492870 f   ToolkitPro1501vc60S:XTPTabClientWnd.obj
 0001:00091890       ?CreateObject@CXTPControlTabWorkspace@@SGPAVCObject@@XZ 00492890 f   ToolkitPro1501vc60S:XTPTabClientWnd.obj
 0001:000918f0       ?GetRuntimeClass@CXTPControlTabWorkspace@@UBEPAUCRuntimeClass@@XZ 004928f0 f   ToolkitPro1501vc60S:XTPTabClientWnd.obj
 0001:00091920       ?Clone@CXTPControlTabWorkspace@@UAEPAVCXTPControl@@H@Z 00492920 f   ToolkitPro1501vc60S:XTPTabClientWnd.obj
 0001:00091950       ??0CXTPControlTabWorkspace@@QAE@XZ 00492950 f   ToolkitPro1501vc60S:XTPTabClientWnd.obj
 0001:000919d0       ??_ECXTPControlTabWorkspace@@UAEPAXI@Z 004929d0 f i ToolkitPro1501vc60S:XTPTabClientWnd.obj
 0001:000919d0       ??_GCXTPControlTabWorkspace@@UAEPAXI@Z 004929d0 f i ToolkitPro1501vc60S:XTPTabClientWnd.obj
 0001:000919f0       ??1CXTPControlTabWorkspace@@UAE@XZ 004929f0 f   ToolkitPro1501vc60S:XTPTabClientWnd.obj
 0001:00091a60       ?RedrawControl@CXTPControlTabWorkspace@@UAEXPBUtagRECT@@H@Z 00492a60 f   ToolkitPro1501vc60S:XTPTabClientWnd.obj
 0001:00091a80       ?GetPaintManager@CXTPControlTabWorkspace@@UBEPAVCXTPTabPaintManager@@XZ 00492a80 f   ToolkitPro1501vc60S:XTPTabClientWnd.obj
 0001:00091a90       ?GetWindow@CXTPControlTabWorkspace@@UBEPAVCWnd@@XZ 00492a90 f   ToolkitPro1501vc60S:XTPTabClientWnd.obj
 0001:00091aa0       ?OnMouseMove@CXTPControlTabWorkspace@@MAEXVCPoint@@@Z 00492aa0 f   ToolkitPro1501vc60S:XTPTabClientWnd.obj
 0001:00091ad0       ?OnRecalcLayout@CXTPControlTabWorkspace@@UAEXXZ 00492ad0 f   ToolkitPro1501vc60S:XTPTabClientWnd.obj
 0001:00091b20       ?GetPosition@CXTPControlTabWorkspace@@UBE?AW4XTPTabPosition@@XZ 00492b20 f   ToolkitPro1501vc60S:XTPTabClientWnd.obj
 0001:00091b50       ?OnRemoved@CXTPControlTabWorkspace@@UAEXXZ 00492b50 f   ToolkitPro1501vc60S:XTPTabClientWnd.obj
 0001:00091ba0       ?SetRect@CXTPControlTabWorkspace@@MAEXVCRect@@@Z 00492ba0 f   ToolkitPro1501vc60S:XTPTabClientWnd.obj
 0001:00091c90       ?Draw@CXTPControlTabWorkspace@@MAEXPAVCDC@@@Z 00492c90 f   ToolkitPro1501vc60S:XTPTabClientWnd.obj
 0001:00091d00       ?GetSize@CXTPControlTabWorkspace@@MAE?AVCSize@@PAVCDC@@@Z 00492d00 f   ToolkitPro1501vc60S:XTPTabClientWnd.obj
 0001:00091db0       ?OnToolHitTest@CXTPControlTabWorkspace@@MBEHVCPoint@@PAUtagTOOLINFOA@@@Z 00492db0 f   ToolkitPro1501vc60S:XTPTabClientWnd.obj
 0001:00091ef0       ?OnClick@CXTPControlTabWorkspace@@MAEXHVCPoint@@@Z 00492ef0 f   ToolkitPro1501vc60S:XTPTabClientWnd.obj
 0001:00091f50       ?FindItem@CXTPTabClientWnd@@QBEPAVCXTPTabManagerItem@@QAUHWND__@@@Z 00492f50 f   ToolkitPro1501vc60S:XTPTabClientWnd.obj
 0001:00091f90       ?MDIGetActive@CXTPTabClientWnd@@IAEPAVCWnd@@XZ 00492f90 f   ToolkitPro1501vc60S:XTPTabClientWnd.obj
 0001:00091fa0       ?MDIActivate@CXTPTabClientWnd@@IAEXPAVCWnd@@@Z 00492fa0 f   ToolkitPro1501vc60S:XTPTabClientWnd.obj
 0001:00092000       ?GetWorkspace@CXTPTabClientWnd@@QBEPAVCWorkspace@1@H@Z 00493000 f   ToolkitPro1501vc60S:XTPTabClientWnd.obj
 0001:00092010       ?OnIdleUpdateCmdUI@CXTPTabClientWnd@@QAEXXZ 00493010 f   ToolkitPro1501vc60S:XTPTabClientWnd.obj
 0001:00092030       ?AddNewWindowItem@CWorkspace@CXTPTabClientWnd@@MAEXXZ 00493030 f   ToolkitPro1501vc60S:XTPTabClientWnd.obj
 0001:00092080       ?SetActiveWorkspace@CXTPTabClientWnd@@IAEXPAVCWorkspace@1@@Z 00493080 f   ToolkitPro1501vc60S:XTPTabClientWnd.obj
 0001:000920c0       ?ScreenToWorkspace@CXTPTabClientWnd@@QBEXPAUtagPOINT@@@Z 004930c0 f   ToolkitPro1501vc60S:XTPTabClientWnd.obj
 0001:00092120       ?Refresh@CXTPTabClientWnd@@QAEXH@Z 00493120 f   ToolkitPro1501vc60S:XTPTabClientWnd.obj
 0001:00092210       ?OnMDIActivate@CXTPTabClientWnd@@IAEJIJ@Z 00493210 f   ToolkitPro1501vc60S:XTPTabClientWnd.obj
 0001:000922a0       ?OnMDICreate@CXTPTabClientWnd@@IAEJIJ@Z 004932a0 f   ToolkitPro1501vc60S:XTPTabClientWnd.obj
 0001:00092310       ?ActivateNextItem@CXTPTabClientWnd@@IAEXPAVCXTPTabManagerItem@@@Z 00493310 f   ToolkitPro1501vc60S:XTPTabClientWnd.obj
 0001:00092360       ?OnMDIDestroy@CXTPTabClientWnd@@IAEJIJ@Z 00493360 f   ToolkitPro1501vc60S:XTPTabClientWnd.obj
 0001:000923a0       ?OnMDINext@CXTPTabClientWnd@@IAEJIJ@Z 004933a0 f   ToolkitPro1501vc60S:XTPTabClientWnd.obj
 0001:000923c0       ?OnSetCursor@CXTPTabClientWnd@@IAEHPAVCWnd@@II@Z 004933c0 f   ToolkitPro1501vc60S:XTPTabClientWnd.obj
 0001:00092490       ?OnSize@CXTPTabClientWnd@@IAEXIHH@Z 00493490 f   ToolkitPro1501vc60S:XTPTabClientWnd.obj
 0001:00092490       ?OnRButtonDown@CXTPTabClientWnd@@IAEXIVCPoint@@@Z 00493490 f   ToolkitPro1501vc60S:XTPTabClientWnd.obj
 0001:00092490       ?OnChar@CXTPDockingPaneWindowSelect@@QAEXIII@Z 00493490 f   ToolkitPro1501vc60S:XTPTabClientWnd.obj
 0001:00092490       ?OnSysKeyDown@CXTPCustomizeSheet@@IAEXIII@Z 00493490 f   ToolkitPro1501vc60S:XTPTabClientWnd.obj
 0001:000924a0       ?OnEraseBkgnd@CXTPTabClientWnd@@IAEHPAVCDC@@@Z 004934a0 f   ToolkitPro1501vc60S:XTPTabClientWnd.obj
 0001:000924d0       ?OnPrintClient@CXTPTabClientWnd@@IAEJIJ@Z 004934d0 f   ToolkitPro1501vc60S:XTPTabClientWnd.obj
 0001:00092550       ?OnPaint@CXTPTabClientWnd@@IAEXXZ 00493550 f   ToolkitPro1501vc60S:XTPTabClientWnd.obj
 0001:00092640       ?OnNcCalcSize@CXTPTabClientWnd@@IAEXHPAUtagNCCALCSIZE_PARAMS@@@Z 00493640 f   ToolkitPro1501vc60S:XTPTabClientWnd.obj
 0001:00092670       ?OnNcActivate@CXTPTabClientWnd@@IAEHH@Z 00493670 f   ToolkitPro1501vc60S:XTPTabClientWnd.obj
 0001:00092690       ?OnNcPaint@CXTPTabClientWnd@@IAEXXZ 00493690 f   ToolkitPro1501vc60S:XTPTabClientWnd.obj
 0001:00092740       ?RepositionWorkspaces@CXTPTabClientWnd@@IAEXVCRect@@0PAVCWorkspace@1@1@Z 00493740 f   ToolkitPro1501vc60S:XTPTabClientWnd.obj
 0001:00092810       ?NormalizeWorkspaceSize@CXTPTabClientWnd@@IAEXXZ 00493810 f   ToolkitPro1501vc60S:XTPTabClientWnd.obj
 0001:00092890       ?TrackSplitter@CXTPTabClientWnd@@IAEXHVCPoint@@@Z 00493890 f   ToolkitPro1501vc60S:XTPTabClientWnd.obj
 0001:00092c70       ?OnLButtonDown@CXTPTabClientWnd@@IAEXIVCPoint@@@Z 00493c70 f   ToolkitPro1501vc60S:XTPTabClientWnd.obj
 0001:00092d80       ?InitLoop@CXTPTabClientWnd@@IAEXXZ 00493d80 f   ToolkitPro1501vc60S:XTPTabClientWnd.obj
 0001:00092e60       ?CancelLoop@CXTPTabClientWnd@@IAEXXZ 00493e60 f   ToolkitPro1501vc60S:XTPTabClientWnd.obj
 0001:00092eb0       ?DrawFocusRect@CXTPTabClientWnd@@IAEXH@Z 00493eb0 f   ToolkitPro1501vc60S:XTPTabClientWnd.obj
 0001:00092f80       ?ReorderWorkspace@CXTPTabClientWnd@@IAEXVCPoint@@PAVCXTPTabManagerItem@@@Z 00493f80 f   ToolkitPro1501vc60S:XTPTabClientWnd.obj
 0001:00093200       ?FindIndex@CXTPTabClientWnd@@QBEHPAVCXTPTabManager@@@Z 00494200 f   ToolkitPro1501vc60S:XTPTabClientWnd.obj
 0001:00093240       ?ContextMenu@CXTPTabClientWnd@@IAEXVCPoint@@@Z 00494240 f   ToolkitPro1501vc60S:XTPTabClientWnd.obj
 0001:00093340       ?OnWorkspaceCommand@CXTPTabClientWnd@@QAEXI@Z 00494340 f   ToolkitPro1501vc60S:XTPTabClientWnd.obj
 0001:00093410       ?OnUpdateWorkspaceCommand@CXTPTabClientWnd@@IAEXPAVCCmdUI@@@Z 00494410 f   ToolkitPro1501vc60S:XTPTabClientWnd.obj
 0001:00093430       ?IsWorkspaceCommandEnabled@CXTPTabClientWnd@@QAEHIPAPAVCXTPTabManagerItem@@@Z 00494430 f   ToolkitPro1501vc60S:XTPTabClientWnd.obj
 0001:00093520       ?DoWorkspaceCommand@CXTPTabClientWnd@@IAEXPAVCXTPTabManagerItem@@PAVCWorkspace@1@H@Z 00494520 f   ToolkitPro1501vc60S:XTPTabClientWnd.obj
 0001:000936d0       ?OnMouseMove@CXTPTabClientWnd@@IAEXIVCPoint@@@Z 004946d0 f   ToolkitPro1501vc60S:XTPTabClientWnd.obj
 0001:00093730       ?OnMouseLeave@CXTPTabClientWnd@@IAEXXZ 00494730 f   ToolkitPro1501vc60S:XTPTabClientWnd.obj
 0001:00093780       ?OnLButtonDblClk@CXTPTabClientWnd@@IAEXIVCPoint@@@Z 00494780 f   ToolkitPro1501vc60S:XTPTabClientWnd.obj
 0001:000937a0       ?OnSysColorChange@CXTPTabClientWnd@@IAEXXZ 004947a0 f   ToolkitPro1501vc60S:XTPTabClientWnd.obj
 0001:000937d0       ?GetPaintManager@CXTPTabClientWnd@@QBEPAVCXTPTabPaintManager@@XZ 004947d0 f   ToolkitPro1501vc60S:XTPTabClientWnd.obj
 0001:000937e0       ?SetSize@?$CArray@VCRect@@AAV1@@@QAEXHH@Z 004947e0 f i ToolkitPro1501vc60S:XTPTabClientWnd.obj
 0001:00093910       ??_ECXTPControlTabWorkspace@@WBM@AEPAXI@Z 00494910 f i ToolkitPro1501vc60S:XTPTabClientWnd.obj
 0001:00093920       ??_ECXTPControlTabWorkspace@@WBDA@AEPAXI@Z 00494920 f i ToolkitPro1501vc60S:XTPTabClientWnd.obj
 0001:00093980       ??1?$CThreadLocal@VCXTPKeyboardManager@@@@QAE@XZ 00494980 f i ToolkitPro1501vc60S:XTPMouseManager.obj
 0001:00093980       ??1?$CThreadLocal@VCXTPDockingPaneKeyboardHook@@@@QAE@XZ 00494980 f i ToolkitPro1501vc60S:XTPMouseManager.obj
 0001:00093980       ??1?$CThreadLocal@VCXTPMouseManager@@@@QAE@XZ 00494980 f i ToolkitPro1501vc60S:XTPMouseManager.obj
 0001:000939b0       ??0CXTPMouseManager@@QAE@XZ 004949b0 f   ToolkitPro1501vc60S:XTPMouseManager.obj
 0001:00093a30       ??_GCXTPMouseManager@@UAEPAXI@Z 00494a30 f i ToolkitPro1501vc60S:XTPMouseManager.obj
 0001:00093a30       ??_ECXTPMouseManager@@UAEPAXI@Z 00494a30 f i ToolkitPro1501vc60S:XTPMouseManager.obj
 0001:00093a50       ??1CTrackArray@CXTPMouseManager@@UAE@XZ 00494a50 f i ToolkitPro1501vc60S:XTPMouseManager.obj
 0001:00093aa0       ??1CTrustedArray@CXTPMouseManager@@UAE@XZ 00494aa0 f i ToolkitPro1501vc60S:XTPMouseManager.obj
 0001:00093af0       ??_GCTrackArray@CXTPMouseManager@@UAEPAXI@Z 00494af0 f i ToolkitPro1501vc60S:XTPMouseManager.obj
 0001:00093af0       ??_ECTrackArray@CXTPMouseManager@@UAEPAXI@Z 00494af0 f i ToolkitPro1501vc60S:XTPMouseManager.obj
 0001:00093b10       ??_GCTrustedArray@CXTPMouseManager@@UAEPAXI@Z 00494b10 f i ToolkitPro1501vc60S:XTPMouseManager.obj
 0001:00093b10       ??_ECTrustedArray@CXTPMouseManager@@UAEPAXI@Z 00494b10 f i ToolkitPro1501vc60S:XTPMouseManager.obj
 0001:00093b30       ??1CXTPMouseManager@@UAE@XZ 00494b30 f   ToolkitPro1501vc60S:XTPMouseManager.obj
 0001:00093bc0       ?DeliverMessage@CXTPMouseManager@@AAEXPAVCXTPCommandBar@@IUtagPOINT@@@Z 00494bc0 f   ToolkitPro1501vc60S:XTPMouseManager.obj
 0001:00093c80       ?HitTest@CXTPMouseManager@@QBEPAVCXTPCommandBar@@UtagPOINT@@@Z 00494c80 f   ToolkitPro1501vc60S:XTPMouseManager.obj
 0001:00093d10       ?PreviewTackLost@CXTPMouseManager@@QBEHPAVCXTPCommandBar@@PAUtagMSG@@@Z 00494d10 f   ToolkitPro1501vc60S:XTPMouseManager.obj
 0001:00093e40       ?IsRelated@CXTPMouseManager@@QBEHPAUHWND__@@0@Z 00494e40 f   ToolkitPro1501vc60S:XTPMouseManager.obj
 0001:00093e80       ?PreTranslateMouseEvents@CXTPMouseManager@@AAEHIUtagPOINT@@@Z 00494e80 f   ToolkitPro1501vc60S:XTPMouseManager.obj
 0001:00094000       ?MouseProc@CXTPMouseManager@@CGJHIJ@Z 00495000 f   ToolkitPro1501vc60S:XTPMouseManager.obj
 0001:00094110       ?SetupHook@CXTPMouseManager@@AAEXH@Z 00495110 f   ToolkitPro1501vc60S:XTPMouseManager.obj
 0001:00094160       ?SetTrack@CXTPMouseManager@@QAEXPAVCXTPCommandBar@@H@Z 00495160 f   ToolkitPro1501vc60S:XTPMouseManager.obj
 0001:00094310       ?RemoveTrack@CXTPMouseManager@@QAEXPAVCXTPCommandBar@@@Z 00495310 f   ToolkitPro1501vc60S:XTPMouseManager.obj
 0001:00094380       ?RefreshCursor@CXTPMouseManager@@SAXXZ 00495380 f   ToolkitPro1501vc60S:XTPMouseManager.obj
 0001:000943c0       ?SendTrackLost@CXTPMouseManager@@QAEXXZ 004953c0 f   ToolkitPro1501vc60S:XTPMouseManager.obj
 0001:000943e0       ?IsTopParentActive@CXTPMouseManager@@SAHPAUHWND__@@@Z 004953e0 f   ToolkitPro1501vc60S:XTPMouseManager.obj
 0001:000943f0       ?TrackMouseTimerProc@CXTPMouseManager@@CGXPAUHWND__@@IIK@Z 004953f0 f   ToolkitPro1501vc60S:XTPMouseManager.obj
 0001:000944d0       ?TrackMouseLeave@CXTPMouseManager@@QAEXPAUHWND__@@@Z 004954d0 f   ToolkitPro1501vc60S:XTPMouseManager.obj
 0001:00094520       ?AddTrustedWindow@CXTPMouseManager@@QAEXPAUHWND__@@@Z 00495520 f   ToolkitPro1501vc60S:XTPMouseManager.obj
 0001:00094690       ?RemoveTrustedWindow@CXTPMouseManager@@QAEXPAUHWND__@@@Z 00495690 f   ToolkitPro1501vc60S:XTPMouseManager.obj
 0001:000946f0       ?LockTrackRecurse@CXTPMouseManager@@QAEXH@Z 004956f0 f   ToolkitPro1501vc60S:XTPMouseManager.obj
 0001:00094730       ?IsTrackedLock@CXTPMouseManager@@QAEHPBVCXTPCommandBar@@@Z 00495730 f   ToolkitPro1501vc60S:XTPMouseManager.obj
 0001:00094790       ?SendTrackLostRecurse@CXTPMouseManager@@QAEXXZ 00495790 f   ToolkitPro1501vc60S:XTPMouseManager.obj
 0001:000947e0       ??_E?$CArray@PAUHWND__@@PAU1@@@UAEPAXI@Z 004957e0 f i ToolkitPro1501vc60S:XTPMouseManager.obj
 0001:000947e0       ??_G?$CArray@PAUHWND__@@PAU1@@@UAEPAXI@Z 004957e0 f i ToolkitPro1501vc60S:XTPMouseManager.obj
 0001:00094800       ??1?$CArray@PAUHWND__@@PAU1@@@UAE@XZ 00495800 f i ToolkitPro1501vc60S:XTPMouseManager.obj
 0001:000948a0       ??0CXTPKeyboardManager@@QAE@XZ 004958a0 f   ToolkitPro1501vc60S:XTPKeyboardManager.obj
 0001:000948e0       ??_GCXTPKeyboardManager@@UAEPAXI@Z 004958e0 f i ToolkitPro1501vc60S:XTPKeyboardManager.obj
 0001:000948e0       ??_ECXTPKeyboardManager@@UAEPAXI@Z 004958e0 f i ToolkitPro1501vc60S:XTPKeyboardManager.obj
 0001:00094900       ?SetupKeyboardHook@CXTPKeyboardManager@@QAEXH@Z 00495900 f   ToolkitPro1501vc60S:XTPKeyboardManager.obj
 0001:00094950       ?SetupCallWndProcHook@CXTPKeyboardManager@@QAEXH@Z 00495950 f   ToolkitPro1501vc60S:XTPKeyboardManager.obj
 0001:000949a0       ??1CXTPKeyboardManager@@UAE@XZ 004959a0 f   ToolkitPro1501vc60S:XTPKeyboardManager.obj
 0001:00094a30       ?HookKeyboard@CXTPKeyboardManager@@QAEXPAVCXTPHookManagerHookAble@@@Z 00495a30 f   ToolkitPro1501vc60S:XTPKeyboardManager.obj
 0001:00094ae0       ?UnhookKeyboard@CXTPKeyboardManager@@QAEXPAVCXTPHookManagerHookAble@@@Z 00495ae0 f   ToolkitPro1501vc60S:XTPKeyboardManager.obj
 0001:00094b80       ?ProcessKeyboardHooks@CXTPKeyboardManager@@QAEHIIJ@Z 00495b80 f   ToolkitPro1501vc60S:XTPKeyboardManager.obj
 0001:00094be0       ?CallWndProc@CXTPKeyboardManager@@KGJHIJ@Z 00495be0 f   ToolkitPro1501vc60S:XTPKeyboardManager.obj
 0001:00094c40       ?KeyboardProc@CXTPKeyboardManager@@KGJHIJ@Z 00495c40 f   ToolkitPro1501vc60S:XTPKeyboardManager.obj
 0001:00094d20       ??1?$CList@PAVCXTPHookManagerHookAble@@PAV1@@@UAE@XZ 00495d20 f i ToolkitPro1501vc60S:XTPKeyboardManager.obj
 0001:00094d80       ?Serialize@?$CList@PAVCShadowWnd@CXTPShadowManager@@PAV12@@@UAEXAAVCArchive@@@Z 00495d80 f i ToolkitPro1501vc60S:XTPKeyboardManager.obj
 0001:00094d80       ?Serialize@?$CList@PAVCXTPDockingPaneSplitterWnd@@PAV1@@@UAEXAAVCArchive@@@Z 00495d80 f i ToolkitPro1501vc60S:XTPKeyboardManager.obj
 0001:00094d80       ?Serialize@?$CList@PAVCAlphaBitmap@CXTPImageEditorPicture@@PAV12@@@UAEXAAVCArchive@@@Z 00495d80 f i ToolkitPro1501vc60S:XTPKeyboardManager.obj
 0001:00094d80       ?Serialize@?$CList@PAVCXTPMarkupObject@@PAV1@@@UAEXAAVCArchive@@@Z 00495d80 f i ToolkitPro1501vc60S:XTPKeyboardManager.obj
 0001:00094d80       ?Serialize@?$CList@PAVCXTPHookManagerHookAble@@PAV1@@@UAEXAAVCArchive@@@Z 00495d80 f i ToolkitPro1501vc60S:XTPKeyboardManager.obj
 0001:00094d80       ?Serialize@?$CList@PAVCXTPDockingPaneBase@@PAV1@@@UAEXAAVCArchive@@@Z 00495d80 f i ToolkitPro1501vc60S:XTPKeyboardManager.obj
 0001:00094d80       ?Serialize@?$CList@PAVCXTPDockingPaneContextStickerWnd@@PAV1@@@UAEXAAVCArchive@@@Z 00495d80 f i ToolkitPro1501vc60S:XTPKeyboardManager.obj
 0001:00094ea0       ??_E?$CList@PAVCXTPHookManagerHookAble@@PAV1@@@UAEPAXI@Z 00495ea0 f i ToolkitPro1501vc60S:XTPKeyboardManager.obj
 0001:00094ea0       ??_G?$CList@PAVCXTPHookManagerHookAble@@PAV1@@@UAEPAXI@Z 00495ea0 f i ToolkitPro1501vc60S:XTPKeyboardManager.obj
 0001:00094ef0       ?CreateObject@CXTPRibbonBar@@SGPAVCObject@@XZ 00495ef0 f   ToolkitPro1501vc60S:XTPRibbonBar.obj
 0001:00094f50       ?GetRuntimeClass@CXTPRibbonBar@@UBEPAUCRuntimeClass@@XZ 00495f50 f   ToolkitPro1501vc60S:XTPRibbonBar.obj
 0001:00094f80       ?Clone@CXTPRibbonBar@@UAEPAVCXTPCommandBar@@H@Z 00495f80 f   ToolkitPro1501vc60S:XTPRibbonBar.obj
 0001:00094fb0       ?GetRuntimeClass@CXTPRibbonBarControlCaptionButton@@UBEPAUCRuntimeClass@@XZ 00495fb0 f   ToolkitPro1501vc60S:XTPRibbonBar.obj
 0001:00094fc0       ?CreateObject@CXTPRibbonBarControlQuickAccessPopup@@SGPAVCObject@@XZ 00495fc0 f   ToolkitPro1501vc60S:XTPRibbonBar.obj
 0001:00095030       ?Draw@CXTPRibbonBarControlQuickAccessPopup@@UAEXPAVCDC@@@Z 00496030 f i ToolkitPro1501vc60S:XTPRibbonBar.obj
 0001:00095060       ?OnSetPopup@CXTPRibbonBarControlQuickAccessPopup@@UAEHH@Z 00496060 f i ToolkitPro1501vc60S:XTPRibbonBar.obj
 0001:000950b0       ?GetRuntimeClass@CXTPRibbonBarControlQuickAccessPopup@@UBEPAUCRuntimeClass@@XZ 004960b0 f   ToolkitPro1501vc60S:XTPRibbonBar.obj
 0001:000950e0       ?Clone@CXTPRibbonBarControlQuickAccessPopup@@UAEPAVCXTPControl@@H@Z 004960e0 f   ToolkitPro1501vc60S:XTPRibbonBar.obj
 0001:00095110       ??0CXTPRibbonBar@@QAE@XZ   00496110 f   ToolkitPro1501vc60S:XTPRibbonBar.obj
 0001:00095430       ?GetGroupsRect@CXTPRibbonBar@@UBE?AVCRect@@XZ 00496430 f i ToolkitPro1501vc60S:XTPRibbonBar.obj
 0001:00095460       ?GetSize@CControlQuickAccessMorePopup@CXTPRibbonBar@@UAE?AVCSize@@PAVCDC@@@Z 00496460 f i ToolkitPro1501vc60S:XTPRibbonBar.obj
 0001:00095460       ?GetSize@CXTPRibbonBarControlQuickAccessPopup@@UAE?AVCSize@@PAVCDC@@@Z 00496460 f i ToolkitPro1501vc60S:XTPRibbonBar.obj
 0001:000954b0       ?Draw@CControlQuickAccessMorePopup@CXTPRibbonBar@@UAEXPAVCDC@@@Z 004964b0 f i ToolkitPro1501vc60S:XTPRibbonBar.obj
 0001:000954e0       ?OnSetPopup@CControlQuickAccessMorePopup@CXTPRibbonBar@@UAEHH@Z 004964e0 f i ToolkitPro1501vc60S:XTPRibbonBar.obj
 0001:00095520       ??_ECXTPRibbonBar@@UAEPAXI@Z 00496520 f i ToolkitPro1501vc60S:XTPRibbonBar.obj
 0001:00095520       ??_GCXTPRibbonBar@@UAEPAXI@Z 00496520 f i ToolkitPro1501vc60S:XTPRibbonBar.obj
 0001:00095540       ?GetRibbonPaintManager@CXTPRibbonBar@@QBEPAVCXTPRibbonPaintManager@@XZ 00496540 f   ToolkitPro1501vc60S:XTPRibbonBar.obj
 0001:00095550       ??1CXTPRibbonBar@@UAE@XZ   00496550 f   ToolkitPro1501vc60S:XTPRibbonBar.obj
 0001:00095640       ?OnRemoved@CXTPRibbonBar@@UAEXXZ 00496640 f   ToolkitPro1501vc60S:XTPRibbonBar.obj
 0001:00095690       ?IsFrameThemeEnabled@CXTPRibbonBar@@QBEHXZ 00496690 f   ToolkitPro1501vc60S:XTPRibbonBar.obj
 0001:000956a0       ?GetSelectedTab@CXTPRibbonBar@@QBEPAVCXTPRibbonTab@@XZ 004966a0 f   ToolkitPro1501vc60S:XTPRibbonBar.obj
 0001:000956c0       ?OnTabChanging@CXTPRibbonBar@@MAEHPAVCXTPRibbonTab@@@Z 004966c0 f   ToolkitPro1501vc60S:XTPRibbonBar.obj
 0001:000956f0       ?OnTabChanged@CXTPRibbonBar@@MAEXPAVCXTPRibbonTab@@@Z 004966f0 f   ToolkitPro1501vc60S:XTPRibbonBar.obj
 0001:00095720       ?CreateTabPopupToolBar@CXTPRibbonBar@@MAEPAVCXTPRibbonTabPopupToolBar@@PAVCXTPRibbonTab@@@Z 00496720 f   ToolkitPro1501vc60S:XTPRibbonBar.obj
 0001:00095790       ?SetCurSel@CXTPRibbonBar@@QAEXH@Z 00496790 f   ToolkitPro1501vc60S:XTPRibbonBar.obj
 0001:000957b0       ?RebuildControls@CXTPRibbonBar@@QAEXPAVCXTPRibbonTab@@@Z 004967b0 f   ToolkitPro1501vc60S:XTPRibbonBar.obj
 0001:00095840       ?GetMessageMap@CXTPRibbonBar@@MBEPBUAFX_MSGMAP@@XZ 00496840 f   ToolkitPro1501vc60S:XTPRibbonBar.obj
 0001:00095850       ?OnCreate@CXTPRibbonBar@@IAEHPAUtagCREATESTRUCTA@@@Z 00496850 f   ToolkitPro1501vc60S:XTPRibbonBar.obj
 0001:00095880       ?OnShowWindow@CXTPRibbonBar@@IAEXHI@Z 00496880 f   ToolkitPro1501vc60S:XTPRibbonBar.obj
 0001:000958c0       ?SetVisible@CXTPRibbonBar@@UAEXH@Z 004968c0 f   ToolkitPro1501vc60S:XTPRibbonBar.obj
 0001:00095910       ?GetQuickAccessHeight@CXTPRibbonBar@@QBEHXZ 00496910 f   ToolkitPro1501vc60S:XTPRibbonBar.obj
 0001:00095920       ?CalcQuickAccessHeight@CXTPRibbonBar@@QAEHXZ 00496920 f   ToolkitPro1501vc60S:XTPRibbonBar.obj
 0001:00095a20       ?CalcDockingLayout@CXTPRibbonBar@@UAE?AVCSize@@HKH@Z 00496a20 f   ToolkitPro1501vc60S:XTPRibbonBar.obj
 0001:00095b90       ?GetTabsHeight@CXTPRibbonBar@@UBEHXZ 00496b90 f   ToolkitPro1501vc60S:XTPRibbonBar.obj
 0001:00095bb0       ?CalcClientHeight@CXTPRibbonBar@@UAEHXZ 00496bb0 f   ToolkitPro1501vc60S:XTPRibbonBar.obj
 0001:00095bd0       ?CalcGroupsHeight@CXTPRibbonBar@@UAEHXZ 00496bd0 f   ToolkitPro1501vc60S:XTPRibbonBar.obj
 0001:00095c00       ?GetGroupsHeight@CXTPRibbonBar@@UAEHXZ 00496c00 f   ToolkitPro1501vc60S:XTPRibbonBar.obj
 0001:00095c20       ?IsGroupsVisible@CXTPRibbonBar@@QBEHXZ 00496c20 f   ToolkitPro1501vc60S:XTPRibbonBar.obj
 0001:00095c50       ?IsTabsVisible@CXTPRibbonBar@@QBEHXZ 00496c50 f   ToolkitPro1501vc60S:XTPRibbonBar.obj
 0001:00095c60       ?IsQuickAccessControl@CXTPRibbonBar@@QBEHPAVCXTPControl@@@Z 00496c60 f   ToolkitPro1501vc60S:XTPRibbonBar.obj
 0001:00095cd0       ?GetCaptionHeight@CXTPRibbonBar@@QBEHXZ 00496cd0 f   ToolkitPro1501vc60S:XTPRibbonBar.obj
 0001:00095d50       ?Reposition@CXTPRibbonBar@@QAEXHH@Z 00496d50 f   ToolkitPro1501vc60S:XTPRibbonBar.obj
 0001:00096a50       ?AddCaptionButton@CXTPRibbonBar@@IAEXHHHAAVCRect@@@Z 00497a50 f   ToolkitPro1501vc60S:XTPRibbonBar.obj
 0001:00096c90       ?Draw@CXTPRibbonBarControlCaptionButton@@MAEXPAVCDC@@@Z 00497c90 f i ToolkitPro1501vc60S:XTPRibbonBar.obj
 0001:00096d40       ?OnExecute@CXTPRibbonBarControlCaptionButton@@MAEXXZ 00497d40 f i ToolkitPro1501vc60S:XTPRibbonBar.obj
 0001:00096d70       ?ShrinkContextHeaders@CXTPRibbonBar@@IAEHHH@Z 00497d70 f   ToolkitPro1501vc60S:XTPRibbonBar.obj
 0001:00096e10       ?IsCaptionVisible@CXTPRibbonBar@@QBEHXZ 00497e10 f   ToolkitPro1501vc60S:XTPRibbonBar.obj
 0001:00096e40       ?RepositionContextHeaders@CXTPRibbonBar@@IAEXXZ 00497e40 f   ToolkitPro1501vc60S:XTPRibbonBar.obj
 0001:000971b0       ?GetRibbonTopBorder@CXTPRibbonBar@@QBEHXZ 004981b0 f   ToolkitPro1501vc60S:XTPRibbonBar.obj
 0001:000971d0       ?RepositionCaptionButtons@CXTPRibbonBar@@IAEXXZ 004981d0 f   ToolkitPro1501vc60S:XTPRibbonBar.obj
 0001:00097660       ?RepositionGroups@CXTPRibbonBar@@QAEXPAVCDC@@VCRect@@@Z 00498660 f   ToolkitPro1501vc60S:XTPRibbonBar.obj
 0001:00097710       ?EnsureVisible@CXTPRibbonBar@@UAEXPAVCXTPControl@@@Z 00498710 f   ToolkitPro1501vc60S:XTPRibbonBar.obj
 0001:000977e0       ?OnGroupsScroll@CXTPRibbonBar@@UAEXH@Z 004987e0 f   ToolkitPro1501vc60S:XTPRibbonBar.obj
 0001:00097850       ?GetTabPaintManager@CXTPRibbonBar@@QBEPAVCXTPTabPaintManager@@XZ 00498850 f   ToolkitPro1501vc60S:XTPRibbonBar.obj
 0001:00097860       ?DrawCommandBar@CXTPRibbonBar@@UAEXPAVCDC@@VCRect@@@Z 00498860 f   ToolkitPro1501vc60S:XTPRibbonBar.obj
 0001:00097d80       ?OnLButtonDblClk@CXTPRibbonBar@@IAEXIVCPoint@@@Z 00498d80 f   ToolkitPro1501vc60S:XTPRibbonBar.obj
 0001:00097eb0       ?HitTestCaption@CXTPRibbonBar@@IBEHVCPoint@@@Z 00498eb0 f   ToolkitPro1501vc60S:XTPRibbonBar.obj
 0001:00098010       ?OnSetCursor@CXTPRibbonBar@@IAEHPAVCWnd@@II@Z 00499010 f   ToolkitPro1501vc60S:XTPRibbonBar.obj
 0001:000980b0       ?IsBackstageViewVisible@CXTPRibbonBar@@QBEHXZ 004990b0 f   ToolkitPro1501vc60S:XTPRibbonBar.obj
 0001:00098120       ?OnLButtonDown@CXTPRibbonBar@@IAEXIVCPoint@@@Z 00499120 f   ToolkitPro1501vc60S:XTPRibbonBar.obj
 0001:00098450       ?IsRibbonMinimized@CXTPRibbonBar@@QBEHXZ 00499450 f   ToolkitPro1501vc60S:XTPRibbonBar.obj
 0001:00098460       ?SetRibbonMinimized@CXTPRibbonBar@@UAEXH@Z 00499460 f   ToolkitPro1501vc60S:XTPRibbonBar.obj
 0001:00098500       ?OnPopupRButtonUp@CXTPRibbonBar@@MAEXPAVCXTPCommandBar@@VCPoint@@@Z 00499500 f   ToolkitPro1501vc60S:XTPRibbonBar.obj
 0001:000985f0       ?OnRButtonUp@CXTPRibbonBar@@IAEXIVCPoint@@@Z 004995f0 f   ToolkitPro1501vc60S:XTPRibbonBar.obj
 0001:000987b0       ?OnSysColorChange@CXTPRibbonBar@@IAEXXZ 004997b0 f   ToolkitPro1501vc60S:XTPRibbonBar.obj
 0001:000987e0       ?RefreshSysButtons@CXTPRibbonBar@@MAEXXZ 004997e0 f   ToolkitPro1501vc60S:XTPRibbonBar.obj
 0001:00098880       ?OnToolHitTest@CXTPRibbonBar@@MBEHVCPoint@@PAUtagTOOLINFOA@@@Z 00499880 f   ToolkitPro1501vc60S:XTPRibbonBar.obj
 0001:00098930       ?HitTestGroup@CXTPRibbonBar@@UBEPAVCXTPRibbonGroup@@VCPoint@@@Z 00499930 f   ToolkitPro1501vc60S:XTPRibbonBar.obj
 0001:00098a50       ?IsDwmEnabled@CXTPRibbonBar@@QBEHXZ 00499a50 f   ToolkitPro1501vc60S:XTPRibbonBar.obj
 0001:00098a70       ?OnNcHitTest@CXTPRibbonBar@@IAEJVCPoint@@@Z 00499a70 f   ToolkitPro1501vc60S:XTPRibbonBar.obj
 0001:00098b50       ?OnMouseMove@CXTPRibbonBar@@IAEXIVCPoint@@@Z 00499b50 f   ToolkitPro1501vc60S:XTPRibbonBar.obj
 0001:00098c40       ?OnMouseLeave@CXTPRibbonBar@@IAEXXZ 00499c40 f   ToolkitPro1501vc60S:XTPRibbonBar.obj
 0001:00098c80       ?GetTab@CXTPRibbonBar@@QBEPAVCXTPRibbonTab@@H@Z 00499c80 f   ToolkitPro1501vc60S:XTPRibbonBar.obj
 0001:00098cb0       ?GetTabCount@CXTPRibbonBar@@QBEHXZ 00499cb0 f   ToolkitPro1501vc60S:XTPRibbonBar.obj
 0001:00098cc0       ?PreviewAccel@CXTPRibbonBar@@UAEHI@Z 00499cc0 f   ToolkitPro1501vc60S:XTPRibbonBar.obj
 0001:00098f70       ?IsKeyboardCuesVisible@CXTPRibbonBar@@UBEHXZ 00499f70 f   ToolkitPro1501vc60S:XTPRibbonBar.obj
 0001:00098fa0       ?SetTrackingMode@CXTPRibbonBar@@UAEHHHH@Z 00499fa0 f   ToolkitPro1501vc60S:XTPRibbonBar.obj
 0001:00099030       ?IsAllowQuickAccessControl@CXTPRibbonBar@@UAEHPAVCXTPControl@@@Z 0049a030 f   ToolkitPro1501vc60S:XTPRibbonBar.obj
 0001:000990c0       ?ShowContextMenu@CXTPRibbonBar@@IAEXVCPoint@@PAVCXTPControl@@@Z 0049a0c0 f   ToolkitPro1501vc60S:XTPRibbonBar.obj
 0001:000991a0       ?CreateMoreQuickAccessContextMenu@CXTPRibbonBar@@MAEPAVCXTPPopupBar@@XZ 0049a1a0 f   ToolkitPro1501vc60S:XTPRibbonBar.obj
 0001:00099290       ?CreateContextMenu@CXTPRibbonBar@@MAEPAVCXTPPopupBar@@PAVCXTPControl@@@Z 0049a290 f   ToolkitPro1501vc60S:XTPRibbonBar.obj
 0001:00099860       ?OnExecute@CControlQuickAccessCommand@CXTPRibbonBar@@UAEXXZ 0049a860 f i ToolkitPro1501vc60S:XTPRibbonBar.obj
 0001:000998d0       ?SelectNextTab@CXTPRibbonBar@@QAEXH@Z 0049a8d0 f   ToolkitPro1501vc60S:XTPRibbonBar.obj
 0001:00099900       ?OnHookMessage@CXTPRibbonBar@@UAEHPAUHWND__@@IAAIAAJ2@Z 0049a900 f   ToolkitPro1501vc60S:XTPRibbonBar.obj
 0001:00099a30       ?OnRButtonDown@CXTPRibbonBar@@IAEXIVCPoint@@@Z 0049aa30 f   ToolkitPro1501vc60S:XTPRibbonBar.obj
 0001:00099ab0       ?OnCustomizePlaceQuickAccess@CXTPRibbonBar@@IAEXI@Z 0049aab0 f   ToolkitPro1501vc60S:XTPRibbonBar.obj
 0001:00099ae0       ?OnCustomizeCommand@CXTPRibbonBar@@IAEJIJ@Z 0049aae0 f   ToolkitPro1501vc60S:XTPRibbonBar.obj
 0001:00099d20       ?AllowWhiteSpaceContent@CXTPMarkupTextBlock@@MBEHXZ 0049ad20 f   ToolkitPro1501vc60S:XTPRibbonBar.obj
 0001:00099d20       ?IsComCtlValid@CXTPAuxData@@QBEHXZ 0049ad20 f   ToolkitPro1501vc60S:XTPRibbonBar.obj
 0001:00099d20       ?AllowWhiteSpaceContent@CXTPMarkupSpan@@MBEHXZ 0049ad20 f   ToolkitPro1501vc60S:XTPRibbonBar.obj
 0001:00099d20       ?ShouldSerializeBar@CXTPRibbonBar@@MAEHXZ 0049ad20 f   ToolkitPro1501vc60S:XTPRibbonBar.obj
 0001:00099d20       ?IsFocusable@CXTPControlComboBox@@MBEHXZ 0049ad20 f   ToolkitPro1501vc60S:XTPRibbonBar.obj
 0001:00099d20       ?IsFocusable@CXTPRibbonControlTab@@MBEHXZ 0049ad20 f   ToolkitPro1501vc60S:XTPRibbonBar.obj
