 ма╨ю╫П

 Timestamp is 52944519 (Tue Nov 26 14:52:09 2013)

 Preferred load address is 00400000

 Start         Length     Name                   Class
 0001:00000000 001770c2H .text                   CODE
 0001:001770c2 000014e5H .text$AFX_AUX           CODE
 0001:001785a7 0000116eH .text$AFX_CMNCTL        CODE
 0001:00179720 0000077dH .text$AFX_COL1          CODE
 0001:00179e9d 00000682H .text$AFX_COL2          CODE
 0001:0017a51f 00007d6fH .text$AFX_CORE1         CODE
 0001:0018228e 00003c72H .text$AFX_CORE2         CODE
 0001:00185f00 00006152H .text$AFX_CORE3         CODE
 0001:0018c052 000060bdH .text$AFX_CORE4         CODE
 0001:0019210f 0000111aH .text$AFX_INET          CODE
 0001:00193229 00003de9H .text$AFX_INIT          CODE
 0001:00197012 0000064eH .text$AFX_OLE1          CODE
 0001:00197660 00000222H .text$AFX_OLE2          CODE
 0001:00197882 00000524H .text$AFX_OLE3          CODE
 0001:00197da6 00000ba6H .text$AFX_OLE4          CODE
 0001:0019894c 0000183bH .text$AFX_OLE5          CODE
 0001:0019a187 00000000H .text$AFX_PRNT          CODE
 0001:0019a187 00000266H .text$AFX_TERM          CODE
 0001:0019a3f0 00014711H .text$x                 CODE
 0002:00000000 00000ac0H .idata$5                DATA
 0002:00000ac0 00024678H .rdata                  DATA
 0002:00025138 000029dcH .rdata$r                DATA
 0002:00027b18 0001a850H .xdata$x                DATA
 0002:00042368 00000190H .idata$2                DATA
 0002:000424f8 00000014H .idata$3                DATA
 0002:0004250c 00000ac0H .idata$4                DATA
 0002:00042fcc 00002b80H .idata$6                DATA
 0002:00045b4c 00000000H .edata                  DATA
 0003:00000000 00000004H .CRT$XCA                DATA
 0003:00000004 00000030H .CRT$XCC                DATA
 0003:00000034 0000001cH .CRT$XCL                DATA
 0003:00000050 00000560H .CRT$XCU                DATA
 0003:000005b0 00000004H .CRT$XCZ                DATA
 0003:000005b4 00000004H .CRT$XIA                DATA
 0003:000005b8 0000000cH .CRT$XIC                DATA
 0003:000005c4 00000004H .CRT$XIY                DATA
 0003:000005c8 00000004H .CRT$XIZ                DATA
 0003:000005cc 00000004H .CRT$XPA                DATA
 0003:000005d0 00000004H .CRT$XPX                DATA
 0003:000005d4 00000004H .CRT$XPZ                DATA
 0003:000005d8 00000004H .CRT$XTA                DATA
 0003:000005dc 00000004H .CRT$XTB                DATA
 0003:000005e0 00000004H .CRT$XTZ                DATA
 0003:000005f0 00022faaH .data                   DATA
 0003:000235a0 00008688H .bss                    DATA
 0004:00000000 00007484H .rsrc$01                DATA
 0004:00007490 00164268H .rsrc$02                DATA

  Address         Publics by Value              Rva+Base     Lib:Object

 0001:00000000       ??0CAudio@@QAE@XZ          00401000 f   Audio.obj
 0001:00000163       ??1CAudio@@UAE@XZ          00401163 f   Audio.obj
 0001:000002ee       ?getRecordBuffer@CAudio@@QAEPAEPAK@Z 004012ee f   Audio.obj
 0001:0000035a       ?playBuffer@CAudio@@QAE_NPAEK@Z 0040135a f   Audio.obj
 0001:000003fa       ?InitializeWaveIn@CAudio@@AAE_NXZ 004013fa f   Audio.obj
 0001:00000531       ?InitializeWaveOut@CAudio@@AAE_NXZ 00401531 f   Audio.obj
 0001:0000063c       ?waveInCallBack@CAudio@@CGKPAX@Z 0040163c f   Audio.obj
 0001:000006f0       ??_GCAudio@@UAEPAXI@Z      004016f0 f i Audio.obj
 0001:000006f0       ??_ECAudio@@UAEPAXI@Z      004016f0 f i Audio.obj
 0001:00000720       ??0CAudioDlg@@QAE@PAVCWnd@@PAVCIOCPServer@@PAUClientContext@@@Z 00401720 f   AudioDlg.obj
 0001:00000873       ?DoDataExchange@CAudioDlg@@MAEXPAVCDataExchange@@@Z 00401873 f   AudioDlg.obj
 0001:000008bb       ?GetMessageMap@CAudioDlg@@MBEPBUAFX_MSGMAP@@XZ 004018bb f   AudioDlg.obj
 0001:000008cb       ?OnInitDialog@CAudioDlg@@MAEHXZ 004018cb f   AudioDlg.obj
 0001:000009e7       ?OnReceiveComplete@CAudioDlg@@QAEXXZ 004019e7 f   AudioDlg.obj
 0001:00000af3       ?OnReceive@CAudioDlg@@QAEXXZ 00401af3 f   AudioDlg.obj
 0001:00000afe       ?OnClose@CAudioDlg@@IAEXXZ 00401afe f   AudioDlg.obj
 0001:00000b3c       ?OnSendLocalaudio@CAudioDlg@@IAEXXZ 00401b3c f   AudioDlg.obj
 0001:00000b51       ?WorkThread@CAudioDlg@@CGKPAX@Z 00401b51 f   AudioDlg.obj
 0001:00000c80       ??_ECAudioDlg@@UAEPAXI@Z   00401c80 f i AudioDlg.obj
 0001:00000c80       ??_GCAudioDlg@@UAEPAXI@Z   00401c80 f i AudioDlg.obj
 0001:00000cb0       ??1CAudioDlg@@UAE@XZ       00401cb0 f i AudioDlg.obj
 0001:00000d40       ?Serialize@CObject@@UAEXAAVCArchive@@@Z 00401d40 f i AudioDlg.obj
 0001:00000d50       ??3CObject@@SGXPAX@Z       00401d50 f i AudioDlg.obj
 0001:00000d70       ??0CString@@QAE@XZ         00401d70 f i AudioDlg.obj
 0001:00000d90       ??BCString@@QBEPBDXZ       00401d90 f i AudioDlg.obj
 0001:00000da0       ?AfxGetInstanceHandle@@YGPAUHINSTANCE__@@XZ 00401da0 f i AudioDlg.obj
 0001:00000db0       ?SetIcon@CWnd@@QAEPAUHICON__@@PAU2@H@Z 00401db0 f i AudioDlg.obj
 0001:00000de0       ?OnPaint@CWnd@@IAEXXZ      00401de0 f i AudioDlg.obj
 0001:00000de0       ?OnClose@CWnd@@IAEXXZ      00401de0 f i AudioDlg.obj
 0001:00000e00       ?DoDataExchange@CWnd@@MAEXPAVCDataExchange@@@Z 00401e00 f i AudioDlg.obj
 0001:00000e10       ?BeginModalState@CWnd@@UAEXXZ 00401e10 f i AudioDlg.obj
 0001:00000e30       ?EndModalState@CWnd@@UAEXXZ 00401e30 f i AudioDlg.obj
 0001:00000e50       ?SetFlatStyle@CXTPButton@@QAEXH@Z 00401e50 f i AudioDlg.obj
 0001:00000e70       ?RedrawButton@CXTPButton@@QAEXH@Z 00401e70 f i AudioDlg.obj
 0001:00000eb0       ?UpdateWindow@CWnd@@QAEXXZ 00401eb0 f i AudioDlg.obj
 0001:00000ed0       ?Invalidate@CWnd@@QAEXH@Z  00401ed0 f i AudioDlg.obj
 0001:00000ef0       ??0COleDateTime@@QAE@HHHHHH@Z 00401ef0 f i AudioDlg.obj
 0001:00000f20       ??0CBmpToAvi@@QAE@XZ       00401f20 f   BmpToAvi.obj
 0001:00000f50       ??1CBmpToAvi@@UAE@XZ       00401f50 f   BmpToAvi.obj
 0001:00000f69       ?Open@CBmpToAvi@@QAE_NPBDPAUtagBITMAPINFO@@@Z 00401f69 f   BmpToAvi.obj
 0001:0000103e       ?Write@CBmpToAvi@@QAE_NPAX@Z 0040203e f   BmpToAvi.obj
 0001:000010a3       ?Close@CBmpToAvi@@QAEXXZ   004020a3 f   BmpToAvi.obj
 0001:000011a0       ??_GCBmpToAvi@@UAEPAXI@Z   004021a0 f i BmpToAvi.obj
 0001:000011a0       ??_ECBmpToAvi@@UAEPAXI@Z   004021a0 f i BmpToAvi.obj
 0001:000011d0       ??0CBuffer@@QAE@XZ         004021d0 f   Buffer.obj
 0001:00001205       ??1CBuffer@@UAE@XZ         00402205 f   Buffer.obj
 0001:00001236       ?Write@CBuffer@@QAEHPAEI@Z 00402236 f   Buffer.obj
 0001:00001282       ?Insert@CBuffer@@QAEHPAEI@Z 00402282 f   Buffer.obj
 0001:000012f3       ?Read@CBuffer@@QAEIPAEI@Z  004022f3 f   Buffer.obj
 0001:0000138e       ?GetMemSize@CBuffer@@IAEIXZ 0040238e f   Buffer.obj
 0001:0000139f       ?GetBufferLen@CBuffer@@QAEIXZ 0040239f f   Buffer.obj
 0001:000013cb       ?ReAllocateBuffer@CBuffer@@IAEII@Z 004023cb f   Buffer.obj
 0001:00001499       ?DeAllocateBuffer@CBuffer@@IAEII@Z 00402499 f   Buffer.obj
 0001:0000156f       ?Scan@CBuffer@@QAEHPAEI@Z  0040256f f   Buffer.obj
 0001:000015d5       ?ClearBuffer@CBuffer@@QAEXXZ 004025d5 f   Buffer.obj
 0001:000015f9       ?Write@CBuffer@@QAEHAAVCString@@@Z 004025f9 f   Buffer.obj
 0001:0000162c       ?Insert@CBuffer@@QAEHAAVCString@@@Z 0040262c f   Buffer.obj
 0001:0000165f       ?Copy@CBuffer@@QAEXAAV1@@Z 0040265f f   Buffer.obj
 0001:000016ca       ?GetBuffer@CBuffer@@QAEPAEI@Z 004026ca f   Buffer.obj
 0001:000016e0       ?FileWrite@CBuffer@@QAEXABVCString@@@Z 004026e0 f   Buffer.obj
 0001:00001768       ?Delete@CBuffer@@QAEII@Z   00402768 f   Buffer.obj
 0001:000018a0       ??_ECBuffer@@UAEPAXI@Z     004028a0 f i Buffer.obj
 0001:000018a0       ??_GCBuffer@@UAEPAXI@Z     004028a0 f i Buffer.obj
 0001:000018d0       ?GetLength@CString@@QBEHXZ 004028d0 f i Buffer.obj
 0001:000018f0       ?GetData@CString@@IBEPAUCStringData@@XZ 004028f0 f i Buffer.obj
 0001:00001910       ?base64_encode@@YAHPBXHPAPAD@Z 00402910 f   Build.obj
 0001:00001a7b       ?MyEncode@@YAPADPAD@Z      00402a7b f   Build.obj
 0001:00001b1f       ?MD5String@@YAPADPAD@Z     00402b1f f   Build.obj
 0001:00002e35       ??0CBuild@@QAE@PAVCWnd@@@Z 00403e35 f   Build.obj
 0001:00002f8e       ?DoDataExchange@CBuild@@MAEXPAVCDataExchange@@@Z 00403f8e f   Build.obj
 0001:00003091       ?GetMessageMap@CBuild@@MBEPBUAFX_MSGMAP@@XZ 00404091 f   Build.obj
 0001:000030a1       ?StrAdd@@YAPADXZ           004040a1 f   Build.obj
 0001:00003214       ?OnInitDialog@CBuild@@MAEHXZ 00404214 f   Build.obj
 0001:00003c81       ?MemFindStr@@YAHPBD0HH@Z   00404c81 f   Build.obj
 0001:00003d0c       ?OnBuild@CBuild@@IAEXXZ    00404d0c f   Build.obj
 0001:00004b51       ?OnGreen@CBuild@@IAEXXZ    00405b51 f   Build.obj
 0001:00004bf4       ?OnSelchangeInstallWay@CBuild@@IAEXXZ 00405bf4 f   Build.obj
 0001:00004de0       ??_ECBuild@@UAEPAXI@Z      00405de0 f i Build.obj
 0001:00004de0       ??_GCBuild@@UAEPAXI@Z      00405de0 f i Build.obj
 0001:00004e10       ??1CBuild@@UAE@XZ          00405e10 f i Build.obj
 0001:00004ef0       ??1CFileDialog@@UAE@XZ     00405ef0 f i Build.obj
 0001:00004f40       ?ReadHuge@CFile@@QAEKPAXK@Z 00405f40 f i Build.obj
 0001:00004f60       ?IsEmpty@CString@@QBEHXZ   00405f60 f i Build.obj
 0001:00004f80       ??8@YG_NABVCString@@PBD@Z  00405f80 f i Build.obj
 0001:00004fa0       ?Compare@CString@@QBEHPBD@Z 00405fa0 f i Build.obj
 0001:00004fc0       __tcscmp                   00405fc0 f i Build.obj
 0001:00004fe0       ?AfxGetApp@@YGPAVCWinApp@@XZ 00405fe0 f i Build.obj
 0001:00004ff0       ?GetCheck@CButton@@QBEHXZ  00405ff0 f i Build.obj
 0001:00005020       ??0CComboBox@@QAE@XZ       00406020 f i Build.obj
 0001:00005040       ??_ECComboBox@@UAEPAXI@Z   00406040 f i Build.obj
 0001:00005040       ??_GCComboBox@@UAEPAXI@Z   00406040 f i Build.obj
 0001:00005070       ?GetCurSel@CComboBox@@QBEHXZ 00406070 f i Build.obj
 0001:000050a0       ?SetCurSel@CComboBox@@QAEHH@Z 004060a0 f i Build.obj
 0001:000050d0       ?AddString@CComboBox@@QAEHPBD@Z 004060d0 f i Build.obj
 0001:00005100       ??0CEdit@@QAE@XZ           00406100 f i Build.obj
 0001:00005120       ??_GCEdit@@UAEPAXI@Z       00406120 f i Build.obj
 0001:00005120       ??_ECEdit@@UAEPAXI@Z       00406120 f i Build.obj
 0001:00005150       ?GetItemCount@CXTPTabManager@@QBEHXZ 00406150 f i Build.obj
 0001:00005170       ?GetSize@?$CArray@PAVCXTPTabManagerItem@@PAV1@@@QBEHXZ 00406170 f i Build.obj
 0001:00005170       ?GetSize@?$CArray@UstDropDownInfo@CTrueColorToolBar@@AAU12@@@QBEHXZ 00406170 f i Build.obj
 0001:00005190       ?GetItem@CXTPTabManager@@QBEPAVCXTPTabManagerItem@@H@Z 00406190 f i Build.obj
 0001:000051d0       ??A?$CArray@PAVCXTPTabManagerItem@@PAV1@@@QBEPAVCXTPTabManagerItem@@H@Z 004061d0 f i Build.obj
 0001:000051f0       ?GetAt@?$CArray@PAVCXTPTabManagerItem@@PAV1@@@QBEPAVCXTPTabManagerItem@@H@Z 004061f0 f i Build.obj
 0001:00005210       ??0CChangeGroup@@QAE@PAVCWnd@@@Z 00406210 f   ChangeGroup.obj
 0001:00005281       ?DoDataExchange@CChangeGroup@@MAEXPAVCDataExchange@@@Z 00406281 f   ChangeGroup.obj
 0001:000052af       ?GetMessageMap@CChangeGroup@@MBEPBUAFX_MSGMAP@@XZ 004062af f   ChangeGroup.obj
 0001:000052bf       ?OnInitDialog@CChangeGroup@@MAEHXZ 004062bf f   ChangeGroup.obj
 0001:00005420       ?PreTranslateMessage@CChangeGroup@@UAEHPAUtagMSG@@@Z 00406420 f   ChangeGroup.obj
 0001:00005473       ?OnOK@CChangeGroup@@MAEXXZ 00406473 f   ChangeGroup.obj
 0001:000056b0       ??_GCChangeGroup@@UAEPAXI@Z 004066b0 f i ChangeGroup.obj
 0001:000056b0       ??_ECChangeGroup@@UAEPAXI@Z 004066b0 f i ChangeGroup.obj
 0001:000056e0       ??1CChangeGroup@@UAE@XZ    004066e0 f i ChangeGroup.obj
 0001:00005740       ??8@YG_NABVCString@@0@Z    00406740 f i ChangeGroup.obj
 0001:00005760       ?GetSelectedItem@CXTPTabManager@@QBEPAVCXTPTabManagerItem@@XZ 00406760 f i ChangeGroup.obj
 0001:00005760       ?GetHeadPosition@?$CList@PAUClientContext@@PAU1@@@QBEPAU__POSITION@@XZ 00406760 f i ChangeGroup.obj
 0001:00005780       ?dbg_dump@@YAXPAU_EXCEPTION_POINTERS@@@Z 00406780 f   Client.obj
 0001:00005866       ?bad_exception@@YGJPAU_EXCEPTION_POINTERS@@@Z 00406866 f   Client.obj
 0001:0000587e       ?GetMessageMap@CClientApp@@MBEPBUAFX_MSGMAP@@XZ 0040687e f   Client.obj
 0001:0000588e       ??0CClientApp@@QAE@XZ      0040688e f   Client.obj
 0001:00005a93       ?InitInstance@CClientApp@@UAEHXZ 00406a93 f   Client.obj
 0001:00005d8a       ??0CAboutDlg@@QAE@XZ       00406d8a f   Client.obj
 0001:00005dad       ?DoDataExchange@CAboutDlg@@MAEXPAVCDataExchange@@@Z 00406dad f   Client.obj
 0001:00005dc6       ?GetMessageMap@CAboutDlg@@MBEPBUAFX_MSGMAP@@XZ 00406dc6 f   Client.obj
 0001:00005dd6       ?OnAppAbout@CClientApp@@QAEXXZ 00406dd6 f   Client.obj
 0001:00005ee0       ??_ECClientApp@@UAEPAXI@Z  00406ee0 f i Client.obj
 0001:00005ee0       ??_GCClientApp@@UAEPAXI@Z  00406ee0 f i Client.obj
 0001:00005f10       ??1CClientApp@@UAE@XZ      00406f10 f i Client.obj
 0001:00005f60       ??_GCAboutDlg@@UAEPAXI@Z   00406f60 f i Client.obj
 0001:00005f60       ??_ECLOCKDlg@@UAEPAXI@Z    00406f60 f i Client.obj
 0001:00005f60       ??_ECSkin@@UAEPAXI@Z       00406f60 f i Client.obj
 0001:00005f60       ??_ECAboutDlg@@UAEPAXI@Z   00406f60 f i Client.obj
 0001:00005f60       ??_GCSkin@@UAEPAXI@Z       00406f60 f i Client.obj
 0001:00005f60       ??_GCLOCKDlg@@UAEPAXI@Z    00406f60 f i Client.obj
 0001:00005f90       ??1CCommonDialog@@UAE@XZ   00406f90 f i Client.obj
 0001:00005f90       ??1CLOCKDlg@@UAE@XZ        00406f90 f i Client.obj
 0001:00005f90       ??1CSkin@@UAE@XZ           00406f90 f i Client.obj
 0001:00005f90       ??1CAboutDlg@@UAE@XZ       00406f90 f i Client.obj
 0001:00005fb0       ??2CObject@@SGPAXI@Z       00406fb0 f i Client.obj
 0001:00005fd0       ?CreateObject@CClientDoc@@SGPAVCObject@@XZ 00406fd0 f   ClientDoc.obj
 0001:00006034       ?GetRuntimeClass@CClientDoc@@UBEPAUCRuntimeClass@@XZ 00407034 f   ClientDoc.obj
 0001:00006044       ?GetMessageMap@CClientDoc@@MBEPBUAFX_MSGMAP@@XZ 00407044 f   ClientDoc.obj
 0001:00006054       ??0CClientDoc@@IAE@XZ      00407054 f   ClientDoc.obj
 0001:00006073       ??1CClientDoc@@UAE@XZ      00407073 f   ClientDoc.obj
 0001:0000608f       ?Serialize@CClientDoc@@UAEXAAVCArchive@@@Z 0040708f f   ClientDoc.obj
 0001:00006160       ??_GCClientDoc@@UAEPAXI@Z  00407160 f i ClientDoc.obj
 0001:00006160       ??_ECClientDoc@@UAEPAXI@Z  00407160 f i ClientDoc.obj
 0001:00006190       ?IsStoring@CArchive@@QBEHXZ 00407190 f i ClientDoc.obj
 0001:000061b0       ?IsModified@CDocument@@UAEHXZ 004071b0 f i ClientDoc.obj
 0001:000061d0       ?SetModifiedFlag@CDocument@@UAEXH@Z 004071d0 f i ClientDoc.obj
 0001:000061f0       ?CreateObject@CClientView@@SGPAVCObject@@XZ 004071f0 f   ClientView.obj
 0001:00006257       ?GetRuntimeClass@CClientView@@UBEPAUCRuntimeClass@@XZ 00407257 f   ClientView.obj
 0001:00006267       ?GetMessageMap@CClientView@@MBEPBUAFX_MSGMAP@@XZ 00407267 f   ClientView.obj
 0001:00006277       ??0CClientView@@IAE@XZ     00407277 f   ClientView.obj
 0001:000063a0       ??1CClientView@@UAE@XZ     004073a0 f   ClientView.obj
 0001:00006425       ?PreCreateWindow@CClientView@@MAEHAAUtagCREATESTRUCTA@@@Z 00407425 f   ClientView.obj
 0001:0000644d       ?OnDraw@CClientView@@MAEXPAVCDC@@@Z 0040744d f   ClientView.obj
 0001:00006467       ?OnInitialUpdate@CClientView@@UAEXXZ 00407467 f   ClientView.obj
 0001:00006644       ?NewInitialUpdate@CClientView@@QAEXXZ 00407644 f   ClientView.obj
 0001:00006821       ?OnSize@CClientView@@IAEXIHH@Z 00407821 f   ClientView.obj
 0001:000068b5       ?SortColumn@CClientView@@IAEXH_N@Z 004078b5 f   ClientView.obj
 0001:00006943       ?OnNotify@CClientView@@MAEHIJPAJ@Z 00407943 f   ClientView.obj
 0001:000069a4       ?EnableControls@CClientView@@IAEXH@Z 004079a4 f   ClientView.obj
 0001:000069e0       ?ModifyDrawStyle@CClientView@@IAEXIH@Z 004079e0 f   ClientView.obj
 0001:00006a59       ?OnRButtonDown@CClientView@@IAEXIVCPoint@@@Z 00407a59 f   ClientView.obj
 0001:00006b1d       ?FindCountry@CClientView@@IAEHVCString@@@Z 00407b1d f   ClientView.obj
 0001:00007af5       ?OnAddToList@CClientView@@AAEJIJ@Z 00408af5 f   ClientView.obj
 0001:00008669       ?OnRemoveFromList@CClientView@@AAEJIJ@Z 00409669 f   ClientView.obj
 0001:00008be6       ?OnChangegroup@CClientView@@IAEXXZ 00409be6 f   ClientView.obj
 0001:00009693       ?SendSelectCommand@CClientView@@QAEXPAEI@Z 0040a693 f   ClientView.obj
 0001:00009707       ?OnOpenManagerDialog@CClientView@@AAEJIJ@Z 0040a707 f   ClientView.obj
 0001:000097c0       ?OnOpenScreenSpyDialog@CClientView@@AAEJIJ@Z 0040a7c0 f   ClientView.obj
 0001:00009879       ?OnOpenWebCamDialog@CClientView@@AAEJIJ@Z 0040a879 f   ClientView.obj
 0001:00009932       ?OnOpenAudioDialog@CClientView@@AAEJIJ@Z 0040a932 f   ClientView.obj
 0001:000099eb       ?OnOpenKeyBoardDialog@CClientView@@AAEJIJ@Z 0040a9eb f   ClientView.obj
 0001:00009aa4       ?OnOpenSystemDialog@CClientView@@AAEJIJ@Z 0040aaa4 f   ClientView.obj
 0001:00009b5d       ?OnOpenShellDialog@CClientView@@AAEJIJ@Z 0040ab5d f   ClientView.obj
 0001:00009c16       ?OnFilemanager@CClientView@@IAEXXZ 0040ac16 f   ClientView.obj
 0001:00009c35       ?OnScreenspy@CClientView@@IAEXXZ 0040ac35 f   ClientView.obj
 0001:00009c54       ?OnWebcam@CClientView@@IAEXXZ 0040ac54 f   ClientView.obj
 0001:00009c73       ?OnAudioListen@CClientView@@IAEXXZ 0040ac73 f   ClientView.obj
 0001:00009c92       ?OnDownexec@CClientView@@IAEXXZ 0040ac92 f   ClientView.obj
 0001:00009df3       ?OnRemove@CClientView@@IAEXXZ 0040adf3 f   ClientView.obj
 0001:00009e2d       ?OnKeyboard@CClientView@@IAEXXZ 0040ae2d f   ClientView.obj
 0001:00009e4c       ?OnSystem@CClientView@@IAEXXZ 0040ae4c f   ClientView.obj
 0001:00009e6b       ?OnRemoteshell@CClientView@@IAEXXZ 0040ae6b f   ClientView.obj
 0001:00009e8a       ?OnLogoff@CClientView@@IAEXXZ 0040ae8a f   ClientView.obj
 0001:00009ec8       ?OnReboot@CClientView@@IAEXXZ 0040aec8 f   ClientView.obj
 0001:00009f06       ?OnShutdown@CClientView@@IAEXXZ 0040af06 f   ClientView.obj
 0001:00009f44       ?OnSelectAll@CClientView@@IAEXXZ 0040af44 f   ClientView.obj
 0001:00009fa2       ?OnUnselectAll@CClientView@@IAEXXZ 0040afa2 f   ClientView.obj
 0001:0000a000       ?OnOpenUrlHide@CClientView@@IAEXXZ 0040b000 f   ClientView.obj
 0001:0000a161       ?OnOpenUrlShow@CClientView@@IAEXXZ 0040b161 f   ClientView.obj
 0001:0000a2c2       ?OnCleanevent@CClientView@@IAEXXZ 0040b2c2 f   ClientView.obj
 0001:0000a2e1       ?OnRenameRemark@CClientView@@IAEXXZ 0040b2e1 f   ClientView.obj
 0001:0000a52a       ?OnUpdateServer@CClientView@@IAEXXZ 0040b52a f   ClientView.obj
 0001:0000a68b       ?OnDisconnect@CClientView@@IAEXXZ 0040b68b f   ClientView.obj
 0001:0000a9db       ?OnShowmsg@CClientView@@IAEXXZ 0040b9db f   ClientView.obj
 0001:0000aa3e       ?OnSysinfo@CClientView@@IAEXXZ 0040ba3e f   ClientView.obj
 0001:0000aa5d       ?OnOpenSysInfoDialog@CClientView@@AAEJIJ@Z 0040ba5d f   ClientView.obj
 0001:0000abd0       ??_GCClientView@@UAEPAXI@Z 0040bbd0 f i ClientView.obj
 0001:0000abd0       ??_ECClientView@@UAEPAXI@Z 0040bbd0 f i ClientView.obj
 0001:0000ac00       ??0CInputDialog@@QAE@XZ    0040bc00 f i ClientView.obj
 0001:0000ac70       ??1CInputDialog@@UAE@XZ    0040bc70 f i ClientView.obj
 0001:0000ace0       ?DoDataExchange@CInputDialog@@MAEXPAVCDataExchange@@@Z 0040bce0 f i ClientView.obj
 0001:0000ad00       ??_ECInputDialog@@UAEPAXI@Z 0040bd00 f i ClientView.obj
 0001:0000ad00       ??_GCInputDialog@@UAEPAXI@Z 0040bd00 f i ClientView.obj
 0001:0000ad30       ??1CMsgBox@@UAE@XZ         0040bd30 f i ClientView.obj
 0001:0000ade0       ?AfxGetMainWnd@@YGPAVCWnd@@XZ 0040bde0 f i ClientView.obj
 0001:0000ae20       ??0CRect@@QAE@XZ           0040be20 f i ClientView.obj
 0001:0000ae20       ??0CPoint@@QAE@XZ          0040be20 f i ClientView.obj
 0001:0000ae20       ??0CObject@@IAE@XZ         0040be20 f i ClientView.obj
 0001:0000ae20       ?GetListCtrl@CListView@@QBEAAVCListCtrl@@XZ 0040be20 f i ClientView.obj
 0001:0000ae20       ??BCRect@@QAEPAUtagRECT@@XZ 0040be20 f i ClientView.obj
 0001:0000ae20       ??0CTime@@QAE@XZ           0040be20 f i ClientView.obj
 0001:0000ae30       ?Width@CRect@@QBEHXZ       0040be30 f i ClientView.obj
 0001:0000ae50       ?GetCommandBars@?$CXTPCommandBarsSiteBase@VCFrameWnd@@@@QBEPAVCXTPCommandBars@@XZ 0040be50 f i ClientView.obj
 0001:0000ae70       ??0CMenu@@QAE@XZ           0040be70 f i ClientView.obj
 0001:0000aea0       ??_GCMenu@@UAEPAXI@Z       0040bea0 f i ClientView.obj
 0001:0000aea0       ??_ECMenu@@UAEPAXI@Z       0040bea0 f i ClientView.obj
 0001:0000aed0       ??1CMenu@@UAE@XZ           0040bed0 f i ClientView.obj
 0001:0000af30       ??1CObject@@UAE@XZ         0040bf30 f i ClientView.obj
 0001:0000af40       ?GetMenuItemCount@CMenu@@QBEIXZ 0040bf40 f i ClientView.obj
 0001:0000af60       ?GetSubMenu@CMenu@@QBEPAV1@H@Z 0040bf60 f i ClientView.obj
 0001:0000af90       ?LoadMenuA@CMenu@@QAEHI@Z  0040bf90 f i ClientView.obj
 0001:0000afc0       ?AfxGetResourceHandle@@YGPAUHINSTANCE__@@XZ 0040bfc0 f i ClientView.obj
 0001:0000afd0       ?GetSafeHwnd@CWnd@@QBEPAUHWND__@@XZ 0040bfd0 f i ClientView.obj
 0001:0000b000       ?GetClientRect@CWnd@@QBEXPAUtagRECT@@@Z 0040c000 f i ClientView.obj
 0001:0000b020       ?RedrawWindow@CWnd@@QAEHPBUtagRECT@@PAVCRgn@@I@Z 0040c020 f i ClientView.obj
 0001:0000b050       ?GetSafeHandle@CGdiObject@@QBEPAXXZ 0040c050 f i ClientView.obj
 0001:0000b080       ?GetDesktopWindow@CWnd@@SGPAV1@XZ 0040c080 f i ClientView.obj
 0001:0000b0a0       ?OnLButtonUp@CWnd@@IAEXIVCPoint@@@Z 0040c0a0 f i ClientView.obj
 0001:0000b0a0       ?OnSize@CWnd@@IAEXIHH@Z    0040c0a0 f i ClientView.obj
 0001:0000b0a0       ?OnRButtonDown@CWnd@@IAEXIVCPoint@@@Z 0040c0a0 f i ClientView.obj
 0001:0000b0a0       ?OnMouseMove@CWnd@@IAEXIVCPoint@@@Z 0040c0a0 f i ClientView.obj
 0001:0000b0a0       ?OnMouseActivate@CWnd@@IAEHPAV1@II@Z 0040c0a0 f i ClientView.obj
 0001:0000b0c0       ?Create@CDialog@@QAEHIPAVCWnd@@@Z 0040c0c0 f i ClientView.obj
 0001:0000b0f0       ?GetDocument@CView@@QBEPAVCDocument@@XZ 0040c0f0 f i ClientView.obj
 0001:0000b110       ?GetItemCount@CListCtrl@@QBEHXZ 0040c110 f i ClientView.obj
 0001:0000b140       ?SetItemData@CListCtrl@@QAEHHK@Z 0040c140 f i ClientView.obj
 0001:0000b170       ?InsertItem@CListCtrl@@QAEHHPBDH@Z 0040c170 f i ClientView.obj
 0001:0000b1a0       ?DeleteItem@CListCtrl@@QAEHH@Z 0040c1a0 f i ClientView.obj
 0001:0000b1d0       ?GetFirstSelectedItemPosition@CListCtrl@@QBEPAU__POSITION@@XZ 0040c1d0 f i ClientView.obj
 0001:0000b1f0       ?GetNextItem@CListCtrl@@QBEHHH@Z 0040c1f0 f i ClientView.obj
 0001:0000b230       ?GetNextSelectedItem@CListCtrl@@QBEHAAPAU__POSITION@@@Z 0040c230 f i ClientView.obj
 0001:0000b270       ?SetColumnWidth@CListCtrl@@QAEHHH@Z 0040c270 f i ClientView.obj
 0001:0000b2b0       ?GetSelectedCount@CListCtrl@@QBEIXZ 0040c2b0 f i ClientView.obj
 0001:0000b2e0       ?GetItemCount@CHeaderCtrl@@QBEHXZ 0040c2e0 f i ClientView.obj
 0001:0000b310       ?SetExtendedStyle@CListCtrl@@QAEKK@Z 0040c310 f i ClientView.obj
 0001:0000b340       ?GetSelectionMark@CListCtrl@@QAEHXZ 0040c340 f i ClientView.obj
 0001:0000b370       ?EnablePopupMenus@CXTPHeaderCtrl@@QAEXH@Z 0040c370 f i ClientView.obj
 0001:0000b390       ?GetTheme@CXTPHeaderCtrl@@QAEPAVCXTPHeaderCtrlTheme@@XZ 0040c390 f i ClientView.obj
 0001:0000b3b0       ?DisableColumnSizing@CXTPListBase@@UAEX_N@Z 0040c3b0 f i ClientView.obj
 0001:0000b3d0       ?EnableUserSortColor@CXTPListBase@@QAEX_N@Z 0040c3d0 f i ClientView.obj
 0001:0000b3f0       ?GetExtendedStyle@CXTPListViewBase@@UAEKXZ 0040c3f0 f i ClientView.obj
 0001:0000b410       ?GetExtendedStyle@CXTPListBase@@UAEKXZ 0040c410 f i ClientView.obj
 0001:0000b440       ?SendMessageA@CWnd@@QAEJIIJ@Z 0040c440 f i ClientView.obj
 0001:0000b470       ?SetExtendedStyle@CXTPListViewBase@@UAEXK@Z 0040c470 f i ClientView.obj
 0001:0000b490       ?SetExtendedStyle@CXTPListBase@@UAEXK@Z 0040c490 f i ClientView.obj
 0001:0000b4d0       ?OnNotify@CXTPListViewBase@@MAEHIJPAJ@Z 0040c4d0 f i ClientView.obj
 0001:0000b500       ?Init@CXTPListViewBase@@MAE_NXZ 0040c500 f i ClientView.obj
 0001:0000b520       ?PreSubclassWindow@CXTPListViewBase@@MAEXXZ 0040c520 f i ClientView.obj
 0001:0000b560       ?PreCreateWindow@CXTPListViewBase@@MAEHAAUtagCREATESTRUCTA@@@Z 0040c560 f i ClientView.obj
 0001:0000b590       ??_ECClientView@@WEI@AEPAXI@Z 0040c590 f i ClientView.obj
 0001:0000b5a0       ?OnNotify@CClientView@@OEI@AEHIJPAJ@Z 0040c5a0 f i ClientView.obj
 0001:0000b5b0       ??0CCpuUsage@@QAE@XZ       0040c5b0 f   CpuUsage.obj
 0001:0000b5db       ??1CCpuUsage@@UAE@XZ       0040c5db f   CpuUsage.obj
 0001:0000b612       ?Init@CCpuUsage@@QAEHXZ    0040c612 f   CpuUsage.obj
 0001:0000b681       ?GetUsage@CCpuUsage@@QAEHXZ 0040c681 f   CpuUsage.obj
 0001:0000b770       ??_GCCpuUsage@@UAEPAXI@Z   0040c770 f i CpuUsage.obj
 0001:0000b770       ??_ECCpuUsage@@UAEPAXI@Z   0040c770 f i CpuUsage.obj
 0001:0000b7a0       ??0CFileManagerDlg@@QAE@PAVCWnd@@PAVCIOCPServer@@PAUClientContext@@@Z 0040c7a0 f   FileManagerDlg.obj
 0001:0000bb7d       ?DoDataExchange@CFileManagerDlg@@MAEXPAVCDataExchange@@@Z 0040cb7d f   FileManagerDlg.obj
 0001:0000bbf5       ?GetMessageMap@CFileManagerDlg@@MBEPBUAFX_MSGMAP@@XZ 0040cbf5 f   FileManagerDlg.obj
 0001:0000bc05       ?GetIconIndex@@YAHPBDK@Z   0040cc05 f   FileManagerDlg.obj
 0001:0000bc4e       ?OnInitDialog@CFileManagerDlg@@MAEHXZ 0040cc4e f   FileManagerDlg.obj
 0001:0000c0cc       ?OnSize@CFileManagerDlg@@IAEXIHH@Z 0040d0cc f   FileManagerDlg.obj
 0001:0000c24e       ?FixedLocalDriveList@CFileManagerDlg@@QAEXXZ 0040d24e f   FileManagerDlg.obj
 0001:0000c6be       ?OnDblclkListLocal@CFileManagerDlg@@IAEXPAUtagNMHDR@@PAJ@Z 0040d6be f   FileManagerDlg.obj
 0001:0000c727       ?FixedLocalFileList@CFileManagerDlg@@QAEXVCString@@@Z 0040d727 f   FileManagerDlg.obj
 0001:0000ce6f       ?DropItemOnList@CFileManagerDlg@@IAEXPAVCListCtrl@@0@Z 0040de6f f   FileManagerDlg.obj
 0001:0000ceda       ?OnQueryDragIcon@CFileManagerDlg@@IAEPAUHICON__@@XZ 0040deda f   FileManagerDlg.obj
 0001:0000ceee       ?OnBegindragListLocal@CFileManagerDlg@@IAEXPAUtagNMHDR@@PAJ@Z 0040deee f   FileManagerDlg.obj
 0001:0000d02d       ?OnBegindragListRemote@CFileManagerDlg@@IAEXPAUtagNMHDR@@PAJ@Z 0040e02d f   FileManagerDlg.obj
 0001:0000d16c       ?OnMouseMove@CFileManagerDlg@@IAEXIVCPoint@@@Z 0040e16c f   FileManagerDlg.obj
 0001:0000d373       ?OnLButtonUp@CFileManagerDlg@@IAEXIVCPoint@@@Z 0040e373 f   FileManagerDlg.obj
 0001:0000d426       ?PreTranslateMessage@CFileManagerDlg@@UAEHPAUtagMSG@@@Z 0040e426 f   FileManagerDlg.obj
 0001:0000d5b6       ?OnTimer@CFileManagerDlg@@IAEXI@Z 0040e5b6 f   FileManagerDlg.obj
 0001:0000d5dd       ?FixedRemoteDriveList@CFileManagerDlg@@QAEXXZ 0040e5dd f   FileManagerDlg.obj
 0001:0000daf3       ?OnClose@CFileManagerDlg@@IAEXXZ 0040eaf3 f   FileManagerDlg.obj
 0001:0000db2e       ?GetParentDirectory@CFileManagerDlg@@QAE?AVCString@@V2@@Z 0040eb2e f   FileManagerDlg.obj
 0001:0000dcf9       ?OnReceiveComplete@CFileManagerDlg@@QAEXXZ 0040ecf9 f   FileManagerDlg.obj
 0001:0000de16       ?GetRemoteFileList@CFileManagerDlg@@QAEXVCString@@@Z 0040ee16 f   FileManagerDlg.obj
 0001:0000e0da       ?OnDblclkListRemote@CFileManagerDlg@@IAEXPAUtagNMHDR@@PAJ@Z 0040f0da f   FileManagerDlg.obj
 0001:0000e143       ?FixedRemoteFileList@CFileManagerDlg@@QAEXPAEK@Z 0040f143 f   FileManagerDlg.obj
 0001:0000e6b2       ?ShowMessage@CFileManagerDlg@@QAAXPADZZ 0040f6b2 f   FileManagerDlg.obj
 0001:0000e71b       ?OnLocalPrev@CFileManagerDlg@@IAEXXZ 0040f71b f   FileManagerDlg.obj
 0001:0000e743       ?OnRemotePrev@CFileManagerDlg@@IAEXXZ 0040f743 f   FileManagerDlg.obj
 0001:0000e76b       ?OnLocalView@CFileManagerDlg@@IAEXXZ 0040f76b f   FileManagerDlg.obj
 0001:0000e78a       ?OnToolTipNotify@CFileManagerDlg@@IAEHIPAUtagNMHDR@@PAJ@Z 0040f78a f   FileManagerDlg.obj
 0001:0000e904       ?OnLocalList@CFileManagerDlg@@IAEXXZ 0040f904 f   FileManagerDlg.obj
 0001:0000e923       ?OnLocalReport@CFileManagerDlg@@IAEXXZ 0040f923 f   FileManagerDlg.obj
 0001:0000e942       ?OnLocalBigicon@CFileManagerDlg@@IAEXXZ 0040f942 f   FileManagerDlg.obj
 0001:0000e961       ?OnLocalSmallicon@CFileManagerDlg@@IAEXXZ 0040f961 f   FileManagerDlg.obj
 0001:0000e980       ?OnRemoteList@CFileManagerDlg@@IAEXXZ 0040f980 f   FileManagerDlg.obj
 0001:0000e99f       ?OnRemoteReport@CFileManagerDlg@@IAEXXZ 0040f99f f   FileManagerDlg.obj
 0001:0000e9be       ?OnRemoteBigicon@CFileManagerDlg@@IAEXXZ 0040f9be f   FileManagerDlg.obj
 0001:0000e9dd       ?OnRemoteSmallicon@CFileManagerDlg@@IAEXXZ 0040f9dd f   FileManagerDlg.obj
 0001:0000e9fc       ?OnRemoteView@CFileManagerDlg@@IAEXXZ 0040f9fc f   FileManagerDlg.obj
 0001:0000ea1b       ?OnUpdateLocalPrev@CFileManagerDlg@@IAEXPAVCCmdUI@@@Z 0040fa1b f   FileManagerDlg.obj
 0001:0000ea6c       ?OnUpdateLocalDelete@CFileManagerDlg@@IAEXPAVCCmdUI@@@Z 0040fa6c f   FileManagerDlg.obj
 0001:0000eacf       ?OnUpdateLocalNewfolder@CFileManagerDlg@@IAEXPAVCCmdUI@@@Z 0040facf f   FileManagerDlg.obj
 0001:0000eb20       ?OnUpdateLocalCopy@CFileManagerDlg@@IAEXPAVCCmdUI@@@Z 0040fb20 f   FileManagerDlg.obj
 0001:0000eb95       ?OnUpdateLocalStop@CFileManagerDlg@@IAEXPAVCCmdUI@@@Z 0040fb95 f   FileManagerDlg.obj
 0001:0000ebe3       ?OnUpdateRemotePrev@CFileManagerDlg@@IAEXPAVCCmdUI@@@Z 0040fbe3 f   FileManagerDlg.obj
 0001:0000ec34       ?OnUpdateRemoteCopy@CFileManagerDlg@@IAEXPAVCCmdUI@@@Z 0040fc34 f   FileManagerDlg.obj
 0001:0000eca9       ?OnUpdateRemoteDelete@CFileManagerDlg@@IAEXPAVCCmdUI@@@Z 0040fca9 f   FileManagerDlg.obj
 0001:0000ed0c       ?OnUpdateRemoteNewfolder@CFileManagerDlg@@IAEXPAVCCmdUI@@@Z 0040fd0c f   FileManagerDlg.obj
 0001:0000ed5d       ?OnUpdateRemoteStop@CFileManagerDlg@@IAEXPAVCCmdUI@@@Z 0040fd5d f   FileManagerDlg.obj
 0001:0000edab       ?FixedUploadDirectory@CFileManagerDlg@@QAE_NPBD@Z 0040fdab f   FileManagerDlg.obj
 0001:0000ef50       ?EnableControl@CFileManagerDlg@@AAEXH@Z 0040ff50 f   FileManagerDlg.obj
 0001:0000efa5       ?OnLocalCopy@CFileManagerDlg@@IAEXXZ 0040ffa5 f   FileManagerDlg.obj
 0001:0000f172       ?OnRemoteCopy@CFileManagerDlg@@IAEXXZ 00410172 f   FileManagerDlg.obj
 0001:0000f2fd       ?SendDownloadJob@CFileManagerDlg@@QAEHXZ 004102fd f   FileManagerDlg.obj
 0001:0000f406       ?SendUploadJob@CFileManagerDlg@@QAEHXZ 00410406 f   FileManagerDlg.obj
 0001:0000f75c       ?SendDeleteJob@CFileManagerDlg@@QAEHXZ 0041075c f   FileManagerDlg.obj
 0001:0000f8ae       ?CreateLocalRecvFile@CFileManagerDlg@@QAEXXZ 004108ae f   FileManagerDlg.obj
 0001:0000ff91       ?WriteLocalRecvFile@CFileManagerDlg@@QAEXXZ 00410f91 f   FileManagerDlg.obj
 0001:000101c6       ?EndLocalRecvFile@CFileManagerDlg@@QAEXXZ 004111c6 f   FileManagerDlg.obj
 0001:0001029a       ?EndLocalUploadFile@CFileManagerDlg@@AAEXXZ 0041129a f   FileManagerDlg.obj
 0001:00010364       ?EndRemoteDeleteFile@CFileManagerDlg@@QAEXXZ 00411364 f   FileManagerDlg.obj
 0001:000103e8       ?SendException@CFileManagerDlg@@QAEXXZ 004113e8 f   FileManagerDlg.obj
 0001:00010417       ?SendContinue@CFileManagerDlg@@QAEXXZ 00411417 f   FileManagerDlg.obj
 0001:00010446       ?SendStop@CFileManagerDlg@@QAEXXZ 00411446 f   FileManagerDlg.obj
 0001:00010475       ?ShowProgress@CFileManagerDlg@@QAEXXZ 00411475 f   FileManagerDlg.obj
 0001:000105a5       ?OnLocalDelete@CFileManagerDlg@@IAEXXZ 004115a5 f   FileManagerDlg.obj
 0001:000107e2       ?OnRemoteDelete@CFileManagerDlg@@IAEXXZ 004117e2 f   FileManagerDlg.obj
 0001:00010a00       ?OnRemoteStop@CFileManagerDlg@@IAEXXZ 00411a00 f   FileManagerDlg.obj
 0001:00010a12       ?OnLocalStop@CFileManagerDlg@@IAEXXZ 00411a12 f   FileManagerDlg.obj
 0001:00010a24       ?PostNcDestroy@CFileManagerDlg@@MAEXXZ 00411a24 f   FileManagerDlg.obj
 0001:00010a64       ?SendTransferMode@CFileManagerDlg@@AAEXXZ 00411a64 f   FileManagerDlg.obj
 0001:00010bb6       ?SendFileData@CFileManagerDlg@@AAEXXZ 00411bb6 f   FileManagerDlg.obj
 0001:00010d76       ?DeleteDirectory@CFileManagerDlg@@AAE_NPBD@Z 00411d76 f   FileManagerDlg.obj
 0001:00010e79       ?OnLocalNewfolder@CFileManagerDlg@@IAEXXZ 00411e79 f   FileManagerDlg.obj
 0001:00010fe5       ?OnRemoteNewfolder@CFileManagerDlg@@IAEXXZ 00411fe5 f   FileManagerDlg.obj
 0001:0001119d       ?OnTransfer@CFileManagerDlg@@IAEXXZ 0041219d f   FileManagerDlg.obj
 0001:000111d9       ?OnRename@CFileManagerDlg@@IAEXXZ 004121d9 f   FileManagerDlg.obj
 0001:0001123f       ?OnEndlabeleditListLocal@CFileManagerDlg@@IAEXPAUtagNMHDR@@PAJ@Z 0041223f f   FileManagerDlg.obj
 0001:000113a6       ?OnEndlabeleditListRemote@CFileManagerDlg@@IAEXPAUtagNMHDR@@PAJ@Z 004123a6 f   FileManagerDlg.obj
 0001:000115be       ?OnDelete@CFileManagerDlg@@IAEXXZ 004125be f   FileManagerDlg.obj
 0001:000115fa       ?OnNewfolder@CFileManagerDlg@@IAEXXZ 004125fa f   FileManagerDlg.obj
 0001:00011636       ?OnRefresh@CFileManagerDlg@@IAEXXZ 00412636 f   FileManagerDlg.obj
 0001:00011698       ?OnLocalOpen@CFileManagerDlg@@IAEXXZ 00412698 f   FileManagerDlg.obj
 0001:00011775       ?OnRemoteOpenShow@CFileManagerDlg@@IAEXXZ 00412775 f   FileManagerDlg.obj
 0001:000118a4       ?OnRemoteOpenHide@CFileManagerDlg@@IAEXXZ 004128a4 f   FileManagerDlg.obj
 0001:000119d3       ?OnRclickListLocal@CFileManagerDlg@@IAEXPAUtagNMHDR@@PAJ@Z 004129d3 f   FileManagerDlg.obj
 0001:00011b51       ?OnRclickListRemote@CFileManagerDlg@@IAEXPAUtagNMHDR@@PAJ@Z 00412b51 f   FileManagerDlg.obj
 0001:00011cdc       ?MakeSureDirectoryPathExists@CFileManagerDlg@@AAE_NPBD@Z 00412cdc f   FileManagerDlg.obj
 0001:00011fe0       ??_ECFileManagerDlg@@UAEPAXI@Z 00412fe0 f i FileManagerDlg.obj
 0001:00011fe0       ??_GCFileManagerDlg@@UAEPAXI@Z 00412fe0 f i FileManagerDlg.obj
 0001:00012010       ??1CFileManagerDlg@@UAE@XZ 00413010 f i FileManagerDlg.obj
 0001:00012190       ?AfxTrace@@YAXPBDZZ        00413190 f i FileManagerDlg.obj
 0001:000121a0       ?IsDirectory@CFileFind@@QBEHXZ 004131a0 f i FileManagerDlg.obj
 0001:000121c0       ??9@YG_NABVCString@@PBD@Z  004131c0 f i FileManagerDlg.obj
 0001:000121e0       ?GetAt@CString@@QBEDH@Z    004131e0 f i FileManagerDlg.obj
 0001:00012200       ??4CString@@QAEABV0@PBE@Z  00413200 f i FileManagerDlg.obj
 0001:00012220       ??1CFileTransferModeDlg@@UAE@XZ 00413220 f i FileManagerDlg.obj
 0001:00012270       ??9@YG_NABVCString@@0@Z    00413270 f i FileManagerDlg.obj
 0001:00012290       ?DeleteMenu@CMenu@@QAEHII@Z 00413290 f i FileManagerDlg.obj
 0001:000122c0       ?EnableMenuItem@CMenu@@QAEIII@Z 004132c0 f i FileManagerDlg.obj
 0001:000122f0       ?MoveWindow@CWnd@@QAEXPBUtagRECT@@H@Z 004132f0 f i FileManagerDlg.obj
 0001:00012330       ?ClientToScreen@CWnd@@QBEXPAUtagPOINT@@@Z 00413330 f i FileManagerDlg.obj
 0001:00012350       ?ScreenToClient@CWnd@@QBEXPAUtagPOINT@@@Z 00413350 f i FileManagerDlg.obj
 0001:00012370       ?SetRedraw@CWnd@@QAEXH@Z   00413370 f i FileManagerDlg.obj
 0001:000123a0       ?IsWindowVisible@CWnd@@QBEHXZ 004133a0 f i FileManagerDlg.obj
 0001:000123c0       ?SetCapture@CWnd@@QAEPAV1@XZ 004133c0 f i FileManagerDlg.obj
 0001:000123e0       ?GetFocus@CWnd@@SGPAV1@XZ  004133e0 f i FileManagerDlg.obj
 0001:00012400       ?GetWindow@CWnd@@QBEPAV1@I@Z 00413400 f i FileManagerDlg.obj
 0001:00012430       ?GetParent@CWnd@@QBEPAV1@XZ 00413430 f i FileManagerDlg.obj
 0001:00012450       ?WindowFromPoint@CWnd@@SGPAV1@UtagPOINT@@@Z 00413450 f i FileManagerDlg.obj
 0001:00012470       ?OnTimer@CWnd@@IAEXI@Z     00413470 f i FileManagerDlg.obj
 0001:00012490       ?InsertString@CComboBox@@QAEHHPBD@Z 00413490 f i FileManagerDlg.obj
 0001:000124c0       ?ResetContent@CComboBox@@QAEXXZ 004134c0 f i FileManagerDlg.obj
 0001:000124f0       ?LoadCursorA@CWinApp@@QBEPAUHICON__@@I@Z 004134f0 f i FileManagerDlg.obj
 0001:00012520       ?LoadToolBar@CToolBar@@QAEHI@Z 00413520 f i FileManagerDlg.obj
 0001:00012540       ?SetImageList@CListCtrl@@QAEPAVCImageList@@PAV2@H@Z 00413540 f i FileManagerDlg.obj
 0001:00012580       ?DeleteAllItems@CListCtrl@@QAEHXZ 00413580 f i FileManagerDlg.obj
 0001:000125b0       ?RedrawItems@CListCtrl@@QAEHHH@Z 004135b0 f i FileManagerDlg.obj
 0001:000125e0       ?EditLabel@CListCtrl@@QAEPAVCEdit@@H@Z 004135e0 f i FileManagerDlg.obj
 0001:00012610       ?GetEditControl@CListCtrl@@QBEPAVCEdit@@XZ 00413610 f i FileManagerDlg.obj
 0001:00012640       ?DeleteColumn@CListCtrl@@QAEHH@Z 00413640 f i FileManagerDlg.obj
 0001:00012670       ??0CProgressCtrl@@QAE@XZ   00413670 f i FileManagerDlg.obj
 0001:00012690       ??_GCProgressCtrl@@UAEPAXI@Z 00413690 f i FileManagerDlg.obj
 0001:00012690       ??_ECProgressCtrl@@UAEPAXI@Z 00413690 f i FileManagerDlg.obj
 0001:000126c0       ?SetRange@CProgressCtrl@@QAEXFF@Z 004136c0 f i FileManagerDlg.obj
 0001:00012710       ?StepIt@CProgressCtrl@@QAEHXZ 00413710 f i FileManagerDlg.obj
 0001:00012740       ?GetSafeHandle@CImageList@@QBEPAU_IMAGELIST@@XZ 00413740 f i FileManagerDlg.obj
 0001:00012770       ?SetPos@CProgressCtrl@@QAEHH@Z 00413770 f i FileManagerDlg.obj
 0001:000127a0       ?SetFlatStyle@CXTPComboBox@@QAEXH@Z 004137a0 f i FileManagerDlg.obj
 0001:000127d0       ??0?$CList@VCString@@AAV1@@@QAE@H@Z 004137d0 f i FileManagerDlg.obj
 0001:00012830       ?IsEmpty@?$CList@PAUClientContext@@PAU1@@@QBEHXZ 00413830 f i FileManagerDlg.obj
 0001:00012830       ?IsEmpty@?$CList@VCString@@AAV1@@@QBEHXZ 00413830 f i FileManagerDlg.obj
 0001:00012850       ?GetHead@?$CList@VCString@@AAV1@@@QAEAAVCString@@XZ 00413850 f i FileManagerDlg.obj
 0001:00012870       ?RemoveHead@?$CList@VCString@@AAV1@@@QAE?AVCString@@XZ 00413870 f i FileManagerDlg.obj
 0001:00012920       ?AddTail@?$CList@VCString@@AAV1@@@QAEPAU__POSITION@@AAVCString@@@Z 00413920 f i FileManagerDlg.obj
 0001:00012980       ?RemoveAll@?$CList@VCString@@AAV1@@@QAEXXZ 00413980 f i FileManagerDlg.obj
 0001:00012a00       ??1?$CList@VCString@@AAV1@@@UAE@XZ 00413a00 f i FileManagerDlg.obj
 0001:00012a60       ?Serialize@?$CList@VCString@@AAV1@@@UAEXAAVCArchive@@@Z 00413a60 f i FileManagerDlg.obj
 0001:00012b40       ??_G?$CList@VCString@@AAV1@@@UAEPAXI@Z 00413b40 f i FileManagerDlg.obj
 0001:00012b40       ??_E?$CList@VCString@@AAV1@@@UAEPAXI@Z 00413b40 f i FileManagerDlg.obj
 0001:00012b70       ?NewNode@?$CList@VCString@@AAV1@@@IAEPAUCNode@1@PAU21@0@Z 00413b70 f i FileManagerDlg.obj
 0001:00012c50       ?FreeNode@?$CList@VCString@@AAV1@@@IAEXPAUCNode@1@@Z 00413c50 f i FileManagerDlg.obj
 0001:00012ca0       ??0CFileTransferModeDlg@@QAE@PAVCWnd@@@Z 00413ca0 f   FileTransferModeDlg.obj
 0001:00012d02       ?DoDataExchange@CFileTransferModeDlg@@MAEXPAVCDataExchange@@@Z 00413d02 f   FileTransferModeDlg.obj
 0001:00012d1b       ?GetMessageMap@CFileTransferModeDlg@@MBEPBUAFX_MSGMAP@@XZ 00413d1b f   FileTransferModeDlg.obj
 0001:00012d2b       ?OnEndDialog@CFileTransferModeDlg@@IAEXI@Z 00413d2b f   FileTransferModeDlg.obj
 0001:00012d44       ?OnInitDialog@CFileTransferModeDlg@@MAEHXZ 00413d44 f   FileTransferModeDlg.obj
 0001:00012ec0       ??_ECFileTransferModeDlg@@UAEPAXI@Z 00413ec0 f i FileTransferModeDlg.obj
 0001:00012ec0       ??_GCFileTransferModeDlg@@UAEPAXI@Z 00413ec0 f i FileTransferModeDlg.obj
 0001:00012ef0       ??0CIniFile@@QAE@XZ        00413ef0 f   IniFile.obj
 0001:00012ff1       ??1CIniFile@@UAE@XZ        00413ff1 f   IniFile.obj
 0001:00013010       ?GetString@CIniFile@@QAE?AVCString@@V2@00@Z 00414010 f   IniFile.obj
 0001:000130d6       ?GetInt@CIniFile@@QAEHVCString@@0H@Z 004140d6 f   IniFile.obj
 0001:00013154       ?GetDWORD@CIniFile@@QAEKVCString@@0K@Z 00414154 f   IniFile.obj
 0001:0001323a       ?SetString@CIniFile@@QAEHVCString@@00@Z 0041423a f   IniFile.obj
 0001:000132c9       ?SetInt@CIniFile@@QAEHVCString@@0H@Z 004142c9 f   IniFile.obj
 0001:00013379       ?SetDouble@CIniFile@@QAEHVCString@@0N@Z 00414379 f   IniFile.obj
 0001:0001342d       ?SetDWORD@CIniFile@@QAEHVCString@@0K@Z 0041442d f   IniFile.obj
 0001:00013590       ??_GCIniFile@@UAEPAXI@Z    00414590 f i IniFile.obj
 0001:00013590       ??_ECIniFile@@UAEPAXI@Z    00414590 f i IniFile.obj
 0001:000135c0       ??0CDlgTemplateBuilder@@QAE@I@Z 004145c0 f   InputDlg.obj
 0001:00013608       ??1CDlgTemplateBuilder@@QAE@XZ 00414608 f   InputDlg.obj
 0001:00013629       ?Begin@CDlgTemplateBuilder@@QAEPAUDLGTEMPLATE@@KABVCRect@@PBDK@Z 00414629 f   InputDlg.obj
 0001:00013704       ?AddItemTemplate@CDlgTemplateBuilder@@IAEXGKABVCRect@@GK@Z 00414704 f   InputDlg.obj
 0001:000137eb       ?AddItem@CDlgTemplateBuilder@@QAEXGKABVCRect@@PBDGK@Z 004147eb f   InputDlg.obj
 0001:00013849       ?AddItem@CDlgTemplateBuilder@@QAEXGKABVCRect@@GGK@Z 00414849 f   InputDlg.obj
 0001:000138c4       ?AddText@CDlgTemplateBuilder@@QAEPAGPAGPBD@Z 004148c4 f   InputDlg.obj
 0001:0001396a       ?Init@CInputDialog@@QAEHPBD0PAVCWnd@@G@Z 0041496a f   InputDlg.obj
 0001:00013ccf       ?OnInitDialog@CInputDialog@@MAEHXZ 00414ccf f   InputDlg.obj
 0001:00013d09       ?OnOK@CInputDialog@@MAEXXZ 00414d09 f   InputDlg.obj
 0001:00013e00       ?AlignDWORD@CDlgTemplateBuilder@@IAEPAGPAG@Z 00414e00 f i InputDlg.obj
 0001:00013e30       ??0CSize@@QAE@HH@Z         00414e30 f i InputDlg.obj
 0001:00013e30       ??0CPoint@@QAE@HH@Z        00414e30 f i InputDlg.obj
 0001:00013e60       ??0CRect@@QAE@UtagPOINT@@UtagSIZE@@@Z 00414e60 f i InputDlg.obj
 0001:00013ea0       ?Height@CRect@@QBEHXZ      00414ea0 f i InputDlg.obj
 0001:00013ec0       ?TopLeft@CRect@@QAEAAVCPoint@@XZ 00414ec0 f i InputDlg.obj
 0001:00013ed0       ?DeflateRect@CRect@@QAEXUtagSIZE@@@Z 00414ed0 f i InputDlg.obj
 0001:00013f00       ??YCRect@@QAEXUtagPOINT@@@Z 00414f00 f i InputDlg.obj
 0001:00013f20       ??ZCRect@@QAEXUtagPOINT@@@Z 00414f20 f i InputDlg.obj
 0001:00013f50       ?SetIcon@CStatic@@QAEPAUHICON__@@PAU2@@Z 00414f50 f i InputDlg.obj
 0001:00013f80       ??0CIOCPServer@@QAE@XZ     00414f80 f   IOCPServer.obj
 0001:0001414c       ??1CIOCPServer@@UAE@XZ     0041514c f   IOCPServer.obj
 0001:000141e1       ?Initialize@CIOCPServer@@QAE_NP6GXPAXPAUClientContext@@I@ZPAVCMainFrame@@HH@Z 004151e1 f   IOCPServer.obj
 0001:0001441a       ?ListenThreadProc@CIOCPServer@@SGIPAX@Z 0041541a f   IOCPServer.obj
 0001:0001450c       ?OnAccept@CIOCPServer@@IAEXXZ 0041550c f   IOCPServer.obj
 0001:000147e9       ?InitializeIOCP@CIOCPServer@@IAE_NXZ 004157e9 f   IOCPServer.obj
 0001:00014919       ?ThreadPoolFunc@CIOCPServer@@SGIPAX@Z 00415919 f   IOCPServer.obj
 0001:00014b4b       ?Stop@CIOCPServer@@IAEXXZ  00415b4b f   IOCPServer.obj
 0001:00014b8c       ?GetHostName@CIOCPServer@@IAE?AVCString@@I@Z 00415b8c f   IOCPServer.obj
 0001:00014c01       ?PostRecv@CIOCPServer@@QAEXPAUClientContext@@@Z 00415c01 f   IOCPServer.obj
 0001:00014cc0       ?Send@CIOCPServer@@QAEXPAUClientContext@@PAEI@Z 00415cc0 f   IOCPServer.obj
 0001:00014f19       ?OnClientInitializing@CIOCPServer@@QAE_NPAUClientContext@@K@Z 00415f19 f   IOCPServer.obj
 0001:00014f28       ?OnClientReading@CIOCPServer@@QAE_NPAUClientContext@@K@Z 00415f28 f   IOCPServer.obj
 0001:000153a0       ?OnClientWriting@CIOCPServer@@QAE_NPAUClientContext@@K@Z 004163a0 f   IOCPServer.obj
 0001:000155a6       ?CloseCompletionPort@CIOCPServer@@IAEXXZ 004165a6 f   IOCPServer.obj
 0001:0001563d       ?AssociateSocketWithCompletionPort@CIOCPServer@@IAEHIPAXK@Z 0041663d f   IOCPServer.obj
 0001:00015670       ?RemoveStaleClient@CIOCPServer@@IAEXPAUClientContext@@H@Z 00416670 f   IOCPServer.obj
 0001:000157a0       ?Shutdown@CIOCPServer@@QAEXXZ 004167a0 f   IOCPServer.obj
 0001:00015842       ?MoveToFreePool@CIOCPServer@@IAEXPAUClientContext@@@Z 00416842 f   IOCPServer.obj
 0001:00015914       ?AllocateContext@CIOCPServer@@IAEPAUClientContext@@XZ 00416914 f   IOCPServer.obj
 0001:00015a26       ?ResetConnection@CIOCPServer@@QAEXPAUClientContext@@@Z 00416a26 f   IOCPServer.obj
 0001:00015af5       ?DisconnectAll@CIOCPServer@@QAEXXZ 00416af5 f   IOCPServer.obj
 0001:00015bc6       ?IsRunning@CIOCPServer@@QAE_NXZ 00416bc6 f   IOCPServer.obj
 0001:00015c90       ??_GCIOCPServer@@UAEPAXI@Z 00416c90 f i IOCPServer.obj
 0001:00015c90       ??_ECIOCPServer@@UAEPAXI@Z 00416c90 f i IOCPServer.obj
 0001:00015cc0       ??_GClientContext@@QAEPAXI@Z 00416cc0 f i IOCPServer.obj
 0001:00015cf0       ??1ClientContext@@QAE@XZ   00416cf0 f i IOCPServer.obj
 0001:00015d60       ??0ClientContext@@QAE@XZ   00416d60 f i IOCPServer.obj
 0001:00015dd0       ??0?$CList@PAUClientContext@@PAU1@@@QAE@H@Z 00416dd0 f i IOCPServer.obj
 0001:00015e30       ?RemoveHead@?$CList@PAUClientContext@@PAU1@@@QAEPAUClientContext@@XZ 00416e30 f i IOCPServer.obj
 0001:00015e90       ?RemoveTail@?$CList@PAUClientContext@@PAU1@@@QAEPAUClientContext@@XZ 00416e90 f i IOCPServer.obj
 0001:00015ef0       ?AddTail@?$CList@PAUClientContext@@PAU1@@@QAEPAU__POSITION@@PAUClientContext@@@Z 00416ef0 f i IOCPServer.obj
 0001:00015f50       ?RemoveAll@?$CList@PAUClientContext@@PAU1@@@QAEXXZ 00416f50 f i IOCPServer.obj
 0001:00015fd0       ?GetNext@?$CList@PAUClientContext@@PAU1@@@QAEAAPAUClientContext@@AAPAU__POSITION@@@Z 00416fd0 f i IOCPServer.obj
 0001:00016000       ?RemoveAt@?$CList@PAUClientContext@@PAU1@@@QAEXPAU__POSITION@@@Z 00417000 f i IOCPServer.obj
 0001:00016070       ?Find@?$CList@PAUClientContext@@PAU1@@@QBEPAU__POSITION@@PAUClientContext@@PAU2@@Z 00417070 f i IOCPServer.obj
 0001:000160d0       ??1?$CList@PAUClientContext@@PAU1@@@UAE@XZ 004170d0 f i IOCPServer.obj
 0001:00016130       ?Serialize@?$CList@PAUClientContext@@PAU1@@@UAEXAAVCArchive@@@Z 00417130 f i IOCPServer.obj
 0001:000161d0       ??_G?$CList@PAUClientContext@@PAU1@@@UAEPAXI@Z 004171d0 f i IOCPServer.obj
 0001:000161d0       ??_E?$CList@PAUClientContext@@PAU1@@@UAEPAXI@Z 004171d0 f i IOCPServer.obj
 0001:00016200       ?NewNode@?$CList@PAUClientContext@@PAU1@@@IAEPAUCNode@1@PAU21@0@Z 00417200 f i IOCPServer.obj
 0001:000162e0       ?FreeNode@?$CList@PAUClientContext@@PAU1@@@IAEXPAUCNode@1@@Z 004172e0 f i IOCPServer.obj
 0001:00016330       ?DestructElements@@YGXPAPAVCWnd@@H@Z 00417330 f i IOCPServer.obj
 0001:00016330       ?DestructElements@@YGXPAIH@Z 00417330 f i IOCPServer.obj
 0001:00016330       ?DestructElements@@YGXPAPAUClientContext@@H@Z 00417330 f i IOCPServer.obj
 0001:00016360       ?CompareElements@@YGHPBQAUClientContext@@0@Z 00417360 f i IOCPServer.obj
 0001:00016380       ?SerializeElements@@YGXAAVCArchive@@PAPAVCWnd@@H@Z 00417380 f i IOCPServer.obj
 0001:00016380       ?SerializeElements@@YGXAAVCArchive@@PAPAUClientContext@@H@Z 00417380 f i IOCPServer.obj
 0001:000163c0       ?ConstructElements@@YGXPAPAUClientContext@@H@Z 004173c0 f i IOCPServer.obj
 0001:000163c0       ?ConstructElements@@YGXPAIH@Z 004173c0 f i IOCPServer.obj
 0001:000163c0       ?ConstructElements@@YGXPAPAVCWnd@@H@Z 004173c0 f i IOCPServer.obj
 0001:00016410       ??2@YAPAXIPAX@Z            00417410 f i IOCPServer.obj
 0001:00016420       ??0CLock@@QAE@AAU_RTL_CRITICAL_SECTION@@ABVCString@@@Z 00417420 f i IOCPServer.obj
 0001:00016490       ??1CLock@@QAE@XZ           00417490 f i IOCPServer.obj
 0001:000164e0       ?Unlock@CLock@@QAEXXZ      004174e0 f i IOCPServer.obj
 0001:00016530       ?Lock@CLock@@QAEXXZ        00417530 f i IOCPServer.obj
 0001:00016580       ??0OVERLAPPEDPLUS@@QAE@W4IOType@@@Z 00417580 f i IOCPServer.obj
 0001:000165b0       ?ProcessIOMessage@CIOCPServer@@QAE_NW4IOType@@PAUClientContext@@K@Z 004175b0 f i IOCPServer.obj
 0001:00016620       ??0CKeyBoardDlg@@QAE@PAVCWnd@@PAVCIOCPServer@@PAUClientContext@@@Z 00417620 f   KeyBoardDlg.obj
 0001:0001676f       ?DoDataExchange@CKeyBoardDlg@@MAEXPAVCDataExchange@@@Z 0041776f f   KeyBoardDlg.obj
 0001:0001679d       ?GetMessageMap@CKeyBoardDlg@@MBEPBUAFX_MSGMAP@@XZ 0041779d f   KeyBoardDlg.obj
 0001:000167ad       ?OnInitDialog@CKeyBoardDlg@@MAEHXZ 004177ad f   KeyBoardDlg.obj
 0001:00016874       ?OnSysCommand@CKeyBoardDlg@@IAEXIJ@Z 00417874 f   KeyBoardDlg.obj
 0001:000168dd       ?OnReceiveComplete@CKeyBoardDlg@@QAEXXZ 004178dd f   KeyBoardDlg.obj
 0001:0001691c       ?SendException@CKeyBoardDlg@@AAEXXZ 0041791c f   KeyBoardDlg.obj
 0001:0001694b       ?OnClose@CKeyBoardDlg@@IAEXXZ 0041794b f   KeyBoardDlg.obj
 0001:00016980       ?AddKeyBoardData@CKeyBoardDlg@@AAEXXZ 00417980 f   KeyBoardDlg.obj
 0001:000169f9       ?OnSize@CKeyBoardDlg@@IAEXIHH@Z 004179f9 f   KeyBoardDlg.obj
 0001:00016a22       ?ResizeEdit@CKeyBoardDlg@@AAEXXZ 00417a22 f   KeyBoardDlg.obj
 0001:00016a66       ?PostNcDestroy@CKeyBoardDlg@@MAEXXZ 00417a66 f   KeyBoardDlg.obj
 0001:00016aa6       ?SaveRecord@CKeyBoardDlg@@AAE_NXZ 00417aa6 f   KeyBoardDlg.obj
 0001:00016cf4       ?PreTranslateMessage@CKeyBoardDlg@@UAEHPAUtagMSG@@@Z 00417cf4 f   KeyBoardDlg.obj
 0001:00016d32       ?UpdateTitle@CKeyBoardDlg@@AAEXXZ 00417d32 f   KeyBoardDlg.obj
 0001:00016e60       ??_GCKeyBoardDlg@@UAEPAXI@Z 00417e60 f i KeyBoardDlg.obj
 0001:00016e60       ??_ECKeyBoardDlg@@UAEPAXI@Z 00417e60 f i KeyBoardDlg.obj
 0001:00016e90       ??1CKeyBoardDlg@@UAE@XZ    00417e90 f i KeyBoardDlg.obj
 0001:00016ef0       ?AppendMenuA@CMenu@@QAEHIIPBD@Z 00417ef0 f i KeyBoardDlg.obj
 0001:00016f20       ?GetSystemMenu@CWnd@@QBEPAVCMenu@@H@Z 00417f20 f i KeyBoardDlg.obj
 0001:00016f50       ?ReplaceSel@CEdit@@QAEXPBDH@Z 00417f50 f i KeyBoardDlg.obj
 0001:00016f80       ?SetSel@CEdit@@QAEXHHH@Z   00417f80 f i KeyBoardDlg.obj
 0001:00016fd0       ?SetLimitText@CEdit@@QAEXI@Z 00417fd0 f i KeyBoardDlg.obj
 0001:000170fc       ??0CLOCKDlg@@QAE@PAVCWnd@@@Z 004180fc f   LOCKDlg.obj
 0001:00017126       ?DoDataExchange@CLOCKDlg@@MAEXPAVCDataExchange@@@Z 00418126 f   LOCKDlg.obj
 0001:0001713f       ?GetMessageMap@CLOCKDlg@@MBEPBUAFX_MSGMAP@@XZ 0041813f f   LOCKDlg.obj
 0001:0001714f       ?OnInitDialog@CLOCKDlg@@MAEHXZ 0041814f f   LOCKDlg.obj
 0001:000171c2       ?OnPaint@CLOCKDlg@@IAEXXZ  004181c2 f   LOCKDlg.obj
 0001:000172c1       ?OnQueryDragIcon@CLOCKDlg@@IAEPAUHICON__@@XZ 004182c1 f   LOCKDlg.obj
 0001:000172d2       ?OnCtlColor@CLOCKDlg@@IAEPAUHBRUSH__@@PAVCDC@@PAVCWnd@@I@Z 004182d2 f   LOCKDlg.obj
 0001:00017320       ?PreTranslateMessage@CLOCKDlg@@UAEHPAUtagMSG@@@Z 00418320 f   LOCKDlg.obj
 0001:00017355       ?OnSetlock@CLOCKDlg@@IAEXXZ 00418355 f   LOCKDlg.obj
 0001:0001759c       ?OnQuit@CLOCKDlg@@IAEXXZ   0041859c f   LOCKDlg.obj
 0001:00017670       ??BCBrush@@QBEPAUHBRUSH__@@XZ 00418670 f i LOCKDlg.obj
 0001:000176a0       ??0CBrush@@QAE@XZ          004186a0 f i LOCKDlg.obj
 0001:000176c0       ??0CGdiObject@@QAE@XZ      004186c0 f i LOCKDlg.obj
 0001:000176f0       ??_GCGdiObject@@UAEPAXI@Z  004186f0 f i LOCKDlg.obj
 0001:000176f0       ??_ECGdiObject@@UAEPAXI@Z  004186f0 f i LOCKDlg.obj
 0001:00017720       ??1CGdiObject@@UAE@XZ      00418720 f i LOCKDlg.obj
 0001:00017780       ??_GCBrush@@UAEPAXI@Z      00418780 f i LOCKDlg.obj
 0001:00017780       ??_ECBrush@@UAEPAXI@Z      00418780 f i LOCKDlg.obj
 0001:000177b0       ??1CBrush@@UAE@XZ          004187b0 f i LOCKDlg.obj
 0001:000177d0       ?CreateSolidBrush@CBrush@@QAEHK@Z 004187d0 f i LOCKDlg.obj
 0001:000177f0       ?GetSafeHdc@CDC@@QBEPAUHDC__@@XZ 004187f0 f i LOCKDlg.obj
 0001:00017820       ?DrawIcon@CDC@@QAEHHHPAUHICON__@@@Z 00418820 f i LOCKDlg.obj
 0001:00017850       ?IsIconic@CWnd@@QBEHXZ     00418850 f i LOCKDlg.obj
 0001:00017870       ?CreateObject@CLogView@@SGPAVCObject@@XZ 00418870 f   LogView.obj
 0001:000178d7       ?GetRuntimeClass@CLogView@@UBEPAUCRuntimeClass@@XZ 004188d7 f   LogView.obj
 0001:000178e7       ??0CLogView@@IAE@XZ        004188e7 f   LogView.obj
 0001:00017966       ??1CLogView@@MAE@XZ        00418966 f   LogView.obj
 0001:000179d9       ?GetMessageMap@CLogView@@MBEPBUAFX_MSGMAP@@XZ 004189d9 f   LogView.obj
 0001:000179e9       ?OnDraw@CLogView@@MAEXPAVCDC@@@Z 004189e9 f   LogView.obj
 0001:00017a03       ?OnCustomDraw@CLogView@@IAEXPAUtagNMHDR@@PAJ@Z 00418a03 f   LogView.obj
 0001:00017b7e       ?OnInitialUpdate@CLogView@@UAEXXZ 00418b7e f   LogView.obj
 0001:00017d3a       ?SortColumn@CLogView@@IAEXH_N@Z 00418d3a f   LogView.obj
 0001:00017dc8       ?OnNotify@CLogView@@UAEHIJPAJ@Z 00418dc8 f   LogView.obj
 0001:00017e29       ?EnableControls@CLogView@@IAEXH@Z 00418e29 f   LogView.obj
 0001:00017e65       ?ModifyDrawStyle@CLogView@@IAEXIH@Z 00418e65 f   LogView.obj
 0001:00017ede       ?PreCreateWindow@CLogView@@MAEHAAUtagCREATESTRUCTA@@@Z 00418ede f   LogView.obj
 0001:00017f06       ?OnSize@CLogView@@IAEXIHH@Z 00418f06 f   LogView.obj
 0001:00017f9a       ?InsertLogItem@CLogView@@QAEXPBDHH@Z 00418f9a f   LogView.obj
 0001:0001805e       ?OnRclick@CLogView@@IAEXPAUtagNMHDR@@PAJ@Z 0041905e f   LogView.obj
 0001:000180ff       ?OnEventDelete@CLogView@@IAEXXZ 004190ff f   LogView.obj
 0001:00018179       ?OnAllDelete@CLogView@@IAEXXZ 00419179 f   LogView.obj
 0001:00018192       ?OnEventSave@CLogView@@IAEXXZ 00419192 f   LogView.obj
 0001:0001853f       ?OnEventCopy@CLogView@@IAEXXZ 0041953f f   LogView.obj
 0001:000187f0       ??_ECLogView@@MAEPAXI@Z    004197f0 f i LogView.obj
 0001:000187f0       ??_GCLogView@@MAEPAXI@Z    004197f0 f i LogView.obj
 0001:00018820       ??0CTime@@QAE@ABV0@@Z      00419820 f i LogView.obj
 0001:00018840       ?OpenClipboard@CWnd@@QAEHXZ 00419840 f i LogView.obj
 0001:00018860       ??_ECLogView@@OEI@AEPAXI@Z 00419860 f i LogView.obj
 0001:00018870       ?OnNotify@CLogView@@WEI@AEHIJPAJ@Z 00419870 f i LogView.obj
 0001:00018880       ?base64_decode@@YAHPBDPAPAD@Z 00419880 f   MainFrm.obj
 0001:00018a9c       ?MyDecode@@YAPADPAD@Z      00419a9c f   MainFrm.obj
 0001:00018b49       ?CreateObject@CMainFrame@@SGPAVCObject@@XZ 00419b49 f   MainFrm.obj
 0001:00018bb0       ?GetRuntimeClass@CMainFrame@@UBEPAUCRuntimeClass@@XZ 00419bb0 f   MainFrm.obj
 0001:00018bc0       ?GetMessageMap@CMainFrame@@MBEPBUAFX_MSGMAP@@XZ 00419bc0 f   MainFrm.obj
 0001:00018bd0       ??0CMainFrame@@IAE@XZ      00419bd0 f   MainFrm.obj
 0001:00018c97       ??1CMainFrame@@UAE@XZ      00419c97 f   MainFrm.obj
 0001:00018d5a       ?OnCreate@CMainFrame@@IAEHPAUtagCREATESTRUCTA@@@Z 00419d5a f   MainFrm.obj
 0001:00018f99       ?PreCreateWindow@CMainFrame@@UAEHAAUtagCREATESTRUCTA@@@Z 00419f99 f   MainFrm.obj
 0001:00019021       ?NotifyProc@CMainFrame@@SGXPAXPAUClientContext@@I@Z 0041a021 f   MainFrm.obj
 0001:00019124       ?Activate@CMainFrame@@QAEXII@Z 0041a124 f   MainFrm.obj
 0001:00019463       ?ProcessReceiveComplete@CMainFrame@@SAXPAUClientContext@@@Z 0041a463 f   MainFrm.obj
 0001:00019709       ?ProcessReceive@CMainFrame@@SAXPAUClientContext@@@Z 0041a709 f   MainFrm.obj
 0001:00019766       ?OnClose@CMainFrame@@IAEXXZ 0041a766 f   MainFrm.obj
 0001:000197f6       ?OnSysCommand@CMainFrame@@IAEXIJ@Z 0041a7f6 f   MainFrm.obj
 0001:0001984c       ?OnUpdateStatusBar@CMainFrame@@IAEXPAVCCmdUI@@@Z 0041a84c f   MainFrm.obj
 0001:00019865       ?ShowConnectionsNumber@CMainFrame@@QAEXXZ 0041a865 f   MainFrm.obj
 0001:0001999f       ?OnShow@CMainFrame@@IAEXXZ 0041a99f f   MainFrm.obj
 0001:000199bc       ?OnHide@CMainFrame@@IAEXXZ 0041a9bc f   MainFrm.obj
 0001:000199d1       ?OnExit@CMainFrame@@IAEXXZ 0041a9d1 f   MainFrm.obj
 0001:000199e4       ?ShowToolTips@CMainFrame@@QAEXPBD@Z 0041a9e4 f   MainFrm.obj
 0001:00019a0c       ?OnAppExit@CMainFrame@@IAEXXZ 0041aa0c f   MainFrm.obj
 0001:00019a1f       ?OnSetting@CMainFrame@@IAEXXZ 0041aa1f f   MainFrm.obj
 0001:00019a82       ?OnBuild@CMainFrame@@IAEXXZ 0041aa82 f   MainFrm.obj
 0001:00019ae5       ?SetTheme@CMainFrame@@QAEXH@Z 0041aae5 f   MainFrm.obj
 0001:00019b4c       ?OnEraseBkgnd@CMainFrame@@IAEHPAVCDC@@@Z 0041ab4c f   MainFrm.obj
 0001:00019b5e       ?CreatePane@CMainFrame@@IAEPAVCXTPDockingPane@@HHPAUCRuntimeClass@@VCString@@W4XTPDockingPaneDirection@@PAV2@@Z 0041ab5e f   MainFrm.obj
 0001:00019d39       ?OnDockingPaneNotify@CMainFrame@@IAEJIJ@Z 0041ad39 f   MainFrm.obj
 0001:00019d9b       ?OnCustomize@CMainFrame@@IAEXXZ 0041ad9b f   MainFrm.obj
 0001:00019eb2       ?ShowOSCount@CMainFrame@@QAEXXZ 0041aeb2 f   MainFrm.obj
 0001:00019f80       ?OnIpupdate@CMainFrame@@IAEXXZ 0041af80 f   MainFrm.obj
 0001:00019fe3       ?Onsuoding@CMainFrame@@IAEXXZ 0041afe3 f   MainFrm.obj
 0001:0001a037       ?OnSkin@CMainFrame@@IAEXXZ 0041b037 f   MainFrm.obj
 0001:0001a140       ??_ECMainFrame@@UAEPAXI@Z  0041b140 f i MainFrm.obj
 0001:0001a140       ??_GCMainFrame@@UAEPAXI@Z  0041b140 f i MainFrm.obj
 0001:0001a170       ??1CXTPFrameWnd@@UAE@XZ    0041b170 f i MainFrm.obj
 0001:0001a190       ??1CSetting@@UAE@XZ        0041b190 f i MainFrm.obj
 0001:0001a240       ??1CUpdateDlg@@UAE@XZ      0041b240 f i MainFrm.obj
 0001:0001a2e0       ??1?$CXTPFrameWndBase@VCFrameWnd@@@@UAE@XZ 0041b2e0 f i MainFrm.obj
 0001:0001a300       ?LoadFrame@?$CXTPFrameWndBase@VCFrameWnd@@@@UAEHIKPAVCWnd@@PAUCCreateContext@@@Z 0041b300 f i MainFrm.obj
 0001:0001a370       ?OnSetPreviewMode@?$CXTPFrameWndBase@VCFrameWnd@@@@UAEXHPAUCPrintPreviewState@@@Z 0041b370 f i MainFrm.obj
 0001:0001a3b0       ??1?$CXTPCommandBarsSiteBase@VCFrameWnd@@@@UAE@XZ 0041b3b0 f i MainFrm.obj
 0001:0001a420       ?InitCommandBars@?$CXTPCommandBarsSiteBase@VCFrameWnd@@@@UAEHPAUCRuntimeClass@@@Z 0041b420 f i MainFrm.obj
 0001:0001a4a0       ?SaveCommandBars@?$CXTPCommandBarsSiteBase@VCFrameWnd@@@@UAEXPBD@Z 0041b4a0 f i MainFrm.obj
 0001:0001a500       ?LoadCommandBars@?$CXTPCommandBarsSiteBase@VCFrameWnd@@@@UAEXPBDH@Z 0041b500 f i MainFrm.obj
 0001:0001a560       ?PreTranslateMessage@?$CXTPCommandBarsSiteBase@VCFrameWnd@@@@MAEHPAUtagMSG@@@Z 0041b560 f i MainFrm.obj
 0001:0001a610       ?OnWndMsg@?$CXTPCommandBarsSiteBase@VCFrameWnd@@@@MAEHIIJPAJ@Z 0041b610 f i MainFrm.obj
 0001:0001a670       ??0CRect@@QAE@HHHH@Z       0041b670 f i MainFrm.obj
 0001:0001a6b0       ?PostMessageA@CWnd@@QAEHIIJ@Z 0041b6b0 f i MainFrm.obj
 0001:0001a6e0       ??_G?$CXTPFrameWndBase@VCFrameWnd@@@@UAEPAXI@Z 0041b6e0 f i MainFrm.obj
 0001:0001a6e0       ??_E?$CXTPFrameWndBase@VCFrameWnd@@@@UAEPAXI@Z 0041b6e0 f i MainFrm.obj
 0001:0001a710       ??_G?$CXTPCommandBarsSiteBase@VCFrameWnd@@@@UAEPAXI@Z 0041b710 f i MainFrm.obj
 0001:0001a710       ??_E?$CXTPCommandBarsSiteBase@VCFrameWnd@@@@UAEPAXI@Z 0041b710 f i MainFrm.obj
 0001:0001a740       ?LoadIconA@CWinApp@@QBEPAUHICON__@@I@Z 0041b740 f i MainFrm.obj
 0001:0001a770       ??0CCreateContext@@QAE@XZ  0041b770 f i MainFrm.obj
 0001:0001a790       ?XTPColorManager@@YAPAVCXTPColorManager@@XZ 0041b790 f i MainFrm.obj
 0001:0001a7a0       ??0?$CMap@IIPAVCWnd@@PAV1@@@QAE@H@Z 0041b7a0 f i MainFrm.obj
 0001:0001a800       ?Lookup@?$CMap@IIPAVCWnd@@PAV1@@@QBEHIAAPAVCWnd@@@Z 0041b800 f i MainFrm.obj
 0001:0001a840       ?SetAt@?$CMap@IIPAVCWnd@@PAV1@@@QAEXIPAVCWnd@@@Z 0041b840 f i MainFrm.obj
 0001:0001a860       ??1?$CMap@IIPAVCWnd@@PAV1@@@UAE@XZ 0041b860 f i MainFrm.obj
 0001:0001a8c0       ?Serialize@?$CMap@IIPAVCWnd@@PAV1@@@UAEXAAVCArchive@@@Z 0041b8c0 f i MainFrm.obj
 0001:0001a9c0       ??_G?$CMap@IIPAVCWnd@@PAV1@@@UAEPAXI@Z 0041b9c0 f i MainFrm.obj
 0001:0001a9c0       ??_E?$CMap@IIPAVCWnd@@PAV1@@@UAEPAXI@Z 0041b9c0 f i MainFrm.obj
 0001:0001a9f0       ?SerializeElements@@YGXAAVCArchive@@PAIH@Z 0041b9f0 f i MainFrm.obj
 0001:0001aa30       ?XTPPaintManager@@YAPAVCXTPPaintManager@@XZ 0041ba30 f i MainFrm.obj
 0001:0001aa50       ?GetOriginalAccelerator@CXTPShortcutManager@@QBEPAVCXTPShortcutManagerAccelTable@@XZ 0041ba50 f i MainFrm.obj
 0001:0001aa70       ?GetCommandsPage@CXTPCustomizeSheet@@QBEPAVCXTPCustomizeCommandsPage@@XZ 0041ba70 f i MainFrm.obj
 0001:0001aa90       ?GetID@CXTPDockingPane@@QBEHXZ 0041ba90 f i MainFrm.obj
 0001:0001aab0       ?SetIconID@CXTPDockingPane@@QAEXI@Z 0041bab0 f i MainFrm.obj
 0001:0001aad0       ?SetOptions@CXTPDockingPane@@QAEXK@Z 0041bad0 f i MainFrm.obj
 0001:0001aaf0       ??A?$CMap@IIPAVCWnd@@PAV1@@@QAEAAPAVCWnd@@I@Z 0041baf0 f i MainFrm.obj
 0001:0001ab80       ?RemoveAll@?$CMap@IIPAVCWnd@@PAV1@@@QAEXXZ 0041bb80 f i MainFrm.obj
 0001:0001ac40       ?GetAssocAt@?$CMap@IIPAVCWnd@@PAV1@@@IBEPAUCAssoc@1@IAAI@Z 0041bc40 f i MainFrm.obj
 0001:0001acb0       ?InitHashTable@?$CMap@IIPAVCWnd@@PAV1@@@QAEXIH@Z 0041bcb0 f i MainFrm.obj
 0001:0001ad30       ?NewAssoc@?$CMap@IIPAVCWnd@@PAV1@@@IAEPAUCAssoc@1@XZ 0041bd30 f i MainFrm.obj
 0001:0001ae00       ?HashKey@@YGII@Z           0041be00 f i MainFrm.obj
 0001:0001ae10       ?CompareElements@@YGHPBI0@Z 0041be10 f i MainFrm.obj
 0001:0001ae30       ??_ECMainFrame@@WMA@AEPAXI@Z 0041be30 f i MainFrm.obj
 0001:0001ae40       ??0CMsgBox@@QAE@PAVCWnd@@@Z 0041be40 f   MsgBox.obj
 0001:0001af3a       ?DoDataExchange@CMsgBox@@MAEXPAVCDataExchange@@@Z 0041bf3a f   MsgBox.obj
 0001:0001afde       ?GetMessageMap@CMsgBox@@MBEPBUAFX_MSGMAP@@XZ 0041bfde f   MsgBox.obj
 0001:0001afee       ?OnInitDialog@CMsgBox@@MAEHXZ 0041bfee f   MsgBox.obj
 0001:0001b09f       ?OnSend@CMsgBox@@IAEXXZ    0041c09f f   MsgBox.obj
 0001:0001b169       ?OnShow@CMsgBox@@IAEXXZ    0041c169 f   MsgBox.obj
 0001:0001b1b5       ?OnRadio12@CMsgBox@@IAEXXZ 0041c1b5 f   MsgBox.obj
 0001:0001b1ca       ?OnRadio11@CMsgBox@@IAEXXZ 0041c1ca f   MsgBox.obj
 0001:0001b1df       ?OnRadio10@CMsgBox@@IAEXXZ 0041c1df f   MsgBox.obj
 0001:0001b1f4       ?OnRadio7@CMsgBox@@IAEXXZ  0041c1f4 f   MsgBox.obj
 0001:0001b209       ?OnRadio13@CMsgBox@@IAEXXZ 0041c209 f   MsgBox.obj
 0001:0001b21e       ?OnRadio5@CMsgBox@@IAEXXZ  0041c21e f   MsgBox.obj
 0001:0001b233       ?OnRadio8@CMsgBox@@IAEXXZ  0041c233 f   MsgBox.obj
 0001:0001b248       ?OnRadio1@CMsgBox@@IAEXXZ  0041c248 f   MsgBox.obj
 0001:0001b25d       ?OnRadio2@CMsgBox@@IAEXXZ  0041c25d f   MsgBox.obj
 0001:0001b272       ?OnRadio3@CMsgBox@@IAEXXZ  0041c272 f   MsgBox.obj
 0001:0001b287       ?OnRadio4@CMsgBox@@IAEXXZ  0041c287 f   MsgBox.obj
 0001:0001b350       ??_GCMsgBox@@UAEPAXI@Z     0041c350 f i MsgBox.obj
 0001:0001b350       ??_ECMsgBox@@UAEPAXI@Z     0041c350 f i MsgBox.obj
 0001:0001b380       ??0CStatic@@QAE@XZ         0041c380 f i MsgBox.obj
 0001:0001b3a0       ??_GCStatic@@UAEPAXI@Z     0041c3a0 f i MsgBox.obj
 0001:0001b3a0       ??_ECStatic@@UAEPAXI@Z     0041c3a0 f i MsgBox.obj
 0001:0001b3d0       ?SetCheck@CButton@@QAEXH@Z 0041c3d0 f i MsgBox.obj
 0001:0001b400       ??0CScreenSpyDlg@@QAE@PAVCWnd@@PAVCIOCPServer@@PAUClientContext@@@Z 0041c400 f   ScreenSpyDlg.obj
 0001:0001b715       ?OnClose@CScreenSpyDlg@@IAEXXZ 0041c715 f   ScreenSpyDlg.obj
 0001:0001b7e2       ?DoDataExchange@CScreenSpyDlg@@MAEXPAVCDataExchange@@@Z 0041c7e2 f   ScreenSpyDlg.obj
 0001:0001b7fb       ?GetMessageMap@CScreenSpyDlg@@MBEPBUAFX_MSGMAP@@XZ 0041c7fb f   ScreenSpyDlg.obj
 0001:0001b80b       ?OnReceiveComplete@CScreenSpyDlg@@QAEXXZ 0041c80b f   ScreenSpyDlg.obj
 0001:0001b8ea       ?SaveSnapshot@CScreenSpyDlg@@AAE_NXZ 0041c8ea f   ScreenSpyDlg.obj
 0001:0001bba7       ?OnReceive@CScreenSpyDlg@@QAEXXZ 0041cba7 f   ScreenSpyDlg.obj
 0001:0001bc5c       ?SendResetScreen@CScreenSpyDlg@@AAEXH@Z 0041cc5c f   ScreenSpyDlg.obj
 0001:0001bca5       ?SendResetAlgorithm@CScreenSpyDlg@@AAEXI@Z 0041cca5 f   ScreenSpyDlg.obj
 0001:0001bcdc       ?OnInitDialog@CScreenSpyDlg@@MAEHXZ 0041ccdc f   ScreenSpyDlg.obj
 0001:0001c0cb       ?ResetScreen@CScreenSpyDlg@@AAEXXZ 0041d0cb f   ScreenSpyDlg.obj
 0001:0001c2d6       ?DrawFirstScreen@CScreenSpyDlg@@AAEXXZ 0041d2d6 f   ScreenSpyDlg.obj
 0001:0001c326       ?DrawNextScreenDiff@CScreenSpyDlg@@AAEXXZ 0041d326 f   ScreenSpyDlg.obj
 0001:0001c4c4       ?DrawNextScreenRect@CScreenSpyDlg@@AAEXXZ 0041d4c4 f   ScreenSpyDlg.obj
 0001:0001c853       ?OnPaint@CScreenSpyDlg@@IAEXXZ 0041d853 f   ScreenSpyDlg.obj
 0001:0001c9d2       ?OnSize@CScreenSpyDlg@@IAEXIHH@Z 0041d9d2 f   ScreenSpyDlg.obj
 0001:0001cb7e       ?OnSysCommand@CScreenSpyDlg@@IAEXIJ@Z 0041db7e f   ScreenSpyDlg.obj
 0001:0001d01d       ?OnGetMiniMaxInfo@CScreenSpyDlg@@AAEJIJ@Z 0041e01d f   ScreenSpyDlg.obj
 0001:0001d04a       ?DrawTipString@CScreenSpyDlg@@AAEXVCString@@@Z 0041e04a f   ScreenSpyDlg.obj
 0001:0001d139       ?InitMMI@CScreenSpyDlg@@AAEXXZ 0041e139 f   ScreenSpyDlg.obj
 0001:0001d22e       ?PreTranslateMessage@CScreenSpyDlg@@UAEHPAUtagMSG@@@Z 0041e22e f   ScreenSpyDlg.obj
 0001:0001d3d8       ?PostNcDestroy@CScreenSpyDlg@@MAEXXZ 0041e3d8 f   ScreenSpyDlg.obj
 0001:0001d418       ?SendCommand@CScreenSpyDlg@@AAEXPAUtagMSG@@@Z 0041e418 f   ScreenSpyDlg.obj
 0001:0001d496       ?OnHScroll@CScreenSpyDlg@@IAEXIIPAVCScrollBar@@@Z 0041e496 f   ScreenSpyDlg.obj
 0001:0001d5d0       ?OnVScroll@CScreenSpyDlg@@IAEXIIPAVCScrollBar@@@Z 0041e5d0 f   ScreenSpyDlg.obj
 0001:0001d704       ?UpdateLocalClipboard@CScreenSpyDlg@@AAEXPADH@Z 0041e704 f   ScreenSpyDlg.obj
 0001:0001d783       ?SendLocalClipboard@CScreenSpyDlg@@AAEXXZ 0041e783 f   ScreenSpyDlg.obj
 0001:0001d851       ?SendNext@CScreenSpyDlg@@AAEXXZ 0041e851 f   ScreenSpyDlg.obj
 0001:0001d930       ??0CCursorInfo@@QAE@XZ     0041e930 f i ScreenSpyDlg.obj
 0001:0001da00       ??1CCursorInfo@@UAE@XZ     0041ea00 f i ScreenSpyDlg.obj
 0001:0001da50       ??_GCCursorInfo@@UAEPAXI@Z 0041ea50 f i ScreenSpyDlg.obj
 0001:0001da50       ??_ECCursorInfo@@UAEPAXI@Z 0041ea50 f i ScreenSpyDlg.obj
 0001:0001da80       ??_GCScreenSpyDlg@@UAEPAXI@Z 0041ea80 f i ScreenSpyDlg.obj
 0001:0001da80       ??_ECScreenSpyDlg@@UAEPAXI@Z 0041ea80 f i ScreenSpyDlg.obj
 0001:0001dab0       ??1CScreenSpyDlg@@UAE@XZ   0041eab0 f i ScreenSpyDlg.obj
 0001:0001db10       ?getCursorHandle@CCursorInfo@@QAEPAUHICON__@@H@Z 0041eb10 f i ScreenSpyDlg.obj
 0001:0001db40       ?CheckMenuItem@CMenu@@QAEIII@Z 0041eb40 f i ScreenSpyDlg.obj
 0001:0001db70       ?GetMenuState@CMenu@@QBEIII@Z 0041eb70 f i ScreenSpyDlg.obj
 0001:0001dba0       ?CheckMenuRadioItem@CMenu@@QAEHIIII@Z 0041eba0 f i ScreenSpyDlg.obj
 0001:0001dbd0       ?GetWindowRect@CWnd@@QBEXPAUtagRECT@@@Z 0041ebd0 f i ScreenSpyDlg.obj
 0001:0001dbf0       ?ShowScrollBar@CWnd@@QAEXIH@Z 0041ebf0 f i ScreenSpyDlg.obj
 0001:0001dc20       ??0CSetting@@QAE@PAVCWnd@@@Z 0041ec20 f   Setting.obj
 0001:0001de76       ?DoDataExchange@CSetting@@MAEXPAVCDataExchange@@@Z 0041ee76 f   Setting.obj
 0001:0001dfc4       ?GetMessageMap@CSetting@@MBEPBUAFX_MSGMAP@@XZ 0041efc4 f   Setting.obj
 0001:0001dfd4       ?OnApply@CSetting@@IAEXXZ  0041efd4 f   Setting.obj
 0001:0001e1cc       ?OnDisablePoptips@CSetting@@IAEXXZ 0041f1cc f   Setting.obj
 0001:0001e2bd       ?OnConnectAuto@CSetting@@IAEXXZ 0041f2bd f   Setting.obj
 0001:0001e3c5       ?OnInitDialog@CSetting@@MAEHXZ 0041f3c5 f   Setting.obj
 0001:0001e4cc       ?OnDisableSound@CSetting@@IAEXXZ 0041f4cc f   Setting.obj
 0001:0001e670       ??_ECSetting@@UAEPAXI@Z    0041f670 f i Setting.obj
 0001:0001e670       ??_GCSetting@@UAEPAXI@Z    0041f670 f i Setting.obj
 0001:0001e6a0       ?SetFlatStyle@CXTPEdit@@QAEXH@Z 0041f6a0 f i Setting.obj
 0001:0001e6d0       ??0SEU_QQwry@@QAE@XZ       0041f6d0 f   SEU_QQwry.obj
 0001:0001e72a       ??1SEU_QQwry@@UAE@XZ       0041f72a f   SEU_QQwry.obj
 0001:0001e78d       ?OpenQQwry@SEU_QQwry@@QAE_NVCString@@@Z 0041f78d f   SEU_QQwry.obj
 0001:0001e813       ?CloseQQwry@SEU_QQwry@@QAEXXZ 0041f813 f   SEU_QQwry.obj
 0001:0001e839       ?GetBE@SEU_QQwry@@QAE_NXZ  0041f839 f   SEU_QQwry.obj
 0001:0001e889       ?GetStartIPInfo@SEU_QQwry@@QAEHH@Z 0041f889 f   SEU_QQwry.obj
 0001:0001ec46       ?GetRecordCount@SEU_QQwry@@QAEHXZ 0041fc46 f   SEU_QQwry.obj
 0001:0001ec8e       ?GetStr@SEU_QQwry@@QAE?AVCString@@H@Z 0041fc8e f   SEU_QQwry.obj
 0001:0001ed8b       ?GetCountryLocal@SEU_QQwry@@QAE?AVCString@@H@Z 0041fd8b f   SEU_QQwry.obj
 0001:0001ee00       ?GetCountryLocal@SEU_QQwry@@QAE?AVCString@@EH@Z 0041fe00 f   SEU_QQwry.obj
 0001:0001f34f       ?GetStr@SEU_QQwry@@QAE?AVCString@@XZ 0042034f f   SEU_QQwry.obj
 0001:0001f40f       ?SaveToFile@SEU_QQwry@@QAEXVCString@@@Z 0042040f f   SEU_QQwry.obj
 0001:0001f68b       ?IPtoAdd@SEU_QQwry@@QAE?AVCString@@V2@@Z 0042068b f   SEU_QQwry.obj
 0001:0001f74a       ?GetIndex@SEU_QQwry@@QAEHVCString@@@Z 0042074a f   SEU_QQwry.obj
 0001:0001f88f       ?GetSIP@SEU_QQwry@@QAEKH@Z 0042088f f   SEU_QQwry.obj
 0001:0001f982       ?IPtoDWORD@SEU_QQwry@@QAEKVCString@@@Z 00420982 f   SEU_QQwry.obj
 0001:0001fac9       ?SetPath@SEU_QQwry@@QAEXVCString@@@Z 00420ac9 f   SEU_QQwry.obj
 0001:0001fbf0       ??_ESEU_QQwry@@UAEPAXI@Z   00420bf0 f i SEU_QQwry.obj
 0001:0001fbf0       ??_GSEU_QQwry@@UAEPAXI@Z   00420bf0 f i SEU_QQwry.obj
 0001:0001fc20       ??0CShellDlg@@QAE@PAVCWnd@@PAVCIOCPServer@@PAUClientContext@@@Z 00420c20 f   ShellDlg.obj
 0001:0001fcc5       ?DoDataExchange@CShellDlg@@MAEXPAVCDataExchange@@@Z 00420cc5 f   ShellDlg.obj
 0001:0001fcf3       ?GetMessageMap@CShellDlg@@MBEPBUAFX_MSGMAP@@XZ 00420cf3 f   ShellDlg.obj
 0001:0001fd03       ?PreTranslateMessage@CShellDlg@@UAEHPAUtagMSG@@@Z 00420d03 f   ShellDlg.obj
 0001:0001feac       ?OnInitDialog@CShellDlg@@MAEHXZ 00420eac f   ShellDlg.obj
 0001:0001ffe9       ?OnReceiveComplete@CShellDlg@@QAEXXZ 00420fe9 f   ShellDlg.obj
 0001:00020010       ?AddKeyBoardData@CShellDlg@@AAEXXZ 00421010 f   ShellDlg.obj
 0001:000200e5       ?OnClose@CShellDlg@@IAEXXZ 004210e5 f   ShellDlg.obj
 0001:0002010a       ?ResizeEdit@CShellDlg@@AAEXXZ 0042110a f   ShellDlg.obj
 0001:0002014e       ?OnSize@CShellDlg@@IAEXIHH@Z 0042114e f   ShellDlg.obj
 0001:00020177       ?OnChangeEdit@CShellDlg@@IAEXXZ 00421177 f   ShellDlg.obj
 0001:000201ac       ?OnCtlColor@CShellDlg@@IAEPAUHBRUSH__@@PAVCDC@@PAVCWnd@@I@Z 004211ac f   ShellDlg.obj
 0001:000202d0       ??_GCShellDlg@@UAEPAXI@Z   004212d0 f i ShellDlg.obj
 0001:000202d0       ??_ECShellDlg@@UAEPAXI@Z   004212d0 f i ShellDlg.obj
 0001:00020300       ??1CShellDlg@@UAE@XZ       00421300 f i ShellDlg.obj
 0001:00020350       ??0CString@@QAE@PBE@Z      00421350 f i ShellDlg.obj
 0001:00020380       ?Init@CString@@IAEXXZ      00421380 f i ShellDlg.obj
 0001:000203a0       ??0CSkin@@QAE@PAVCWnd@@@Z  004213a0 f   Skin.obj
 0001:000203ca       ?DoDataExchange@CSkin@@MAEXPAVCDataExchange@@@Z 004213ca f   Skin.obj
 0001:000203e3       ?GetMessageMap@CSkin@@MBEPBUAFX_MSGMAP@@XZ 004213e3 f   Skin.obj
 0001:000203f3       ?OnReleasedcaptureSlider1@CSkin@@IAEXPAUtagNMHDR@@PAJ@Z 004213f3 f   Skin.obj
 0001:0002044e       ?OnInitDialog@CSkin@@MAEHXZ 0042144e f   Skin.obj
 0001:0002060d       ?OnReleasedcaptureSlider2@CSkin@@IAEXPAUtagNMHDR@@PAJ@Z 0042160d f   Skin.obj
 0001:00020633       ?OnReleasedcaptureSlider3@CSkin@@IAEXPAUtagNMHDR@@PAJ@Z 00421633 f   Skin.obj
 0001:00020659       ?OnReleasedcaptureSlider4@CSkin@@IAEXPAUtagNMHDR@@PAJ@Z 00421659 f   Skin.obj
 0001:0002070c       ?OnReleasedcaptureSlider5@CSkin@@IAEXPAUtagNMHDR@@PAJ@Z 0042170c f   Skin.obj
 0001:00020732       ?OnReleasedcaptureSlider6@CSkin@@IAEXPAUtagNMHDR@@PAJ@Z 00421732 f   Skin.obj
 0001:00020758       ?OnColor@CSkin@@IAEXXZ     00421758 f   Skin.obj
 0001:00020cd9       ?OnReleasedcaptureSlider7@CSkin@@IAEXPAUtagNMHDR@@PAJ@Z 00421cd9 f   Skin.obj
 0001:00020cff       ?OnReleasedcaptureSlider8@CSkin@@IAEXPAUtagNMHDR@@PAJ@Z 00421cff f   Skin.obj
 0001:00020d25       ?OnReleasedcaptureSlider9@CSkin@@IAEXPAUtagNMHDR@@PAJ@Z 00421d25 f   Skin.obj
 0001:00020d4b       ?OnReleasedcaptureSlider10@CSkin@@IAEXPAUtagNMHDR@@PAJ@Z 00421d4b f   Skin.obj
 0001:00020d71       ?OnReleasedcaptureSlider11@CSkin@@IAEXPAUtagNMHDR@@PAJ@Z 00421d71 f   Skin.obj
 0001:00020e50       ?GetPos@CSliderCtrl@@QBEHXZ 00421e50 f i Skin.obj
 0001:00020e80       ?SetPos@CSliderCtrl@@QAEXH@Z 00421e80 f i Skin.obj
 0001:00020eb0       ?GetRuntimeClass@CSplashScreenEx@@UBEPAUCRuntimeClass@@XZ 00421eb0 f   SplashScreenEx.obj
 0001:00020ec0       ??0CSplashScreenEx@@QAE@XZ 00421ec0 f   SplashScreenEx.obj
 0001:00021006       ??1CSplashScreenEx@@UAE@XZ 00422006 f   SplashScreenEx.obj
 0001:00021078       ?Create@CSplashScreenEx@@QAEHPAVCWnd@@PBDK@Z 00422078 f   SplashScreenEx.obj
 0001:000211bb       ?SetBitmap@CSplashScreenEx@@QAEHIFFF@Z 004221bb f   SplashScreenEx.obj
 0001:0002133d       ?SetBitmap@CSplashScreenEx@@QAEHPBDFFF@Z 0042233d f   SplashScreenEx.obj
 0001:000214dc       ?SetTextFont@CSplashScreenEx@@QAEXPBDHH@Z 004224dc f   SplashScreenEx.obj
 0001:00021576       ?SetTextDefaultFont@CSplashScreenEx@@QAEXXZ 00422576 f   SplashScreenEx.obj
 0001:000215ba       ?SetText@CSplashScreenEx@@QAEXPBD@Z 004225ba f   SplashScreenEx.obj
 0001:000215e7       ?SetTextColor@CSplashScreenEx@@QAEXK@Z 004225e7 f   SplashScreenEx.obj
 0001:0002160e       ?SetTextRect@CSplashScreenEx@@QAEXAAVCRect@@@Z 0042260e f   SplashScreenEx.obj
 0001:0002164b       ?SetTextFormat@CSplashScreenEx@@QAEXI@Z 0042264b f   SplashScreenEx.obj
 0001:00021661       ?Show@CSplashScreenEx@@QAEXXZ 00422661 f   SplashScreenEx.obj
 0001:000216d6       ?Hide@CSplashScreenEx@@QAEXXZ 004226d6 f   SplashScreenEx.obj
 0001:00021725       ?CreateRgnFromBitmap@CSplashScreenEx@@IAEPAUHRGN__@@PAUHBITMAP__@@K@Z 00422725 f   SplashScreenEx.obj
 0001:00021ab4       ?DrawWindow@CSplashScreenEx@@IAEXPAVCDC@@@Z 00422ab4 f   SplashScreenEx.obj
 0001:00021bbd       ?GetMessageMap@CSplashScreenEx@@MBEPBUAFX_MSGMAP@@XZ 00422bbd f   SplashScreenEx.obj
 0001:00021bcd       ?OnEraseBkgnd@CSplashScreenEx@@QAEHPAVCDC@@@Z 00422bcd f   SplashScreenEx.obj
 0001:00021bdf       ?OnPaint@CSplashScreenEx@@QAEXXZ 00422bdf f   SplashScreenEx.obj
 0001:00021c39       ?OnPrintClient@CSplashScreenEx@@QAEJIJ@Z 00422c39 f   SplashScreenEx.obj
 0001:00021c65       ?PostNcDestroy@CSplashScreenEx@@MAEXXZ 00422c65 f   SplashScreenEx.obj
 0001:00021d60       ??_GCSplashScreenEx@@UAEPAXI@Z 00422d60 f i SplashScreenEx.obj
 0001:00021d60       ??_ECSplashScreenEx@@UAEPAXI@Z 00422d60 f i SplashScreenEx.obj
 0001:00021d90       ?SetRect@CRect@@QAEXHHHH@Z 00422d90 f i SplashScreenEx.obj
 0001:00021dc0       ?FromHandle@CFont@@SGPAV1@PAUHFONT__@@@Z 00422dc0 f i SplashScreenEx.obj
 0001:00021dd0       ??0CFont@@QAE@XZ           00422dd0 f i SplashScreenEx.obj
 0001:00021df0       ??_ECFont@@UAEPAXI@Z       00422df0 f i SplashScreenEx.obj
 0001:00021df0       ??_GCFont@@UAEPAXI@Z       00422df0 f i SplashScreenEx.obj
 0001:00021e20       ??1CFont@@UAE@XZ           00422e20 f i SplashScreenEx.obj
 0001:00021e40       ?CreateFontIndirectA@CFont@@QAEHPBUtagLOGFONTA@@@Z 00422e40 f i SplashScreenEx.obj
 0001:00021e60       ?GetLogFont@CFont@@QAEHPAUtagLOGFONTA@@@Z 00422e60 f i SplashScreenEx.obj
 0001:00021e80       ??0CBitmap@@QAE@XZ         00422e80 f i SplashScreenEx.obj
 0001:00021ea0       ??_ECBitmap@@UAEPAXI@Z     00422ea0 f i SplashScreenEx.obj
 0001:00021ea0       ??_GCBitmap@@UAEPAXI@Z     00422ea0 f i SplashScreenEx.obj
 0001:00021ed0       ??1CBitmap@@UAE@XZ         00422ed0 f i SplashScreenEx.obj
 0001:00021ef0       ?LoadBitmapA@CBitmap@@QAEHI@Z 00422ef0 f i SplashScreenEx.obj
 0001:00021f20       ?CreateCompatibleDC@CDC@@QAEHPAV1@@Z 00422f20 f i SplashScreenEx.obj
 0001:00021f50       ?SelectObject@CDC@@QAEPAVCBitmap@@PAV2@@Z 00422f50 f i SplashScreenEx.obj
 0001:00021f80       ?SelectObject@CDC@@QAEPAXPAX@Z 00422f80 f i SplashScreenEx.obj
 0001:00021fc0       ?BitBlt@CDC@@QAEHHHHHPAV1@HHK@Z 00422fc0 f i SplashScreenEx.obj
 0001:00022000       ?GetPixel@CDC@@QBEKHH@Z    00423000 f i SplashScreenEx.obj
 0001:00022030       ?SetWindowRgn@CWnd@@QAEHPAUHRGN__@@H@Z 00423030 f i SplashScreenEx.obj
 0001:00022060       ?GetDC@CWnd@@QAEPAVCDC@@XZ 00423060 f i SplashScreenEx.obj
 0001:00022130       ??0CSysInfo@@QAE@PAVCWnd@@PAVCIOCPServer@@PAUClientContext@@@Z 00423130 f   SysInfo.obj
 0001:00022460       ?DoDataExchange@CSysInfo@@MAEXPAVCDataExchange@@@Z 00423460 f   SysInfo.obj
 0001:000225f4       ?GetMessageMap@CSysInfo@@MBEPBUAFX_MSGMAP@@XZ 004235f4 f   SysInfo.obj
 0001:00022604       ?OnInitDialog@CSysInfo@@MAEHXZ 00423604 f   SysInfo.obj
 0001:00022ecf       ?OnReceiveComplete@CSysInfo@@QAEXXZ 00423ecf f   SysInfo.obj
 0001:000230e2       ?GetSysinfoList@CSysInfo@@AAEXXZ 004240e2 f   SysInfo.obj
 0001:00023111       ?ShowSysinfoList@CSysInfo@@AAEXXZ 00424111 f   SysInfo.obj
 0001:00023433       ?OnClose@CSysInfo@@IAEXXZ  00424433 f   SysInfo.obj
 0001:0002349a       ?PreTranslateMessage@CSysInfo@@UAEHPAUtagMSG@@@Z 0042449a f   SysInfo.obj
 0001:000234d8       ?OnCreat@CSysInfo@@IAEXXZ  004244d8 f   SysInfo.obj
 0001:000236be       ?OnGuest@CSysInfo@@IAEXXZ  004246be f   SysInfo.obj
 0001:00023701       ?OnStop@CSysInfo@@IAEXXZ   00424701 f   SysInfo.obj
 0001:00023744       ?OnConnect@CSysInfo@@IAEXXZ 00424744 f   SysInfo.obj
 0001:00023968       ?OnProxy@CSysInfo@@IAEXXZ  00424968 f   SysInfo.obj
 0001:00023bfa       ?OnSocks5@CSysInfo@@IAEXXZ 00424bfa f   SysInfo.obj
 0001:00023c4b       ?OnClose3389@CSysInfo@@IAEXXZ 00424c4b f   SysInfo.obj
 0001:00023c7a       ?OnOpen3389@CSysInfo@@IAEXXZ 00424c7a f   SysInfo.obj
 0001:00023d52       ?OnChange@CSysInfo@@IAEXXZ 00424d52 f   SysInfo.obj
 0001:00023e34       ?SendFileData@CSysInfo@@IAEXXZ 00424e34 f   SysInfo.obj
 0001:00023fdf       ?ShowProgress@CSysInfo@@IAEXXZ 00424fdf f   SysInfo.obj
 0001:00024094       ?EndLocalUploadFile@CSysInfo@@IAEXXZ 00425094 f   SysInfo.obj
 0001:0002417d       ?SendUploadJob@CSysInfo@@IAEHXZ 0042517d f   SysInfo.obj
 0001:00024319       ?PortTransfer@CSysInfo@@SGKPAX@Z 00425319 f   SysInfo.obj
 0001:00024345       ?OnLanConnect@CSysInfo@@IAEXXZ 00425345 f   SysInfo.obj
 0001:00024625       ?ShowSelectWindow@CSysInfo@@AAEXXZ 00425625 f   SysInfo.obj
 0001:000247db       ?ModifyDrawStyle@CSysInfo@@IAEXIH@Z 004257db f   SysInfo.obj
 0001:00024992       ?OnSelchangeSystemTab@CSysInfo@@IAEXPAUtagNMHDR@@PAJ@Z 00425992 f   SysInfo.obj
 0001:000249b0       ?GetSevList@CSysInfo@@AAEXXZ 004259b0 f   SysInfo.obj
 0001:000249df       ?ShowSevList@CSysInfo@@AAEXXZ 004259df f   SysInfo.obj
 0001:00024b47       ?GetWtsmList@CSysInfo@@AAEXXZ 00425b47 f   SysInfo.obj
 0001:00024b76       ?ShowWtsList@CSysInfo@@AAEXXZ 00425b76 f   SysInfo.obj
 0001:00024d1b       ?OnRclickListSev@CSysInfo@@IAEXPAUtagNMHDR@@PAJ@Z 00425d1b f   SysInfo.obj
 0001:00024df0       ?OnRefreshpslist@CSysInfo@@IAEXXZ 00425df0 f   SysInfo.obj
 0001:00024e63       ?OnDeluser@CSysInfo@@IAEXXZ 00425e63 f   SysInfo.obj
 0001:00025073       ?OnChangepassword@CSysInfo@@IAEXXZ 00426073 f   SysInfo.obj
 0001:00025374       ?OnRclickListWts@CSysInfo@@IAEXPAUtagNMHDR@@PAJ@Z 00426374 f   SysInfo.obj
 0001:00025449       ?OnDisconnectUser@CSysInfo@@IAEXXZ 00426449 f   SysInfo.obj
 0001:00025610       ?OnLogoffUser@CSysInfo@@IAEXXZ 00426610 f   SysInfo.obj
 0001:000257d7       ?SetClipboardTexts1@@YAXAAVCString@@@Z 004267d7 f   SysInfo.obj
 0001:0002585d       ?OnCopy@CSysInfo@@IAEXXZ   0042685d f   SysInfo.obj
 0001:00025a97       ?OnRclickInfoList@CSysInfo@@IAEXPAUtagNMHDR@@PAJ@Z 00426a97 f   SysInfo.obj
 0001:00025b6c       ?SortColumn1@CSysInfo@@IAEXH_N@Z 00426b6c f   SysInfo.obj
 0001:00025bf9       ?SortColumn2@CSysInfo@@IAEXH_N@Z 00426bf9 f   SysInfo.obj
 0001:00025c86       ?SortColumn3@CSysInfo@@IAEXH_N@Z 00426c86 f   SysInfo.obj
 0001:00025d13       ?SortColumn4@CSysInfo@@IAEXH_N@Z 00426d13 f   SysInfo.obj
 0001:00025da0       ?OnNotify@CSysInfo@@MAEHIJPAJ@Z 00426da0 f   SysInfo.obj
 0001:00025ea0       ?OnActiveUser@CSysInfo@@IAEXXZ 00426ea0 f   SysInfo.obj
 0001:000260a2       ?OnDisableuser@CSysInfo@@IAEXXZ 004270a2 f   SysInfo.obj
 0001:000262a4       ?GetInstallinfoList@CSysInfo@@AAEXXZ 004272a4 f   SysInfo.obj
 0001:000262dd       ?ShowInstallList@CSysInfo@@AAEXXZ 004272dd f   SysInfo.obj
 0001:000264b0       ??_GCSysInfo@@UAEPAXI@Z    004274b0 f i SysInfo.obj
 0001:000264b0       ??_ECSysInfo@@UAEPAXI@Z    004274b0 f i SysInfo.obj
 0001:000264e0       ??1CSysInfo@@UAE@XZ        004274e0 f i SysInfo.obj
 0001:000266c0       __tcsrchr                  004276c0 f i SysInfo.obj
 0001:000266e0       ?InsertItem@CListCtrl@@QAEHHPBD@Z 004276e0 f i SysInfo.obj
 0001:00026710       ?Add@CImageList@@QAEHPAUHICON__@@@Z 00427710 f i SysInfo.obj
 0001:00026730       ?InsertItem@CTabCtrl@@QAEHHPBD@Z 00427730 f i SysInfo.obj
 0001:00026760       ?GetCurSel@CTabCtrl@@QBEHXZ 00427760 f i SysInfo.obj
 0001:00026790       ??0CSystemDlg@@QAE@PAVCWnd@@PAVCIOCPServer@@PAUClientContext@@@Z 00427790 f   SystemDlg.obj
 0001:000268a6       ?DoDataExchange@CSystemDlg@@MAEXPAVCDataExchange@@@Z 004278a6 f   SystemDlg.obj
 0001:0002691b       ?OnReceiveComplete@CSystemDlg@@QAEXXZ 0042791b f   SystemDlg.obj
 0001:00026970       ?GetMessageMap@CSystemDlg@@MBEPBUAFX_MSGMAP@@XZ 00427970 f   SystemDlg.obj
 0001:00026980       ?ShowProcessList@CSystemDlg@@AAEXXZ 00427980 f   SystemDlg.obj
 0001:00026b37       ?ShowWindowsList@CSystemDlg@@AAEXXZ 00427b37 f   SystemDlg.obj
 0001:00026cbb       ?ShowDialupassList@CSystemDlg@@AAEXXZ 00427cbb f   SystemDlg.obj
 0001:00026d92       ?OnInitDialog@CSystemDlg@@EAEHXZ 00427d92 f   SystemDlg.obj
 0001:0002717c       ?PreTranslateMessage@CSystemDlg@@UAEHPAUtagMSG@@@Z 0042817c f   SystemDlg.obj
 0001:000271ba       ?OnClose@CSystemDlg@@AAEXXZ 004281ba f   SystemDlg.obj
 0001:000271ef       ?OnSize@CSystemDlg@@AAEXIHH@Z 004281ef f   SystemDlg.obj
 0001:00027218       ?AdjustList@CSystemDlg@@AAEXXZ 00428218 f   SystemDlg.obj
 0001:00027284       ?ShowSelectWindow@CSystemDlg@@AAEXXZ 00428284 f   SystemDlg.obj
 0001:00027538       ?OnRclickList@CSystemDlg@@AAEXPAUtagNMHDR@@PAJ@Z 00428538 f   SystemDlg.obj
 0001:000275ea       ?OnKillprocess@CSystemDlg@@AAEXXZ 004285ea f   SystemDlg.obj
 0001:000277a6       ?OnRefreshPsList@CSystemDlg@@AAEXXZ 004287a6 f   SystemDlg.obj
 0001:000277fc       ?GetProcessList@CSystemDlg@@AAEXXZ 004287fc f   SystemDlg.obj
 0001:0002782b       ?GetWindowsList@CSystemDlg@@AAEXXZ 0042882b f   SystemDlg.obj
 0001:0002785a       ?GetDialupassList@CSystemDlg@@AAEXXZ 0042885a f   SystemDlg.obj
 0001:00027889       ?OnSelchangeTab@CSystemDlg@@AAEXPAUtagNMHDR@@PAJ@Z 00428889 f   SystemDlg.obj
 0001:000278a7       ?SortColumn1@CSystemDlg@@AAEXH_N@Z 004288a7 f   SystemDlg.obj
 0001:00027934       ?SortColumn2@CSystemDlg@@AAEXH_N@Z 00428934 f   SystemDlg.obj
 0001:000279c1       ?SortColumn3@CSystemDlg@@AAEXH_N@Z 004289c1 f   SystemDlg.obj
 0001:00027a4c       ?OnNotify@CSystemDlg@@MAEHIJPAJ@Z 00428a4c f   SystemDlg.obj
 0001:00027b1a       ?ModifyDrawStyle@CSystemDlg@@AAEXIH@Z 00428b1a f   SystemDlg.obj
 0001:00027c67       ?SetClipboardTexts@@YAXAAVCString@@@Z 00428c67 f   SystemDlg.obj
 0001:00027ced       ?OnAdslSave@CSystemDlg@@AAEXXZ 00428ced f   SystemDlg.obj
 0001:00027ea9       ?OnRclickListDialupass@CSystemDlg@@AAEXPAUtagNMHDR@@PAJ@Z 00428ea9 f   SystemDlg.obj
 0001:00028030       ??_ECSystemDlg@@UAEPAXI@Z  00429030 f i SystemDlg.obj
 0001:00028030       ??_GCSystemDlg@@UAEPAXI@Z  00429030 f i SystemDlg.obj
 0001:00028060       ??1CSystemDlg@@UAE@XZ      00429060 f i SystemDlg.obj
 0001:00028130       ?SetColumn@CListCtrl@@QAEHHPBUtagLVCOLUMNA@@@Z 00429130 f i SystemDlg.obj
 0001:00028160       ?CreateObject@CTabView@@SGPAVCObject@@XZ 00429160 f   TabView.obj
 0001:000281c7       ?GetRuntimeClass@CTabView@@UBEPAUCRuntimeClass@@XZ 004291c7 f   TabView.obj
 0001:000281d7       ??0CTabView@@IAE@XZ        004291d7 f   TabView.obj
 0001:00028237       ??1CTabView@@MAE@XZ        00429237 f   TabView.obj
 0001:0002828b       ?GetMessageMap@CTabView@@MBEPBUAFX_MSGMAP@@XZ 0042928b f   TabView.obj
 0001:0002829b       ?OnDraw@CTabView@@MAEXPAVCDC@@@Z 0042929b f   TabView.obj
 0001:000282b5       ?PreCreateWindow@CTabView@@MAEHAAUtagCREATESTRUCTA@@@Z 004292b5 f   TabView.obj
 0001:000282e0       ?OnSize@CTabView@@IAEXIHH@Z 004292e0 f   TabView.obj
 0001:00028329       ?OnPaint@CTabView@@IAEXXZ  00429329 f   TabView.obj
 0001:000283bc       ?AddView@CTabView@@AAEHPAUCRuntimeClass@@PBD@Z 004293bc f   TabView.obj
 0001:00028571       ?OnAddFindGroup@CTabView@@AAEJIJ@Z 00429571 f   TabView.obj
 0001:000288e8       ?UpdateDocTitle@CTabView@@QAEXXZ 004298e8 f   TabView.obj
 0001:0002890e       ?OnSelectedChanged@CTabView@@IAEXPAUtagNMHDR@@PAJ@Z 0042990e f   TabView.obj
 0001:00028970       ?OnCreate@CTabView@@IAEHPAUtagCREATESTRUCTA@@@Z 00429970 f   TabView.obj
 0001:00028a39       ?OnMouseActivate@CTabView@@IAEHPAVCWnd@@II@Z 00429a39 f   TabView.obj
 0001:00028a5a       ?AddGroup@CTabView@@QAEHPBD@Z 00429a5a f   TabView.obj
 0001:00028a80       ?UpDateNumber@CTabView@@QAEHXZ 00429a80 f   TabView.obj
 0001:00028cd0       ??_GCTabView@@MAEPAXI@Z    00429cd0 f i TabView.obj
 0001:00028cd0       ??_ECTabView@@MAEPAXI@Z    00429cd0 f i TabView.obj
 0001:00028d00       ?GetDocument@CTabView@@QAEPAVCClientDoc@@XZ 00429d00 f i TabView.obj
 0001:00028d20       ??1AFX_EXCEPTION_LINK@@QAE@XZ 00429d20 f i TabView.obj
 0001:00028d30       ?SetOwner@CWnd@@QAEXPAV1@@Z 00429d30 f i TabView.obj
 0001:00028d60       ?GetDocTemplate@CDocument@@QBEPAVCDocTemplate@@XZ 00429d60 f i TabView.obj
 0001:00028d80       ??0CTrueColorToolBar@@QAE@XZ 00429d80 f   TrueColorToolBar.obj
 0001:00028de7       ??1CTrueColorToolBar@@UAE@XZ 00429de7 f   TrueColorToolBar.obj
 0001:00028e3e       ?GetMessageMap@CTrueColorToolBar@@MBEPBUAFX_MSGMAP@@XZ 00429e3e f   TrueColorToolBar.obj
 0001:00028e4e       ?LoadTrueColorToolBar@CTrueColorToolBar@@QAEHHIII@Z 00429e4e f   TrueColorToolBar.obj
 0001:00028ec3       ?SetTrueColorToolBar@CTrueColorToolBar@@AAEHIIH@Z 00429ec3 f   TrueColorToolBar.obj
 0001:00029080       ?AddDropDownButton@CTrueColorToolBar@@QAEXPAVCWnd@@II@Z 0042a080 f   TrueColorToolBar.obj
 0001:000290fb       ?OnToolbarDropDown@CTrueColorToolBar@@IAEXPAUtagNMTOOLBARA@@PAJ@Z 0042a0fb f   TrueColorToolBar.obj
 0001:000292c0       ??_GCTrueColorToolBar@@UAEPAXI@Z 0042a2c0 f i TrueColorToolBar.obj
 0001:000292c0       ??_ECTrueColorToolBar@@UAEPAXI@Z 0042a2c0 f i TrueColorToolBar.obj
 0001:000292f0       ?GetBitmap@CBitmap@@QAEHPAUtagBITMAP@@@Z 0042a2f0 f i TrueColorToolBar.obj
 0001:00029310       ?GetToolBarCtrl@CToolBar@@QBEAAVCToolBarCtrl@@XZ 0042a310 f i TrueColorToolBar.obj
 0001:00029320       ?Add@CImageList@@QAEHPAVCBitmap@@K@Z 0042a320 f i TrueColorToolBar.obj
 0001:00029350       ??0?$CArray@UstDropDownInfo@CTrueColorToolBar@@AAU12@@@QAE@XZ 0042a350 f i TrueColorToolBar.obj
 0001:000293a0       ?GetAt@?$CArray@UstDropDownInfo@CTrueColorToolBar@@AAU12@@@QBE?AUstDropDownInfo@CTrueColorToolBar@@H@Z 0042a3a0 f i TrueColorToolBar.obj
 0001:000293e0       ?Add@?$CArray@UstDropDownInfo@CTrueColorToolBar@@AAU12@@@QAEHAAUstDropDownInfo@CTrueColorToolBar@@@Z 0042a3e0 f i TrueColorToolBar.obj
 0001:00029410       ??1?$CArray@UstDropDownInfo@CTrueColorToolBar@@AAU12@@@UAE@XZ 0042a410 f i TrueColorToolBar.obj
 0001:00029490       ?Serialize@?$CArray@UstDropDownInfo@CTrueColorToolBar@@AAU12@@@UAEXAAVCArchive@@@Z 0042a490 f i TrueColorToolBar.obj
 0001:00029500       ??_G?$CArray@UstDropDownInfo@CTrueColorToolBar@@AAU12@@@UAEPAXI@Z 0042a500 f i TrueColorToolBar.obj
 0001:00029500       ??_E?$CArray@UstDropDownInfo@CTrueColorToolBar@@AAU12@@@UAEPAXI@Z 0042a500 f i TrueColorToolBar.obj
 0001:00029530       ?SetSize@?$CArray@UstDropDownInfo@CTrueColorToolBar@@AAU12@@@QAEXHH@Z 0042a530 f i TrueColorToolBar.obj
 0001:00029760       ?SetAtGrow@?$CArray@UstDropDownInfo@CTrueColorToolBar@@AAU12@@@QAEXHAAUstDropDownInfo@CTrueColorToolBar@@@Z 0042a760 f i TrueColorToolBar.obj
 0001:000297b0       ?DestructElements@@YGXPAUstDropDownInfo@CTrueColorToolBar@@H@Z 0042a7b0 f i TrueColorToolBar.obj
 0001:000297e0       ?SerializeElements@@YGXAAVCArchive@@PAUstDropDownInfo@CTrueColorToolBar@@H@Z 0042a7e0 f i TrueColorToolBar.obj
 0001:00029820       ?ConstructElements@@YGXPAUstDropDownInfo@CTrueColorToolBar@@H@Z 0042a820 f i TrueColorToolBar.obj
 0001:00029870       ??0CUpdateDlg@@QAE@PAVCWnd@@@Z 0042a870 f   UpdateDlg.obj
 0001:00029957       ?DoDataExchange@CUpdateDlg@@MAEXPAVCDataExchange@@@Z 0042a957 f   UpdateDlg.obj
 0001:00029a21       ?GetMessageMap@CUpdateDlg@@MBEPBUAFX_MSGMAP@@XZ 0042aa21 f   UpdateDlg.obj
 0001:00029a31       ?OnInitDialog@CUpdateDlg@@MAEHXZ 0042aa31 f   UpdateDlg.obj
 0001:00029c95       ?base64_encode1@@YAHPBXHPAPAD@Z 0042ac95 f   UpdateDlg.obj
 0001:00029e00       ?OnBtnDnsupdate@CUpdateDlg@@IAEXXZ 0042ae00 f   UpdateDlg.obj
 0001:0002a237       ?OnGetwan@CUpdateDlg@@IAEXXZ 0042b237 f   UpdateDlg.obj
 0001:0002a490       ??_ECUpdateDlg@@UAEPAXI@Z  0042b490 f i UpdateDlg.obj
 0001:0002a490       ??_GCUpdateDlg@@UAEPAXI@Z  0042b490 f i UpdateDlg.obj
 0001:0002a4c0       ??0CWebCamDlg@@QAE@PAVCWnd@@PAVCIOCPServer@@PAUClientContext@@@Z 0042b4c0 f   WebCamDlg.obj
 0001:0002a631       ?DoDataExchange@CWebCamDlg@@MAEXPAVCDataExchange@@@Z 0042b631 f   WebCamDlg.obj
 0001:0002a64a       ?GetMessageMap@CWebCamDlg@@MBEPBUAFX_MSGMAP@@XZ 0042b64a f   WebCamDlg.obj
 0001:0002a65a       ?OnReceive@CWebCamDlg@@QAEXXZ 0042b65a f   WebCamDlg.obj
 0001:0002a6fe       ?OnReceiveComplete@CWebCamDlg@@QAEXXZ 0042b6fe f   WebCamDlg.obj
 0001:0002a75c       ?SaveSnapshot@CWebCamDlg@@AAE_NXZ 0042b75c f   WebCamDlg.obj
 0001:0002aa19       ?SaveAvi@CWebCamDlg@@AAEXXZ 0042ba19 f   WebCamDlg.obj
 0001:0002ac36       ?SendException@CWebCamDlg@@AAEXXZ 0042bc36 f   WebCamDlg.obj
 0001:0002ac65       ?PreTranslateMessage@CWebCamDlg@@UAEHPAUtagMSG@@@Z 0042bc65 f   WebCamDlg.obj
 0001:0002aca3       ?OnGetMiniMaxInfo@CWebCamDlg@@AAEJIJ@Z 0042bca3 f   WebCamDlg.obj
 0001:0002acd6       ?InitMMI@CWebCamDlg@@AAEXXZ 0042bcd6 f   WebCamDlg.obj
 0001:0002adf2       ?OnClose@CWebCamDlg@@IAEXXZ 0042bdf2 f   WebCamDlg.obj
 0001:0002aef8       ?OnInitDialog@CWebCamDlg@@MAEHXZ 0042bef8 f   WebCamDlg.obj
 0001:0002b0f9       ?OnSysCommand@CWebCamDlg@@IAEXIJ@Z 0042c0f9 f   WebCamDlg.obj
 0001:0002b244       ?SendNext@CWebCamDlg@@AAEXXZ 0042c244 f   WebCamDlg.obj
 0001:0002b273       ?DrawDIB@CWebCamDlg@@AAEXXZ 0042c273 f   WebCamDlg.obj
 0001:0002b38e       ?InitCodec@CWebCamDlg@@AAEXK@Z 0042c38e f   WebCamDlg.obj
 0001:0002b49e       ?SendResetScreen@CWebCamDlg@@AAE_NHH@Z 0042c49e f   WebCamDlg.obj
 0001:0002b50e       ?ResetScreen@CWebCamDlg@@AAEXXZ 0042c50e f   WebCamDlg.obj
 0001:0002b6bc       ?OnPaint@CWebCamDlg@@IAEXXZ 0042c6bc f   WebCamDlg.obj
 0001:0002b7e4       ?OnShowWindow@CWebCamDlg@@IAEXHI@Z 0042c7e4 f   WebCamDlg.obj
 0001:0002b801       ?OnSize@CWebCamDlg@@IAEXIHH@Z 0042c801 f   WebCamDlg.obj
 0001:0002b8f6       ?PostNcDestroy@CWebCamDlg@@MAEXXZ 0042c8f6 f   WebCamDlg.obj
 0001:0002b9f0       ??_GCWebCamDlg@@UAEPAXI@Z  0042c9f0 f i WebCamDlg.obj
 0001:0002b9f0       ??_ECWebCamDlg@@UAEPAXI@Z  0042c9f0 f i WebCamDlg.obj
 0001:0002ba20       ??1CWebCamDlg@@UAE@XZ      0042ca20 f i WebCamDlg.obj
 0001:0002ba90       ?DecodeVideoData@CVideoCodec@@QAE_NPAEH0PAHK@Z 0042ca90 f i WebCamDlg.obj
 0001:0002bb00       ?InitCompressor@CVideoCodec@@QAE_NPAUtagBITMAPINFO@@K@Z 0042cb00 f i WebCamDlg.obj
 0001:0002bc50       ??0CVideoCodec@@QAE@XZ     0042cc50 f i WebCamDlg.obj
 0001:0002bc80       ??_ECVideoCodec@@UAEPAXI@Z 0042cc80 f i WebCamDlg.obj
 0001:0002bc80       ??_GCVideoCodec@@UAEPAXI@Z 0042cc80 f i WebCamDlg.obj
 0001:0002bcb0       ??1CVideoCodec@@UAE@XZ     0042ccb0 f i WebCamDlg.obj
 0001:0002bd10       ?OnShowWindow@CWnd@@IAEXHI@Z 0042cd10 f i WebCamDlg.obj
 0001:0002bd10       ?OnSysCommand@CWnd@@IAEXIJ@Z 0042cd10 f i WebCamDlg.obj
 0001:0002bd30       ??0CZXPortMap@@QAE@XZ      0042cd30 f   ZXPortMap.obj
 0001:0002bd5b       ??1CZXPortMap@@UAE@XZ      0042cd5b f   ZXPortMap.obj
 0001:0002bd6f       ?DataSend@CZXPortMap@@SAHIPADH@Z 0042cd6f f   ZXPortMap.obj
 0001:0002bddf       ?TransmitData@CZXPortMap@@SGKPAX@Z 0042cddf f   ZXPortMap.obj
 0001:0002c062       ?ConnectHost@CZXPortMap@@SAIKG@Z 0042d062 f   ZXPortMap.obj
 0001:0002c0cc       ?ConnectHost@CZXPortMap@@SAIPADG@Z 0042d0cc f   ZXPortMap.obj
 0001:0002c0e9       ?CreateSocket@CZXPortMap@@SAIKG@Z 0042d0e9 f   ZXPortMap.obj
 0001:0002c194       ?CreateTmpSocket@CZXPortMap@@SAIPAG@Z 0042d194 f   ZXPortMap.obj
 0001:0002c212       ?InitSocket@CZXPortMap@@QAEHXZ 0042d212 f   ZXPortMap.obj
 0001:0002c23c       ?PortTransfer_1@CZXPortMap@@SGKPAX@Z 0042d23c f   ZXPortMap.obj
 0001:0002c29f       ?PortTransfer_1@CZXPortMap@@QAEHGPADG@Z 0042d29f f   ZXPortMap.obj
 0001:0002c424       ?PortTransfer_2@CZXPortMap@@SGKPAX@Z 0042d424 f   ZXPortMap.obj
 0001:0002c4cf       ?PortTransfer_2@CZXPortMap@@QAEHPADG0G@Z 0042d4cf f   ZXPortMap.obj
 0001:0002c663       ?PortTransfer_3@CZXPortMap@@SGKPAX@Z 0042d663 f   ZXPortMap.obj
 0001:0002c725       ?PortTransfer_3@CZXPortMap@@QAEHGG@Z 0042d725 f   ZXPortMap.obj
 0001:0002c9b3       ?Stop@CZXPortMap@@QAEXXZ   0042d9b3 f   ZXPortMap.obj
 0001:0002ca90       ??_GCZXPortMap@@UAEPAXI@Z  0042da90 f i ZXPortMap.obj
 0001:0002ca90       ??_ECZXPortMap@@UAEPAXI@Z  0042da90 f i ZXPortMap.obj
 0001:0002cac0       ?Push@?$STACK@I@@QAE_NI@Z  0042dac0 f i ZXPortMap.obj
 0001:0002cb00       ?Pop@?$STACK@I@@QAEIXZ     0042db00 f i ZXPortMap.obj
 0001:0002cb30       ?Push@?$STACK@G@@QAE_NG@Z  0042db30 f i ZXPortMap.obj
 0001:0002cb80       ?Pop@?$STACK@G@@QAEGXZ     0042db80 f i ZXPortMap.obj
 0001:0002cbb0       ?IsFull@?$STACK@I@@QAE_NXZ 0042dbb0 f i ZXPortMap.obj
 0001:0002cbd0       ?IsFull@?$STACK@G@@QAE_NXZ 0042dbd0 f i ZXPortMap.obj
 0001:0002cbf0       ??0?$TransferParam@UADDRESS@@I@@QAE@XZ 0042dbf0 f i ZXPortMap.obj
 0001:0002cc30       ??1?$TransferParam@UADDRESS@@I@@UAE@XZ 0042dc30 f i ZXPortMap.obj
 0001:0002cc50       ??0?$TransferParam@UADDRESS@@G@@QAE@XZ 0042dc50 f i ZXPortMap.obj
 0001:0002cc90       ??1?$TransferParam@UADDRESS@@G@@UAE@XZ 0042dc90 f i ZXPortMap.obj
 0001:0002ccb0       ??0?$TransferParam@II@@QAE@XZ 0042dcb0 f i ZXPortMap.obj
 0001:0002ccf0       ??1?$TransferParam@II@@UAE@XZ 0042dcf0 f i ZXPortMap.obj
 0001:0002cd10       ??_G?$TransferParam@UADDRESS@@I@@UAEPAXI@Z 0042dd10 f i ZXPortMap.obj
 0001:0002cd10       ??_E?$TransferParam@UADDRESS@@I@@UAEPAXI@Z 0042dd10 f i ZXPortMap.obj
 0001:0002cd40       ??_E?$TransferParam@UADDRESS@@G@@UAEPAXI@Z 0042dd40 f i ZXPortMap.obj
 0001:0002cd40       ??_G?$TransferParam@UADDRESS@@G@@UAEPAXI@Z 0042dd40 f i ZXPortMap.obj
 0001:0002cd70       ??_G?$TransferParam@II@@UAEPAXI@Z 0042dd70 f i ZXPortMap.obj
 0001:0002cd70       ??_E?$TransferParam@II@@UAEPAXI@Z 0042dd70 f i ZXPortMap.obj
 0001:0002cda0       ??0?$STACK@G@@QAE@XZ       0042dda0 f i ZXPortMap.obj
 0001:0002cda0       ??0?$STACK@I@@QAE@XZ       0042dda0 f i ZXPortMap.obj
 0001:0002cdc0       ?GetRuntimeClass@CXTPButton@@UBEPAUCRuntimeClass@@XZ 0042ddc0 f   ToolkitPro1501vc60S:XTPButton.obj
 0001:0002cdd0       ??0CXTPButton@@QAE@XZ      0042ddd0 f   ToolkitPro1501vc60S:XTPButton.obj
 0001:0002ceb0       ?IsHighlighted@CXTPButton@@UAEHXZ 0042deb0 f i ToolkitPro1501vc60S:XTPButton.obj
 0001:0002ced0       ?GetImageAlignment@CXTPButton@@UBEHXZ 0042ded0 f i ToolkitPro1501vc60S:XTPButton.obj
 0001:0002ced0       ?GetLinkCursor@CXTPHyperLink@@UBEPAUHICON__@@XZ 0042ded0 f i ToolkitPro1501vc60S:XTPButton.obj
 0001:0002cee0       ??_ECXTPButton@@UAEPAXI@Z  0042dee0 f i ToolkitPro1501vc60S:XTPButton.obj
 0001:0002cee0       ??_GCXTPButton@@UAEPAXI@Z  0042dee0 f i ToolkitPro1501vc60S:XTPButton.obj
 0001:0002cf00       ??1CXTPButton@@UAE@XZ      0042df00 f   ToolkitPro1501vc60S:XTPButton.obj
 0001:0002cfb0       ?GetMessageMap@CXTPButton@@MBEPBUAFX_MSGMAP@@XZ 0042dfb0 f   ToolkitPro1501vc60S:XTPButton.obj
 0001:0002cfc0       ?OnMouseMove@CXTPButton@@IAEXIVCPoint@@@Z 0042dfc0 f   ToolkitPro1501vc60S:XTPButton.obj
 0001:0002d070       ?OnMouseLeave@CXTPButton@@IAEXXZ 0042e070 f   ToolkitPro1501vc60S:XTPButton.obj
 0001:0002d080       ?OnLButtonDown@CXTPButton@@IAEXIVCPoint@@@Z 0042e080 f   ToolkitPro1501vc60S:XTPButton.obj
 0001:0002d100       ?OnSetState@CXTPButton@@IAEJIJ@Z 0042e100 f   ToolkitPro1501vc60S:XTPButton.obj
 0001:0002d1b0       ?GetButtonRect@CXTPButton@@UAE?AVCRect@@XZ 0042e1b0 f   ToolkitPro1501vc60S:XTPButton.obj
 0001:0002d220       ?DoDropDown@CXTPButton@@IAEXXZ 0042e220 f   ToolkitPro1501vc60S:XTPButton.obj
 0001:0002d270       ?OnChar@CXTPButton@@IAEXIII@Z 0042e270 f   ToolkitPro1501vc60S:XTPButton.obj
 0001:0002d2c0       ?OnGetDlgCode@CXTPButton@@IAEJIJ@Z 0042e2c0 f   ToolkitPro1501vc60S:XTPButton.obj
 0001:0002d330       ?OnKeyDown@CXTPButton@@IAEXIII@Z 0042e330 f   ToolkitPro1501vc60S:XTPButton.obj
 0001:0002d380       ?OnDropDown@CXTPButton@@MAEXXZ 0042e380 f   ToolkitPro1501vc60S:XTPButton.obj
 0001:0002d3d0       ?OnKillFocus@CXTPButton@@IAEXPAVCWnd@@@Z 0042e3d0 f   ToolkitPro1501vc60S:XTPButton.obj
 0001:0002d3d0       ?OnSetFocus@CXTPButton@@IAEXPAVCWnd@@@Z 0042e3d0 f   ToolkitPro1501vc60S:XTPButton.obj
 0001:0002d400       ?OnDefaultAndInvalidate@CXTPButton@@IAEJIJ@Z 0042e400 f   ToolkitPro1501vc60S:XTPButton.obj
 0001:0002d440       ?OnInvalidate@CXTPButton@@IAEXXZ 0042e440 f   ToolkitPro1501vc60S:XTPButton.obj
 0001:0002d470       ?OnPrintClient@CXTPButton@@IAEJIJ@Z 0042e470 f   ToolkitPro1501vc60S:XTPButton.obj
 0001:0002d4b0       ?OnPaint@CXTPButton@@IAEXXZ 0042e4b0 f   ToolkitPro1501vc60S:XTPButton.obj
 0001:0002d510       ?OnDraw@CXTPButton@@MAEXPAVCDC@@@Z 0042e510 f   ToolkitPro1501vc60S:XTPButton.obj
 0001:0002d6b0       ?DrawButton@CXTPButtonTheme@@UAEXPAVCDC@@PAVCXTPButton@@@Z 0042e6b0 f   ToolkitPro1501vc60S:XTPButton.obj
 0001:0002d7d0       ?DoDraw@CXTPButton@@MAEXPAVCDC@@@Z 0042e7d0 f   ToolkitPro1501vc60S:XTPButton.obj
 0001:0002d840       ?OnUpdateUIState@CXTPButton@@IAEJIJ@Z 0042e840 f   ToolkitPro1501vc60S:XTPButton.obj
 0001:0002d880       ?OnSetText@CXTPButton@@IAEJIJ@Z 0042e880 f   ToolkitPro1501vc60S:XTPButton.obj
 0001:0002d900       ?GetButtonTextColor@CXTPButton@@UAEKXZ 0042e900 f   ToolkitPro1501vc60S:XTPButton.obj
 0001:0002d910       ?GetButtonBackColor@CXTPButton@@UAEKXZ 0042e910 f   ToolkitPro1501vc60S:XTPButton.obj
 0001:0002d920       ?GetButtonStyle@CXTPButton@@QBEEXZ 0042e920 f   ToolkitPro1501vc60S:XTPButton.obj
 0001:0002d930       ?GetImageSize@CXTPButton@@UAE?AVCSize@@XZ 0042e930 f   ToolkitPro1501vc60S:XTPButton.obj
 0001:0002d970       ?DrawImage@CXTPButton@@UAEXPAVCDC@@VCRect@@@Z 0042e970 f   ToolkitPro1501vc60S:XTPButton.obj
 0001:0002daa0       ?OnWndMsg@CXTPButton@@MAEHIIJPAJ@Z 0042eaa0 f   ToolkitPro1501vc60S:XTPButton.obj
 0001:0002db20       ?GetTextAlignment@CXTPButton@@UBEHXZ 0042eb20 f   ToolkitPro1501vc60S:XTPButton.obj
 0001:0002db80       ?GetGlyphSize@CXTPButton@@QAE?AVCSize@@H@Z 0042eb80 f   ToolkitPro1501vc60S:XTPButton.obj
 0001:0002dc20       ?InternalTextChanged@CXTPButton@@MAEXXZ 0042ec20 f   ToolkitPro1501vc60S:XTPButton.obj
 0001:0002dca0       ?GetButtonText@CXTPButton@@UAE?AVCString@@XZ 0042eca0 f   ToolkitPro1501vc60S:XTPButton.obj
 0001:0002dd20       ?IsPushButton@CXTPButton@@QBEHXZ 0042ed20 f   ToolkitPro1501vc60S:XTPButton.obj
 0001:0002dd60       ?OnSetTheme@CXTPButton@@IAEJIJ@Z 0042ed60 f   ToolkitPro1501vc60S:XTPButton.obj
 0001:0002dd80       ?RefreshMetrics@CXTPButton@@MAEXXZ 0042ed80 f   ToolkitPro1501vc60S:XTPButton.obj
 0001:0002ddc0       ?SetTheme@CXTPButton@@UAEHW4XTPControlTheme@@@Z 0042edc0 f   ToolkitPro1501vc60S:XTPButton.obj
 0001:0002df80       ?GetChecked@CXTPButton@@UAEHXZ 0042ef80 f   ToolkitPro1501vc60S:XTPButton.obj
 0001:0002dfb0       ?SetIcon@CXTPButton@@UAEHVCSize@@IIH@Z 0042efb0 f   ToolkitPro1501vc60S:XTPButton.obj
 0001:0002dfe0       ?SetIcon@CXTPButton@@UAEHVCSize@@PBD1H@Z 0042efe0 f   ToolkitPro1501vc60S:XTPButton.obj
 0001:0002e0e0       ?SetIcon@CXTPButton@@QAEHVCSize@@PAVCXTPImageManagerIcon@@H@Z 0042f0e0 f   ToolkitPro1501vc60S:XTPButton.obj
 0001:0002e120       ?SetIcon@CXTPButton@@UAEHVCSize@@ABVCXTPImageManagerIconHandle@@1H@Z 0042f120 f   ToolkitPro1501vc60S:XTPButton.obj
 0001:0002e1f0       ?SetIcon@CXTPButton@@UAEHVCSize@@PAUHICON__@@1H@Z 0042f1f0 f   ToolkitPro1501vc60S:XTPButton.obj
 0001:0002e290       ?SetBitmap@CXTPButton@@UAEHVCSize@@IH@Z 0042f290 f   ToolkitPro1501vc60S:XTPButton.obj
 0001:0002e410       ?OnToolHitTest@CXTPButton@@MBEHVCPoint@@PAUtagTOOLINFOA@@@Z 0042f410 f   ToolkitPro1501vc60S:XTPButton.obj
 0001:0002e540       ?GetTooltip@CXTPButton@@QBE?AVCString@@XZ 0042f540 f i ToolkitPro1501vc60S:XTPButton.obj
 0001:0002e570       ??_ECButton@@UAEPAXI@Z     0042f570 f i ToolkitPro1501vc60S:XTPButton.obj
 0001:0002e570       ??_GCButton@@UAEPAXI@Z     0042f570 f i ToolkitPro1501vc60S:XTPButton.obj
 0001:0002e590       ?GetRuntimeClass@CXTPTabManagerItem@@UBEPAUCRuntimeClass@@XZ 0042f590 f   ToolkitPro1501vc60S:XTPTabManager.obj
 0001:0002e5a0       ??0CXTPTabManagerItem@@IAE@XZ 0042f5a0 f   ToolkitPro1501vc60S:XTPTabManager.obj
 0001:0002e660       ??_ECXTPTabManagerItem@@MAEPAXI@Z 0042f660 f i ToolkitPro1501vc60S:XTPTabManager.obj
 0001:0002e660       ??_GCXTPTabManagerItem@@MAEPAXI@Z 0042f660 f i ToolkitPro1501vc60S:XTPTabManager.obj
 0001:0002e680       ?OnRemoved@CXTPTabManagerItem@@MAEXXZ 0042f680 f   ToolkitPro1501vc60S:XTPTabManager.obj
 0001:0002e690       ??1CXTPTabManagerItem@@MAE@XZ 0042f690 f   ToolkitPro1501vc60S:XTPTabManager.obj
 0001:0002e720       ?Reposition@CXTPTabManagerItem@@IAEXXZ 0042f720 f   ToolkitPro1501vc60S:XTPTabManager.obj
 0001:0002e730       ?SetCaption@CXTPTabManagerItem@@QAEXPBD@Z 0042f730 f   ToolkitPro1501vc60S:XTPTabManager.obj
 0001:0002e7f0       ?SetColor@CXTPTabManagerItem@@QAEXK@Z 0042f7f0 f   ToolkitPro1501vc60S:XTPTabManager.obj
 0001:0002e840       ?GetCaption@CXTPTabManagerItem@@QBE?AVCString@@XZ 0042f840 f   ToolkitPro1501vc60S:XTPTabManager.obj
 0001:0002e870       ?GetColor@CXTPTabManagerItem@@QAEKXZ 0042f870 f   ToolkitPro1501vc60S:XTPTabManager.obj
 0001:0002e880       ?Remove@CXTPTabManagerItem@@QAEXXZ 0042f880 f   ToolkitPro1501vc60S:XTPTabManager.obj
 0001:0002e8a0       ?Select@CXTPTabManagerItem@@QAEXXZ 0042f8a0 f   ToolkitPro1501vc60S:XTPTabManager.obj
 0001:0002e8b0       ?GetHandle@CXTPTabManagerItem@@QBEPAUHWND__@@XZ 0042f8b0 f   ToolkitPro1501vc60S:XTPTabManager.obj
 0001:0002e8b0       ?GetHeight@CXTPResourceImage@@QBEHXZ 0042f8b0 f   ToolkitPro1501vc60S:XTPTabManager.obj
 0001:0002e8b0       ?GetBackgroundColor@CXTPStatusBarPane@@QBEKXZ 0042f8b0 f   ToolkitPro1501vc60S:XTPTabManager.obj
 0001:0002e8c0       ?GetTextColor@CXTPStatusBarPane@@QBEKXZ 0042f8c0 f   ToolkitPro1501vc60S:XTPTabManager.obj
 0001:0002e8c0       ?GetWidth@CXTPResourceImage@@QBEHXZ 0042f8c0 f   ToolkitPro1501vc60S:XTPTabManager.obj
 0001:0002e8c0       ?IsVisible@CXTPTabManagerItem@@QBEHXZ 0042f8c0 f   ToolkitPro1501vc60S:XTPTabManager.obj
 0001:0002e8d0       ?SetVisible@CXTPTabManagerItem@@UAEXH@Z 0042f8d0 f   ToolkitPro1501vc60S:XTPTabManager.obj
 0001:0002e8f0       ?GetBaseline@CXTPMarkupRun@@MBEHXZ 0042f8f0 f   ToolkitPro1501vc60S:XTPTabManager.obj
 0001:0002e8f0       ?IsEnabled@CXTPTabManagerItem@@QBEHXZ 0042f8f0 f   ToolkitPro1501vc60S:XTPTabManager.obj
 0001:0002e900       ?SetEnabled@CXTPTabManagerItem@@QAEXH@Z 0042f900 f   ToolkitPro1501vc60S:XTPTabManager.obj
 0001:0002e920       ?DrawRotatedImage@CXTPTabManagerItem@@AAEHPAVCDC@@VCRect@@PAVCXTPImageManagerIcon@@@Z 0042f920 f   ToolkitPro1501vc60S:XTPTabManager.obj
 0001:0002ebd0       ?DrawImage@CXTPTabManagerItem@@QAEXPAVCDC@@VCRect@@PAVCXTPImageManagerIcon@@@Z 0042fbd0 f   ToolkitPro1501vc60S:XTPTabManager.obj
 0001:0002ecc0       ?SetRect@CXTPTabManagerItem@@QAEXVCRect@@@Z 0042fcc0 f   ToolkitPro1501vc60S:XTPTabManager.obj
 0001:0002ed30       ??0CXTPTabManagerNavigateButtons@@QAE@XZ 0042fd30 f   ToolkitPro1501vc60S:XTPTabManager.obj
 0001:0002ed50       ??_ECXTPTabManagerNavigateButtons@@UAEPAXI@Z 0042fd50 f i ToolkitPro1501vc60S:XTPTabManager.obj
 0001:0002ed50       ??_GCXTPTabManagerNavigateButtons@@UAEPAXI@Z 0042fd50 f i ToolkitPro1501vc60S:XTPTabManager.obj
 0001:0002ed70       ??1CXTPTabManagerNavigateButtons@@UAE@XZ 0042fd70 f   ToolkitPro1501vc60S:XTPTabManager.obj
 0001:0002ede0       ?RemoveAll@CXTPTabManagerNavigateButtons@@QAEXXZ 0042fde0 f   ToolkitPro1501vc60S:XTPTabManager.obj
 0001:0002ee30       ??0CXTPTabManagerNavigateButton@@QAE@PAVCXTPTabManager@@IW4XTPTabNavigateButtonFlags@@@Z 0042fe30 f   ToolkitPro1501vc60S:XTPTabManager.obj
 0001:0002ee80       ??_ECXTPTabManagerNavigateButton@@MAEPAXI@Z 0042fe80 f i ToolkitPro1501vc60S:XTPTabManager.obj
 0001:0002ee80       ??_GCXTPTabManagerNavigateButton@@MAEPAXI@Z 0042fe80 f i ToolkitPro1501vc60S:XTPTabManager.obj
 0001:0002eea0       ??1CXTPTabManagerNavigateButton@@MAE@XZ 0042fea0 f   ToolkitPro1501vc60S:XTPTabManager.obj
 0001:0002eec0       ?GetSize@CXTPTabManagerNavigateButton@@UBE?AVCSize@@XZ 0042fec0 f   ToolkitPro1501vc60S:XTPTabManager.obj
 0001:0002eef0       ?AdjustWidth@CXTPTabManagerNavigateButton@@UAEXAAH@Z 0042fef0 f   ToolkitPro1501vc60S:XTPTabManager.obj
 0001:0002ef60       ?SetRect@CXTPTabManagerNavigateButton@@QAEXVCRect@@@Z 0042ff60 f   ToolkitPro1501vc60S:XTPTabManager.obj
 0001:0002ef90       ?Reposition@CXTPTabManagerNavigateButton@@UAEXAAVCRect@@@Z 0042ff90 f   ToolkitPro1501vc60S:XTPTabManager.obj
 0001:0002f090       ?Draw@CXTPTabManagerNavigateButton@@QAEXPAVCDC@@@Z 00430090 f   ToolkitPro1501vc60S:XTPTabManager.obj
 0001:0002f0f0       ?PerformClick@CXTPTabManagerNavigateButton@@UAEXPAUHWND__@@VCPoint@@@Z 004300f0 f   ToolkitPro1501vc60S:XTPTabManager.obj
 0001:0002f260       ?OnExecute@CXTPTabManagerNavigateButton@@UAEXH@Z 00430260 f   ToolkitPro1501vc60S:XTPTabManager.obj
 0001:0002f280       ??0CRowIndexer@CXTPTabManager@@QAE@PAV1@@Z 00430280 f   ToolkitPro1501vc60S:XTPTabManager.obj
 0001:0002f2b0       ??1CRowIndexer@CXTPTabManager@@QAE@XZ 004302b0 f   ToolkitPro1501vc60S:XTPTabManager.obj
 0001:0002f2b0       ??1SLIDERTICKS@CXTPScrollBase@@QAE@XZ 004302b0 f   ToolkitPro1501vc60S:XTPTabManager.obj
 0001:0002f2d0       ?CreateIndexer@CRowIndexer@CXTPTabManager@@QAEPAUROW_ITEMS@2@H@Z 004302d0 f   ToolkitPro1501vc60S:XTPTabManager.obj
 0001:0002f330       ?DrawEntry@CNavigateButtonClose@CXTPTabManager@@MAEXPAVCDC@@VCRect@@@Z 00430330 f   ToolkitPro1501vc60S:XTPTabManager.obj
 0001:0002f400       ?DrawEntry@CNavigateButtonArrowRight@CXTPTabManager@@MAEXPAVCDC@@VCRect@@@Z 00430400 f   ToolkitPro1501vc60S:XTPTabManager.obj
 0001:0002f4c0       ?AdjustWidth@CNavigateButtonArrow@CXTPTabManager@@MAEXAAH@Z 004304c0 f   ToolkitPro1501vc60S:XTPTabManager.obj
 0001:0002f520       ?Reposition@CNavigateButtonArrow@CXTPTabManager@@MAEXAAVCRect@@@Z 00430520 f   ToolkitPro1501vc60S:XTPTabManager.obj
 0001:0002f640       ?Reposition@CNavigateButtonArrowRight@CXTPTabManager@@MAEXAAVCRect@@@Z 00430640 f   ToolkitPro1501vc60S:XTPTabManager.obj
 0001:0002f740       ?OnExecute@CNavigateButtonArrowRight@CXTPTabManager@@MAEXH@Z 00430740 f   ToolkitPro1501vc60S:XTPTabManager.obj
 0001:0002f760       ?OnScrollHeader@CXTPTabManager@@UAEXH@Z 00430760 f   ToolkitPro1501vc60S:XTPTabManager.obj
 0001:0002f790       ?DrawEntry@CNavigateButtonArrowLeft@CXTPTabManager@@MAEXPAVCDC@@VCRect@@@Z 00430790 f   ToolkitPro1501vc60S:XTPTabManager.obj
 0001:0002f850       ?Reposition@CNavigateButtonArrowLeft@CXTPTabManager@@MAEXAAVCRect@@@Z 00430850 f   ToolkitPro1501vc60S:XTPTabManager.obj
 0001:0002f8c0       ?OnExecute@CNavigateButtonArrowLeft@CXTPTabManager@@MAEXH@Z 004308c0 f   ToolkitPro1501vc60S:XTPTabManager.obj
 0001:0002f8e0       ??0CXTPTabManager@@QAE@XZ  004308e0 f   ToolkitPro1501vc60S:XTPTabManager.obj
 0001:0002fad0       ?OnPropertyChanged@CXTPTabManagerAtom@@UAEXXZ 00430ad0 f i ToolkitPro1501vc60S:XTPTabManager.obj
 0001:0002fae0       ??1CXTPTabManagerAtom@@MAE@XZ 00430ae0 f i ToolkitPro1501vc60S:XTPTabManager.obj
 0001:0002faf0       ??_GCXTPTabManagerAtom@@MAEPAXI@Z 00430af0 f i ToolkitPro1501vc60S:XTPTabManager.obj
 0001:0002faf0       ??_ECXTPTabManagerAtom@@MAEPAXI@Z 00430af0 f i ToolkitPro1501vc60S:XTPTabManager.obj
 0001:0002fb10       ?OnNavigateButtonClick@CXTPTabManager@@MAEXPAVCXTPTabManagerNavigateButton@@@Z 00430b10 f i ToolkitPro1501vc60S:XTPTabManager.obj
 0001:0002fb30       ?IsAllowReorder@CXTPTabManager@@UBEHXZ 00430b30 f i ToolkitPro1501vc60S:XTPTabManager.obj
 0001:0002fb40       ?SetAllowReorder@CXTPTabManager@@UAEXH@Z 00430b40 f i ToolkitPro1501vc60S:XTPTabManager.obj
 0001:0002fb50       ?DrawParentBackground@CXTPTabManager@@UAEHPAVCDC@@VCRect@@@Z 00430b50 f i ToolkitPro1501vc60S:XTPTabManager.obj
 0001:0002fb60       ?GetMarkupContext@CXTPTabManager@@UBEPAVCXTPMarkupContext@@XZ 00430b60 f i ToolkitPro1501vc60S:XTPTabManager.obj
 0001:0002fb70       ??_ECNavigateButtonArrowLeft@CXTPTabManager@@UAEPAXI@Z 00430b70 f i ToolkitPro1501vc60S:XTPTabManager.obj
 0001:0002fb70       ??_GCNavigateButtonArrowRight@CXTPTabManager@@UAEPAXI@Z 00430b70 f i ToolkitPro1501vc60S:XTPTabManager.obj
 0001:0002fb70       ??_ECNavigateButtonTabClose@CXTPTabManager@@UAEPAXI@Z 00430b70 f i ToolkitPro1501vc60S:XTPTabManager.obj
 0001:0002fb70       ??_GCNavigateButtonTabClose@CXTPTabManager@@UAEPAXI@Z 00430b70 f i ToolkitPro1501vc60S:XTPTabManager.obj
 0001:0002fb70       ??_ECNavigateButtonClose@CXTPTabManager@@UAEPAXI@Z 00430b70 f i ToolkitPro1501vc60S:XTPTabManager.obj
 0001:0002fb70       ??_ECNavigateButtonArrowRight@CXTPTabManager@@UAEPAXI@Z 00430b70 f i ToolkitPro1501vc60S:XTPTabManager.obj
 0001:0002fb70       ??_GCNavigateButtonArrowLeft@CXTPTabManager@@UAEPAXI@Z 00430b70 f i ToolkitPro1501vc60S:XTPTabManager.obj
 0001:0002fb70       ??_GCNavigateButtonClose@CXTPTabManager@@UAEPAXI@Z 00430b70 f i ToolkitPro1501vc60S:XTPTabManager.obj
 0001:0002fb90       ??_GCXTPTabManager@@UAEPAXI@Z 00430b90 f i ToolkitPro1501vc60S:XTPTabManager.obj
 0001:0002fb90       ??_ECXTPTabManager@@UAEPAXI@Z 00430b90 f i ToolkitPro1501vc60S:XTPTabManager.obj
 0001:0002fbb0       ??1CXTPTabManager@@UAE@XZ  00430bb0 f   ToolkitPro1501vc60S:XTPTabManager.obj
 0001:0002fc90       ?SetActive@CXTPTabManager@@QAEXH@Z 00430c90 f   ToolkitPro1501vc60S:XTPTabManager.obj
 0001:0002fcb0       ?IsNavigateButtonVisible@CXTPTabManager@@MAEHPAVCXTPTabManagerNavigateButton@@@Z 00430cb0 f   ToolkitPro1501vc60S:XTPTabManager.obj
 0001:0002fcf0       ?IsNavigateButtonAutomaticVisible@CXTPTabManager@@MAEHPAVCXTPTabManagerNavigateButton@@@Z 00430cf0 f   ToolkitPro1501vc60S:XTPTabManager.obj
 0001:0002fd30       ?FindNavigateButton@CXTPTabManager@@QBEPAVCXTPTabManagerNavigateButton@@I@Z 00430d30 f   ToolkitPro1501vc60S:XTPTabManager.obj
 0001:0002fd70       ?SetHeaderOffset@CXTPTabManager@@QAEXH@Z 00430d70 f   ToolkitPro1501vc60S:XTPTabManager.obj
 0001:0002fd90       ?GetItemsLength@CXTPTabManager@@UBEHXZ 00430d90 f   ToolkitPro1501vc60S:XTPTabManager.obj
 0001:0002fdf0       ?DeleteAllItems@CXTPTabManager@@QAEXXZ 00430df0 f   ToolkitPro1501vc60S:XTPTabManager.obj
 0001:0002fe50       ?DeleteItem@CXTPTabManager@@QAEHH@Z 00430e50 f   ToolkitPro1501vc60S:XTPTabManager.obj
 0001:0002fee0       ?AddItem@CXTPTabManager@@IAEPAVCXTPTabManagerItem@@HPAV2@@Z 00430ee0 f   ToolkitPro1501vc60S:XTPTabManager.obj
 0001:000300b0       ??1CNavigateButtonTabClose@CXTPTabManager@@UAE@XZ 004310b0 f i ToolkitPro1501vc60S:XTPTabManager.obj
 0001:000300b0       ??1CNavigateButtonArrowRight@CXTPTabManager@@UAE@XZ 004310b0 f i ToolkitPro1501vc60S:XTPTabManager.obj
 0001:000300b0       ??1CNavigateButtonArrowLeft@CXTPTabManager@@UAE@XZ 004310b0 f i ToolkitPro1501vc60S:XTPTabManager.obj
 0001:000300b0       ??1CNavigateButtonClose@CXTPTabManager@@UAE@XZ 004310b0 f i ToolkitPro1501vc60S:XTPTabManager.obj
 0001:000300c0       ?OnItemsChanged@CXTPTabManager@@UAEXXZ 004310c0 f   ToolkitPro1501vc60S:XTPTabManager.obj
 0001:000300f0       ?GetItemCaption@CXTPTabManager@@UBE?AVCString@@PBVCXTPTabManagerItem@@@Z 004310f0 f   ToolkitPro1501vc60S:XTPTabManager.obj
 0001:00030120       ?GetItemIcon@CXTPTabManager@@UBEPAUHICON__@@PBVCXTPTabManagerItem@@@Z 00431120 f   ToolkitPro1501vc60S:XTPTabManager.obj
 0001:00030130       ?GetItemColor@CXTPTabManager@@UBEKPBVCXTPTabManagerItem@@@Z 00431130 f   ToolkitPro1501vc60S:XTPTabManager.obj
 0001:00030160       ?SetCurSel@CXTPTabManager@@QAEXH@Z 00431160 f   ToolkitPro1501vc60S:XTPTabManager.obj
 0001:000301b0       ?GetCurSel@CXTPTabManager@@QBEHXZ 004311b0 f   ToolkitPro1501vc60S:XTPTabManager.obj
 0001:000301c0       ?SetSelectedItem@CXTPTabManager@@UAEXPAVCXTPTabManagerItem@@@Z 004311c0 f   ToolkitPro1501vc60S:XTPTabManager.obj
 0001:000301f0       ?EnsureVisible@CXTPTabManager@@QAEXPAVCXTPTabManagerItem@@@Z 004311f0 f   ToolkitPro1501vc60S:XTPTabManager.obj
 0001:00030210       ?HitTest@CXTPTabManager@@QBEPAVCXTPTabManagerItem@@VCPoint@@@Z 00431210 f   ToolkitPro1501vc60S:XTPTabManager.obj
 0001:000302e0       ?GetPosition@CXTPTabManager@@UBE?AW4XTPTabPosition@@XZ 004312e0 f   ToolkitPro1501vc60S:XTPTabManager.obj
 0001:000302f0       ?GetLayout@CXTPTabManager@@QBE?AW4XTPTabLayoutStyle@@XZ 004312f0 f   ToolkitPro1501vc60S:XTPTabManager.obj
 0001:00030300       ?TrackClick@CXTPTabManager@@IAEXPAUHWND__@@VCPoint@@PAVCXTPTabManagerItem@@@Z 00431300 f   ToolkitPro1501vc60S:XTPTabManager.obj
 0001:000304c0       ?ReOrder@CXTPTabManager@@MAEXPAUHWND__@@VCPoint@@PAVCXTPTabManagerItem@@@Z 004314c0 f   ToolkitPro1501vc60S:XTPTabManager.obj
 0001:00030730       ?OnItemClick@CXTPTabManager@@MAEXPAVCXTPTabManagerItem@@@Z 00431730 f   ToolkitPro1501vc60S:XTPTabManager.obj
 0001:00030740       ?SetFocusedItem@CXTPTabManager@@UAEXPAVCXTPTabManagerItem@@@Z 00431740 f   ToolkitPro1501vc60S:XTPTabManager.obj
 0001:00030770       ?FindNextFocusable@CXTPTabManager@@QBEPAVCXTPTabManagerItem@@HH@Z 00431770 f   ToolkitPro1501vc60S:XTPTabManager.obj
 0001:000307c0       ?PerformKeyDown@CXTPTabManager@@UAEHPAUHWND__@@I@Z 004317c0 f   ToolkitPro1501vc60S:XTPTabManager.obj
 0001:00030900       ?HitTestNavigateButton@CXTPTabManager@@QBEPAVCXTPTabManagerNavigateButton@@VCPoint@@HPAH@Z 00431900 f   ToolkitPro1501vc60S:XTPTabManager.obj
 0001:000309d0       ?PerformClick@CXTPTabManager@@QAEHPAUHWND__@@VCPoint@@H@Z 004319d0 f   ToolkitPro1501vc60S:XTPTabManager.obj
 0001:00030aa0       ?PerformMouseMove@CXTPTabManager@@QAEXPAUHWND__@@VCPoint@@@Z 00431aa0 f   ToolkitPro1501vc60S:XTPTabManager.obj
 0001:00030ca0       ?GetItemTooltip@CXTPTabManager@@UBE?AVCString@@PBVCXTPTabManagerItem@@@Z 00431ca0 f   ToolkitPro1501vc60S:XTPTabManager.obj
 0001:00030cd0       ?PerformToolHitTest@CXTPTabManager@@UBEHPAUHWND__@@VCPoint@@PAUtagTOOLINFOA@@@Z 00431cd0 f   ToolkitPro1501vc60S:XTPTabManager.obj
 0001:00030eb0       ?GetTooltip@CXTPTabManagerNavigateButton@@QBE?AVCString@@XZ 00431eb0 f i ToolkitPro1501vc60S:XTPTabManager.obj
 0001:00030eb0       ?GetCaption@CXTPControlGalleryItem@@QBE?AVCString@@XZ 00431eb0 f i ToolkitPro1501vc60S:XTPTabManager.obj
 0001:00030ed0       ?GetItemMetrics@CXTPTabManager@@UBEXPAVCSize@@00@Z 00431ed0 f   ToolkitPro1501vc60S:XTPTabManager.obj
 0001:00030f20       ?IsDrawStaticFrame@CXTPTabManager@@UBEHXZ 00431f20 f   ToolkitPro1501vc60S:XTPTabManager.obj
 0001:00030f30       ?SetColor@CXTPTabManager@@QAEPAVCColorSet@CXTPTabPaintManager@@W4XTPTabColorStyle@@@Z 00431f30 f   ToolkitPro1501vc60S:XTPTabManager.obj
 0001:00030f60       ??1?$CArray@PAVCXTPTabManagerNavigateButton@@PAV1@@@UAE@XZ 00431f60 f i ToolkitPro1501vc60S:XTPTabManager.obj
 0001:00030fb0       ??1?$CArray@PAVCXTPTabManagerItem@@PAV1@@@UAE@XZ 00431fb0 f i ToolkitPro1501vc60S:XTPTabManager.obj
 0001:00031000       ??1?$CArray@VCRect@@AAV1@@@UAE@XZ 00432000 f i ToolkitPro1501vc60S:XTPTabManager.obj
 0001:00031050       ?Serialize@?$CArray@VCRect@@AAV1@@@UAEXAAVCArchive@@@Z 00432050 f i ToolkitPro1501vc60S:XTPTabManager.obj
 0001:000311d0       ??_G?$CArray@PAVCXTPTabManagerNavigateButton@@PAV1@@@UAEPAXI@Z 004321d0 f i ToolkitPro1501vc60S:XTPTabManager.obj
 0001:000311d0       ??_E?$CArray@PAVCXTPTabManagerNavigateButton@@PAV1@@@UAEPAXI@Z 004321d0 f i ToolkitPro1501vc60S:XTPTabManager.obj
 0001:000311f0       ??_E?$CArray@PAVCXTPTabManagerItem@@PAV1@@@UAEPAXI@Z 004321f0 f i ToolkitPro1501vc60S:XTPTabManager.obj
 0001:000311f0       ??_G?$CArray@PAVCXTPTabManagerItem@@PAV1@@@UAEPAXI@Z 004321f0 f i ToolkitPro1501vc60S:XTPTabManager.obj
 0001:00031210       ??_G?$CArray@VCRect@@AAV1@@@UAEPAXI@Z 00432210 f i ToolkitPro1501vc60S:XTPTabManager.obj
 0001:00031210       ??_E?$CArray@VCRect@@AAV1@@@UAEPAXI@Z 00432210 f i ToolkitPro1501vc60S:XTPTabManager.obj
 0001:00031230       ?SetAtGrow@?$CArray@VCRect@@AAV1@@@QAEXHAAVCRect@@@Z 00432230 f i ToolkitPro1501vc60S:XTPTabManager.obj
 0001:00031390       ?ConstructElements@@YGXPAVCRect@@H@Z 00432390 f i ToolkitPro1501vc60S:XTPTabManager.obj
 0001:000313b0       ?OnCustomDraw@CXTPListViewBase@@IAEXPAUtagNMHDR@@PAJ@Z 004323b0 f i ToolkitPro1501vc60S:XTPListCtrlView.obj
 0001:000313d0       ?OnSettingChange@CXTPListViewBase@@IAEXIPBD@Z 004323d0 f i ToolkitPro1501vc60S:XTPListCtrlView.obj
 0001:00031400       ?OnDestroy@CXTPListViewBase@@IAEXXZ 00432400 f i ToolkitPro1501vc60S:XTPListCtrlView.obj
 0001:00031420       ?OnEraseBkgnd@CXTPListViewBase@@IAEHPAVCDC@@@Z 00432420 f i ToolkitPro1501vc60S:XTPListCtrlView.obj
 0001:00031430       ?OnPaint@CXTPListViewBase@@IAEXXZ 00432430 f i ToolkitPro1501vc60S:XTPListCtrlView.obj
 0001:00031440       ?OnPrintClient@CXTPListViewBase@@IAEJIJ@Z 00432440 f i ToolkitPro1501vc60S:XTPListCtrlView.obj
 0001:00031460       ?OnCreate@CXTPListViewBase@@IAEHPAUtagCREATESTRUCTA@@@Z 00432460 f i ToolkitPro1501vc60S:XTPListCtrlView.obj
 0001:00031490       ?OnCustomDraw@CXTPListCtrlBase@@IAEXPAUtagNMHDR@@PAJ@Z 00432490 f i ToolkitPro1501vc60S:XTPListCtrlView.obj
 0001:000314b0       ?OnSettingChange@CXTPListCtrlBase@@IAEXIPBD@Z 004324b0 f i ToolkitPro1501vc60S:XTPListCtrlView.obj
 0001:000314e0       ?OnDestroy@CXTPListCtrlBase@@IAEXXZ 004324e0 f i ToolkitPro1501vc60S:XTPListCtrlView.obj
 0001:00031500       ?OnEraseBkgnd@CXTPListCtrlBase@@IAEHPAVCDC@@@Z 00432500 f i ToolkitPro1501vc60S:XTPListCtrlView.obj
 0001:00031500       ?OnEraseBkgnd@CXTPTabCtrlBase@@IAEHPAVCDC@@@Z 00432500 f i ToolkitPro1501vc60S:XTPListCtrlView.obj
 0001:00031510       ?OnPaint@CXTPListCtrlBase@@IAEXXZ 00432510 f i ToolkitPro1501vc60S:XTPListCtrlView.obj
 0001:00031520       ?OnPrintClient@CXTPListCtrlBase@@IAEJIJ@Z 00432520 f i ToolkitPro1501vc60S:XTPListCtrlView.obj
 0001:00031540       ?OnCreate@CXTPListCtrlBase@@IAEHPAUtagCREATESTRUCTA@@@Z 00432540 f i ToolkitPro1501vc60S:XTPListCtrlView.obj
 0001:00031570       ??0CXTPListView@@QAE@XZ    00432570 f   ToolkitPro1501vc60S:XTPListCtrlView.obj
 0001:000315f0       ??1CXTPListViewBase@@UAE@XZ 004325f0 f i ToolkitPro1501vc60S:XTPListCtrlView.obj
 0001:00031650       ??_ECXTPListView@@UAEPAXI@Z 00432650 f i ToolkitPro1501vc60S:XTPListCtrlView.obj
 0001:00031650       ??_GCXTPListView@@UAEPAXI@Z 00432650 f i ToolkitPro1501vc60S:XTPListCtrlView.obj
 0001:00031670       ??1CXTPListView@@UAE@XZ    00432670 f   ToolkitPro1501vc60S:XTPListCtrlView.obj
 0001:000316e0       ?CreateObject@CXTPListView@@SGPAVCObject@@XZ 004326e0 f   ToolkitPro1501vc60S:XTPListCtrlView.obj
 0001:00031740       ?GetRuntimeClass@CXTPListView@@UBEPAUCRuntimeClass@@XZ 00432740 f   ToolkitPro1501vc60S:XTPListCtrlView.obj
 0001:00031750       ?GetMessageMap@CXTPListView@@MBEPBUAFX_MSGMAP@@XZ 00432750 f   ToolkitPro1501vc60S:XTPListCtrlView.obj
 0001:00031760       ??0CXTPListCtrl@@QAE@XZ    00432760 f   ToolkitPro1501vc60S:XTPListCtrlView.obj
 0001:000317e0       ?GetExtendedStyle@CXTPListCtrlBase@@UAEKXZ 004327e0 f i ToolkitPro1501vc60S:XTPListCtrlView.obj
 0001:00031800       ?SetExtendedStyle@CXTPListCtrlBase@@UAEXK@Z 00432800 f i ToolkitPro1501vc60S:XTPListCtrlView.obj
 0001:00031830       ?OnNotify@CXTPListCtrlBase@@MAEHIJPAJ@Z 00432830 f i ToolkitPro1501vc60S:XTPListCtrlView.obj
 0001:00031850       ?Init@CXTPListCtrlBase@@MAE_NXZ 00432850 f i ToolkitPro1501vc60S:XTPListCtrlView.obj
 0001:00031860       ?PreSubclassWindow@CXTPListCtrlBase@@MAEXXZ 00432860 f i ToolkitPro1501vc60S:XTPListCtrlView.obj
 0001:00031880       ?PreCreateWindow@CXTPListCtrlBase@@MAEHAAUtagCREATESTRUCTA@@@Z 00432880 f i ToolkitPro1501vc60S:XTPListCtrlView.obj
 0001:000318b0       ??1CXTPListCtrlBase@@UAE@XZ 004328b0 f i ToolkitPro1501vc60S:XTPListCtrlView.obj
 0001:00031900       ??_GCXTPListCtrl@@UAEPAXI@Z 00432900 f i ToolkitPro1501vc60S:XTPListCtrlView.obj
 0001:00031900       ??_ECXTPListCtrl@@UAEPAXI@Z 00432900 f i ToolkitPro1501vc60S:XTPListCtrlView.obj
 0001:00031920       ??1CXTPListCtrl@@UAE@XZ    00432920 f   ToolkitPro1501vc60S:XTPListCtrlView.obj
 0001:00031980       ?GetRuntimeClass@CXTPListCtrl@@UBEPAUCRuntimeClass@@XZ 00432980 f   ToolkitPro1501vc60S:XTPListCtrlView.obj
 0001:00031990       ?GetMessageMap@CXTPListCtrl@@MBEPBUAFX_MSGMAP@@XZ 00432990 f   ToolkitPro1501vc60S:XTPListCtrlView.obj
 0001:000319a0       ?OnNotify@CXTPListViewBase@@OEI@AEHIJPAJ@Z 004329a0 f i ToolkitPro1501vc60S:XTPListCtrlView.obj
 0001:000319b0       ?OnNotify@CXTPListCtrlBase@@ODM@AEHIJPAJ@Z 004329b0 f i ToolkitPro1501vc60S:XTPListCtrlView.obj
 0001:000319c0       ??_ECXTPListView@@WEI@AEPAXI@Z 004329c0 f i ToolkitPro1501vc60S:XTPListCtrlView.obj
 0001:000319d0       ??_ECXTPListCtrl@@WDM@AEPAXI@Z 004329d0 f i ToolkitPro1501vc60S:XTPListCtrlView.obj
 0001:000319e0       ??_ECListCtrl@@UAEPAXI@Z   004329e0 f i ToolkitPro1501vc60S:XTPListCtrlView.obj
 0001:000319e0       ??_GCListCtrl@@UAEPAXI@Z   004329e0 f i ToolkitPro1501vc60S:XTPListCtrlView.obj
 0001:00031a00       ??_GCListView@@UAEPAXI@Z   00432a00 f i ToolkitPro1501vc60S:XTPListCtrlView.obj
 0001:00031a00       ??_ECListView@@UAEPAXI@Z   00432a00 f i ToolkitPro1501vc60S:XTPListCtrlView.obj
 0001:00031a20       ??1CListView@@UAE@XZ       00432a20 f i ToolkitPro1501vc60S:XTPListCtrlView.obj
 0001:00031a70       ??0CXTPListBase@@QAE@XZ    00432a70 f   ToolkitPro1501vc60S:XTPListBase.obj
 0001:00031b30       ??_ECXTPListBase@@UAEPAXI@Z 00432b30 f i ToolkitPro1501vc60S:XTPListBase.obj
 0001:00031b30       ??_GCXTPListBase@@UAEPAXI@Z 00432b30 f i ToolkitPro1501vc60S:XTPListBase.obj
 0001:00031b50       ??1CXTPListBase@@UAE@XZ    00432b50 f   ToolkitPro1501vc60S:XTPListBase.obj
 0001:00031c00       ?RefreshMetrics@CXTPListBase@@IAEXXZ 00432c00 f   ToolkitPro1501vc60S:XTPListBase.obj
 0001:00031c50       ?Lookup@CXTPListBase@@UAEPAUROWCOLOR@1@H@Z 00432c50 f   ToolkitPro1501vc60S:XTPListBase.obj
 0001:00031c80       ?ImplAttach@CXTPListBase@@IAEXPAVCListCtrl@@@Z 00432c80 f   ToolkitPro1501vc60S:XTPListBase.obj
 0001:00031c90       ?MoveRow@CXTPListBase@@UAE_NHH@Z 00432c90 f   ToolkitPro1501vc60S:XTPListBase.obj
 0001:00031ce0       ?CopyRow@CXTPListBase@@UAEHHH@Z 00432ce0 f   ToolkitPro1501vc60S:XTPListBase.obj
 0001:00031e20       ?GetColumnCount@CXTPListBase@@UAEHXZ 00432e20 f   ToolkitPro1501vc60S:XTPListBase.obj
 0001:00031e70       ?ModifyExtendedStyle@CXTPListBase@@UAEHKK@Z 00432e70 f   ToolkitPro1501vc60S:XTPListBase.obj
 0001:00031ed0       ?OnCustomDraw@CXTPListBase@@IAEXPAUtagNMHDR@@PAJ@Z 00432ed0 f   ToolkitPro1501vc60S:XTPListBase.obj
 0001:00032090       ?SetSortImage@CXTPListBase@@UAEHHH@Z 00433090 f   ToolkitPro1501vc60S:XTPListBase.obj
 0001:00032100       ?OnNotify@CXTPListBase@@MAEHIJPAJ@Z 00433100 f   ToolkitPro1501vc60S:XTPListBase.obj
 0001:00032200       ?SortList@CXTPListBase@@UAE_NH_N@Z 00433200 f   ToolkitPro1501vc60S:XTPListBase.obj
 0001:00032210       ?AddColumn@CXTPListBase@@UAEHPBDHH@Z 00433210 f   ToolkitPro1501vc60S:XTPListBase.obj
 0001:000322c0       ?BuildColumns@CXTPListBase@@UAE_NHPAH0@Z 004332c0 f   ToolkitPro1501vc60S:XTPListBase.obj
 0001:00032370       ?BuildColumns@CXTPListBase@@UAE_NHPAHPAVCString@@@Z 00433370 f   ToolkitPro1501vc60S:XTPListBase.obj
 0001:000323d0       ?HitTestEx@CXTPListBase@@UBEHAAVCPoint@@PAH@Z 004333d0 f   ToolkitPro1501vc60S:XTPListBase.obj
 0001:00032590       ?SubclassHeader@CXTPListBase@@UAE_N_N@Z 00433590 f   ToolkitPro1501vc60S:XTPListBase.obj
 0001:00032610       ?AutoSaveColumns@CXTPListBase@@UAEXPBD00@Z 00433610 f   ToolkitPro1501vc60S:XTPListBase.obj
 0001:00032670       ?SaveColumnWidths@CXTPListBase@@UAEXXZ 00433670 f   ToolkitPro1501vc60S:XTPListBase.obj
 0001:000327c0       ?LoadColumnWidths@CXTPListBase@@UAEXXZ 004337c0 f   ToolkitPro1501vc60S:XTPListBase.obj
 0001:00032860       ?SetStoredWidth@CXTPListBase@@UAEXH@Z 00433860 f   ToolkitPro1501vc60S:XTPListBase.obj
 0001:00032890       ?GetStoredWidth@CXTPListBase@@UAEHH@Z 00433890 f   ToolkitPro1501vc60S:XTPListBase.obj
 0001:00032990       ?OnDestroy@CXTPListBase@@IAEXXZ 00433990 f   ToolkitPro1501vc60S:XTPListBase.obj
 0001:000329a0       ?AutoSizeColumn@CXTPListBase@@UAEXH@Z 004339a0 f   ToolkitPro1501vc60S:XTPListBase.obj
 0001:00032c00       ?OnPrintClient@CXTPListBase@@IAEJIJ@Z 00433c00 f   ToolkitPro1501vc60S:XTPListBase.obj
 0001:00032c40       ?OnPaint@CXTPListBase@@IAEXXZ 00433c40 f   ToolkitPro1501vc60S:XTPListBase.obj
 0001:00032f10       ?Init@CXTPListBase@@MAE_NXZ 00433f10 f   ToolkitPro1501vc60S:XTPListBase.obj
 0001:00032f80       ?OnSettingChange@CXTPListBase@@IAEXIPBD@Z 00433f80 f   ToolkitPro1501vc60S:XTPListBase.obj
 0001:00032f90       ?_xtGetHeaderCtrl@CXTPListBase@@QBEPAVCHeaderCtrl@@XZ 00433f90 f   ToolkitPro1501vc60S:XTPListBase.obj
 0001:00032fb0       ?XTPGetHeaderCtrl@CXTPListBase@@QBEPAVCXTPHeaderCtrl@@XZ 00433fb0 f   ToolkitPro1501vc60S:XTPListBase.obj
 0001:00032fd0       ??1?$CList@UROWCOLOR@CXTPListBase@@AAU12@@@UAE@XZ 00433fd0 f i ToolkitPro1501vc60S:XTPListBase.obj
 0001:00033030       ?Serialize@?$CList@UROWCOLOR@CXTPListBase@@AAU12@@@UAEXAAVCArchive@@@Z 00434030 f i ToolkitPro1501vc60S:XTPListBase.obj
 0001:00033170       ??_G?$CList@UROWCOLOR@CXTPListBase@@AAU12@@@UAEPAXI@Z 00434170 f i ToolkitPro1501vc60S:XTPListBase.obj
 0001:00033170       ??_E?$CList@UROWCOLOR@CXTPListBase@@AAU12@@@UAEPAXI@Z 00434170 f i ToolkitPro1501vc60S:XTPListBase.obj
 0001:00033190       ??0CXTPHeaderCtrl@@QAE@XZ  00434190 f   ToolkitPro1501vc60S:XTPHeaderCtrl.obj
 0001:00033250       ??_GCXTPHeaderCtrl@@UAEPAXI@Z 00434250 f i ToolkitPro1501vc60S:XTPHeaderCtrl.obj
 0001:00033250       ??_ECXTPHeaderCtrl@@UAEPAXI@Z 00434250 f i ToolkitPro1501vc60S:XTPHeaderCtrl.obj
 0001:00033270       ??1CXTPHeaderCtrl@@UAE@XZ  00434270 f   ToolkitPro1501vc60S:XTPHeaderCtrl.obj
 0001:00033330       ?GetMessageMap@CXTPHeaderCtrl@@MBEPBUAFX_MSGMAP@@XZ 00434330 f   ToolkitPro1501vc60S:XTPHeaderCtrl.obj
 0001:00033340       ?GetRuntimeClass@CXTPHeaderCtrl@@UBEPAUCRuntimeClass@@XZ 00434340 f   ToolkitPro1501vc60S:XTPHeaderCtrl.obj
 0001:00033350       ?OnThemeChanged@CXTPHeaderCtrl@@UAEXXZ 00434350 f   ToolkitPro1501vc60S:XTPHeaderCtrl.obj
 0001:00033360       ?IsThemeValid@CXTPHeaderCtrl@@QBEHXZ 00434360 f   ToolkitPro1501vc60S:XTPHeaderCtrl.obj
 0001:00033370       ?ApplyFieldWidths@CXTPHeaderCtrl@@MAEXH@Z 00434370 f   ToolkitPro1501vc60S:XTPHeaderCtrl.obj
 0001:00033400       ?FitFieldWidths@CXTPHeaderCtrl@@MAEXH@Z 00434400 f   ToolkitPro1501vc60S:XTPHeaderCtrl.obj
 0001:00033470       ?OnWindowPosChanging@CXTPHeaderCtrl@@IAEXPAUtagWINDOWPOS@@@Z 00434470 f   ToolkitPro1501vc60S:XTPHeaderCtrl.obj
 0001:00033500       ?OnSetCursor@CXTPHeaderCtrl@@IAEHPAVCWnd@@II@Z 00434500 f   ToolkitPro1501vc60S:XTPHeaderCtrl.obj
 0001:00033630       ?OnItemchanging@CXTPHeaderCtrl@@IAEHPAUtagNMHDR@@PAJ@Z 00434630 f   ToolkitPro1501vc60S:XTPHeaderCtrl.obj
 0001:00033690       ?IsColFrozen@CXTPHeaderCtrl@@QAE_NH@Z 00434690 f   ToolkitPro1501vc60S:XTPHeaderCtrl.obj
 0001:000336b0       ?DetermineRTL@CXTPHeaderCtrl@@MAE_NXZ 004346b0 f   ToolkitPro1501vc60S:XTPHeaderCtrl.obj
 0001:00033730       ?GetFrozenColWidth@CXTPHeaderCtrl@@MAEHXZ 00434730 f   ToolkitPro1501vc60S:XTPHeaderCtrl.obj
 0001:00033790       ?OnPaint@CXTPHeaderCtrl@@IAEXXZ 00434790 f   ToolkitPro1501vc60S:XTPHeaderCtrl.obj
 0001:00033850       ?OnPrintClient@CXTPHeaderCtrl@@IAEJIJ@Z 00434850 f   ToolkitPro1501vc60S:XTPHeaderCtrl.obj
 0001:000338a0       ?OnLButtonDown@CXTPHeaderCtrl@@IAEXIVCPoint@@@Z 004348a0 f   ToolkitPro1501vc60S:XTPHeaderCtrl.obj
 0001:000338b0       ?OnLButtonUp@CXTPHeaderCtrl@@IAEXIVCPoint@@@Z 004348b0 f   ToolkitPro1501vc60S:XTPHeaderCtrl.obj
 0001:000338c0       ?OnMouseMove@CXTPHeaderCtrl@@IAEXIVCPoint@@@Z 004348c0 f   ToolkitPro1501vc60S:XTPHeaderCtrl.obj
 0001:00033900       ?HitTest@CXTPHeaderCtrl@@QBEHVCPoint@@PAI@Z 00434900 f   ToolkitPro1501vc60S:XTPHeaderCtrl.obj
 0001:00033940       ?ItemPressed@CXTPHeaderCtrl@@UAEHH@Z 00434940 f   ToolkitPro1501vc60S:XTPHeaderCtrl.obj
 0001:000339b0       ?OnTimer@CXTPHeaderCtrl@@IAEXI@Z 004349b0 f   ToolkitPro1501vc60S:XTPHeaderCtrl.obj
 0001:00033a70       ?OnLayout@CXTPHeaderCtrl@@IAEJIJ@Z 00434a70 f   ToolkitPro1501vc60S:XTPHeaderCtrl.obj
 0001:00033ab0       ?SetSortImage@CXTPHeaderCtrl@@QAEHHH@Z 00434ab0 f   ToolkitPro1501vc60S:XTPHeaderCtrl.obj
 0001:00033ae0       ?GetSortedCol@CXTPHeaderCtrl@@QAEHPAH@Z 00434ae0 f   ToolkitPro1501vc60S:XTPHeaderCtrl.obj
 0001:00033b00       ?RecalcLayout@CXTPHeaderCtrl@@QAEHXZ 00434b00 f   ToolkitPro1501vc60S:XTPHeaderCtrl.obj
 0001:00033c10       ?OnDestroy@CXTPHeaderCtrl@@IAEXXZ 00434c10 f   ToolkitPro1501vc60S:XTPHeaderCtrl.obj
 0001:00033c40       ?InitializeHeader@CXTPHeaderCtrl@@UAEXH@Z 00434c40 f   ToolkitPro1501vc60S:XTPHeaderCtrl.obj
 0001:00033c90       ?OnWndMsg@CXTPHeaderCtrl@@MAEHIIJPAJ@Z 00434c90 f   ToolkitPro1501vc60S:XTPHeaderCtrl.obj
 0001:00033cd0       ?OnRButtonDown@CXTPHeaderCtrl@@IAEXIVCPoint@@@Z 00434cd0 f   ToolkitPro1501vc60S:XTPHeaderCtrl.obj
 0001:00033f90       ?SetMenuID@CXTPHeaderCtrl@@UAEXIH@Z 00434f90 f   ToolkitPro1501vc60S:XTPHeaderCtrl.obj
 0001:00033fb0       ?SendNotify@CXTPHeaderCtrl@@IAEXH@Z 00434fb0 f   ToolkitPro1501vc60S:XTPHeaderCtrl.obj
 0001:000340b0       ?OnSortAsc@CXTPHeaderCtrl@@IAEXXZ 004350b0 f   ToolkitPro1501vc60S:XTPHeaderCtrl.obj
 0001:000340f0       ?OnSortDsc@CXTPHeaderCtrl@@IAEXXZ 004350f0 f   ToolkitPro1501vc60S:XTPHeaderCtrl.obj
 0001:00034130       ?SetAlingment@CXTPHeaderCtrl@@UAEHH@Z 00435130 f   ToolkitPro1501vc60S:XTPHeaderCtrl.obj
 0001:000341f0       ?OnAlignLeft@CXTPHeaderCtrl@@IAEXXZ 004351f0 f   ToolkitPro1501vc60S:XTPHeaderCtrl.obj
 0001:00034200       ?OnAlignCenter@CXTPHeaderCtrl@@IAEXXZ 00435200 f   ToolkitPro1501vc60S:XTPHeaderCtrl.obj
 0001:00034210       ?OnAlignRight@CXTPHeaderCtrl@@IAEXXZ 00435210 f   ToolkitPro1501vc60S:XTPHeaderCtrl.obj
 0001:00034220       ?HasSortArrow@CXTPHeaderCtrl@@QAEHXZ 00435220 f   ToolkitPro1501vc60S:XTPHeaderCtrl.obj
 0001:00034250       ?ShowSortArrow@CXTPHeaderCtrl@@UAEXH@Z 00435250 f   ToolkitPro1501vc60S:XTPHeaderCtrl.obj
 0001:00034290       ?SetFontBold@CXTPHeaderCtrl@@UAEXH@Z 00435290 f   ToolkitPro1501vc60S:XTPHeaderCtrl.obj
 0001:000342e0       ?RefreshMetrics@CXTPHeaderCtrl@@MAEXXZ 004352e0 f   ToolkitPro1501vc60S:XTPHeaderCtrl.obj
 0001:00034320       ?SetTheme@CXTPHeaderCtrl@@QAEHPAVCXTPHeaderCtrlTheme@@@Z 00435320 f   ToolkitPro1501vc60S:XTPHeaderCtrl.obj
 0001:00034370       ?SetTheme@CXTPHeaderCtrl@@QAEHW4XTPControlTheme@@@Z 00435370 f   ToolkitPro1501vc60S:XTPHeaderCtrl.obj
 0001:00034480       ?OnSetTheme@CXTPHeaderCtrl@@IAEJIJ@Z 00435480 f   ToolkitPro1501vc60S:XTPHeaderCtrl.obj
 0001:00034490       ??1?$CList@HAAH@@UAE@XZ    00435490 f i ToolkitPro1501vc60S:XTPHeaderCtrl.obj
 0001:000344f0       ?Serialize@?$CList@HAAH@@UAEXAAVCArchive@@@Z 004354f0 f i ToolkitPro1501vc60S:XTPHeaderCtrl.obj
 0001:00034600       ??_E?$CList@HAAH@@UAEPAXI@Z 00435600 f i ToolkitPro1501vc60S:XTPHeaderCtrl.obj
 0001:00034600       ??_G?$CList@HAAH@@UAEPAXI@Z 00435600 f i ToolkitPro1501vc60S:XTPHeaderCtrl.obj
 0001:00034620       ??_ECHeaderCtrl@@UAEPAXI@Z 00435620 f i ToolkitPro1501vc60S:XTPHeaderCtrl.obj
 0001:00034620       ??_GCHeaderCtrl@@UAEPAXI@Z 00435620 f i ToolkitPro1501vc60S:XTPHeaderCtrl.obj
 0001:00034640       ??0CXTPHeaderCtrlTheme@@QAE@XZ 00435640 f   ToolkitPro1501vc60S:XTPHeaderCtrlTheme.obj
 0001:000346c0       ??_GCXTPHeaderCtrlTheme@@UAEPAXI@Z 004356c0 f i ToolkitPro1501vc60S:XTPHeaderCtrlTheme.obj
 0001:000346c0       ??_ECXTPHeaderCtrlTheme@@UAEPAXI@Z 004356c0 f i ToolkitPro1501vc60S:XTPHeaderCtrlTheme.obj
 0001:000346e0       ??1CXTPHeaderCtrlTheme@@UAE@XZ 004356e0 f   ToolkitPro1501vc60S:XTPHeaderCtrlTheme.obj
 0001:00034740       ?RefreshMetrics@CXTPHeaderCtrlTheme@@UAEXPAVCXTPHeaderCtrl@@@Z 00435740 f   ToolkitPro1501vc60S:XTPHeaderCtrlTheme.obj
 0001:000347b0       ?OnDrawBackground@CXTPHeaderCtrlTheme@@MAEXPAUtagDRAWITEMSTRUCT@@@Z 004357b0 f   ToolkitPro1501vc60S:XTPHeaderCtrlTheme.obj
 0001:00034840       ?OnDrawItemBackground@CXTPHeaderCtrlTheme@@MAEXPAUtagDRAWITEMSTRUCT@@@Z 00435840 f   ToolkitPro1501vc60S:XTPHeaderCtrlTheme.obj
 0001:000349e0       ?OnDrawBackgroundWinThemed@CXTPHeaderCtrlTheme@@MAEHPAUtagDRAWITEMSTRUCT@@@Z 004359e0 f   ToolkitPro1501vc60S:XTPHeaderCtrlTheme.obj
 0001:00034a20       ?OnDrawItemBackgroundWinThemed@CXTPHeaderCtrlTheme@@MAEHPAUtagDRAWITEMSTRUCT@@@Z 00435a20 f   ToolkitPro1501vc60S:XTPHeaderCtrlTheme.obj
 0001:00034a60       ?DrawSortArrow@CXTPHeaderCtrlTheme@@MAEXPAVCDC@@PAUtagPOINT@@H@Z 00435a60 f   ToolkitPro1501vc60S:XTPHeaderCtrlTheme.obj
 0001:00034b70       ?OnDrawItemSortArrow@CXTPHeaderCtrlTheme@@MAEXPAUtagDRAWITEMSTRUCT@@H@Z 00435b70 f   ToolkitPro1501vc60S:XTPHeaderCtrlTheme.obj
 0001:00034c30       ?OnDrawItemText@CXTPHeaderCtrlTheme@@MAEXPAUtagDRAWITEMSTRUCT@@PAVCXTPHeaderCtrl@@@Z 00435c30 f   ToolkitPro1501vc60S:XTPHeaderCtrlTheme.obj
 0001:00034f10       ?DrawHeader@CXTPHeaderCtrlTheme@@UAEXPAVCDC@@PAVCXTPHeaderCtrl@@@Z 00435f10 f   ToolkitPro1501vc60S:XTPHeaderCtrlTheme.obj
 0001:00035200       ?UseWinXPThemes@CXTPHeaderCtrlTheme@@UAEHPAVCXTPHeaderCtrl@@@Z 00436200 f   ToolkitPro1501vc60S:XTPHeaderCtrlTheme.obj
 0001:00035250       ?SetDrawStyle@CXTPHeaderCtrlTheme@@UAEXKPAVCXTPHeaderCtrl@@@Z 00436250 f   ToolkitPro1501vc60S:XTPHeaderCtrlTheme.obj
 0001:00035280       ?GetDrawStyle@CXTPHeaderCtrlTheme@@UBEKXZ 00436280 f   ToolkitPro1501vc60S:XTPHeaderCtrlTheme.obj
 0001:00035280       ?GetCount@CXTPControlActions@@QBEHXZ 00436280 f   ToolkitPro1501vc60S:XTPHeaderCtrlTheme.obj
 0001:00035280       ?GetStyle@CXTPStatusBarPane@@QBEIXZ 00436280 f   ToolkitPro1501vc60S:XTPHeaderCtrlTheme.obj
 0001:00035280       ?GetWidth@CXTPImageManagerIcon@@QBEHXZ 00436280 f   ToolkitPro1501vc60S:XTPHeaderCtrlTheme.obj
 0001:00035290       ?Layout@CXTPHeaderCtrlTheme@@UAEHPAU_HD_LAYOUT@@PAVCXTPHeaderCtrl@@@Z 00436290 f   ToolkitPro1501vc60S:XTPHeaderCtrlTheme.obj
 0001:000352b0       ?SetBitmap@CXTPHeaderCtrlTheme@@UAEHHIHKPAVCXTPHeaderCtrl@@@Z 004362b0 f   ToolkitPro1501vc60S:XTPHeaderCtrlTheme.obj
 0001:00035420       ?OnDrawItemBitmap@CXTPHeaderCtrlTheme@@MAEXPAUtagDRAWITEMSTRUCT@@AAVCRect@@PAVCXTPHeaderCtrl@@@Z 00436420 f   ToolkitPro1501vc60S:XTPHeaderCtrlTheme.obj
 0001:00035640       ?CleanUp@CXTPHeaderCtrlTheme@@UAEXPAVCXTPHeaderCtrl@@@Z 00436640 f   ToolkitPro1501vc60S:XTPHeaderCtrlTheme.obj
 0001:000356c0       ??0CXTPHeaderCtrlThemeOfficeXP@@QAE@XZ 004366c0 f   ToolkitPro1501vc60S:XTPHeaderCtrlTheme.obj
 0001:000356e0       ??_GCXTPHeaderCtrlThemeOfficeXP@@UAEPAXI@Z 004366e0 f i ToolkitPro1501vc60S:XTPHeaderCtrlTheme.obj
 0001:000356e0       ??_ECXTPHeaderCtrlThemeOfficeXP@@UAEPAXI@Z 004366e0 f i ToolkitPro1501vc60S:XTPHeaderCtrlTheme.obj
 0001:00035700       ??1CXTPHeaderCtrlThemeOfficeXP@@UAE@XZ 00436700 f   ToolkitPro1501vc60S:XTPHeaderCtrlTheme.obj
 0001:00035710       ?OnDrawBackground@CXTPHeaderCtrlThemeExplorer@@MAEXPAUtagDRAWITEMSTRUCT@@@Z 00436710 f   ToolkitPro1501vc60S:XTPHeaderCtrlTheme.obj
 0001:00035710       ?OnDrawBackground@CXTPHeaderCtrlThemeOfficeXP@@MAEXPAUtagDRAWITEMSTRUCT@@@Z 00436710 f   ToolkitPro1501vc60S:XTPHeaderCtrlTheme.obj
 0001:00035770       ?OnDrawItemBackground@CXTPHeaderCtrlThemeOfficeXP@@MAEXPAUtagDRAWITEMSTRUCT@@@Z 00436770 f   ToolkitPro1501vc60S:XTPHeaderCtrlTheme.obj
 0001:000358d0       ??0CXTPHeaderCtrlThemeOffice2003@@QAE@XZ 004368d0 f   ToolkitPro1501vc60S:XTPHeaderCtrlTheme.obj
 0001:00035900       ??_ECXTPHeaderCtrlThemeOffice2003@@UAEPAXI@Z 00436900 f i ToolkitPro1501vc60S:XTPHeaderCtrlTheme.obj
 0001:00035900       ??_GCXTPHeaderCtrlThemeOffice2003@@UAEPAXI@Z 00436900 f i ToolkitPro1501vc60S:XTPHeaderCtrlTheme.obj
 0001:00035920       ??1CXTPHeaderCtrlThemeOffice2003@@UAE@XZ 00436920 f   ToolkitPro1501vc60S:XTPHeaderCtrlTheme.obj
 0001:00035930       ?OnDrawBackground@CXTPHeaderCtrlThemeOffice2003@@MAEXPAUtagDRAWITEMSTRUCT@@@Z 00436930 f   ToolkitPro1501vc60S:XTPHeaderCtrlTheme.obj
 0001:00035c60       ?OnDrawItemBackground@CXTPHeaderCtrlThemeOffice2003@@MAEXPAUtagDRAWITEMSTRUCT@@@Z 00436c60 f   ToolkitPro1501vc60S:XTPHeaderCtrlTheme.obj
 0001:00035dc0       ?Layout@CXTPHeaderCtrlThemeOffice2003@@UAEHPAU_HD_LAYOUT@@PAVCXTPHeaderCtrl@@@Z 00436dc0 f   ToolkitPro1501vc60S:XTPHeaderCtrlTheme.obj
 0001:00035ea0       ??0CXTPHeaderCtrlThemeExplorer@@QAE@XZ 00436ea0 f   ToolkitPro1501vc60S:XTPHeaderCtrlTheme.obj
 0001:00035ee0       ??_GCXTPHeaderCtrlThemeExplorer@@UAEPAXI@Z 00436ee0 f i ToolkitPro1501vc60S:XTPHeaderCtrlTheme.obj
 0001:00035ee0       ??_ECXTPHeaderCtrlThemeExplorer@@UAEPAXI@Z 00436ee0 f i ToolkitPro1501vc60S:XTPHeaderCtrlTheme.obj
 0001:00035f00       ??1CXTPHeaderCtrlThemeExplorer@@UAE@XZ 00436f00 f   ToolkitPro1501vc60S:XTPHeaderCtrlTheme.obj
 0001:00035f10       ?OnDrawItemBackgroundWinThemed@CXTPHeaderCtrlThemeExplorer@@MAEHPAUtagDRAWITEMSTRUCT@@@Z 00436f10 f   ToolkitPro1501vc60S:XTPHeaderCtrlTheme.obj
 0001:00035f20       ?Layout@CXTPHeaderCtrlThemeExplorer@@UAEHPAU_HD_LAYOUT@@PAVCXTPHeaderCtrl@@@Z 00436f20 f   ToolkitPro1501vc60S:XTPHeaderCtrlTheme.obj
 0001:00036000       ?DrawSortArrow@CXTPHeaderCtrlThemeExplorer@@MAEXPAVCDC@@PAUtagPOINT@@H@Z 00437000 f   ToolkitPro1501vc60S:XTPHeaderCtrlTheme.obj
 0001:000360a0       ??0CPoint@@QAE@K@Z         004370a0 f i ToolkitPro1501vc60S:XTPHeaderCtrlTheme.obj
 0001:000360a0       ??0CSize@@QAE@K@Z          004370a0 f i ToolkitPro1501vc60S:XTPHeaderCtrlTheme.obj
 0001:000360c0       ?Compare@CXTPSortClass@@SGHJJJ@Z 004370c0 f   ToolkitPro1501vc60S:XTPSortClass.obj
 0001:00036160       ??0CXTPSortClass@@QAE@PAVCListCtrl@@HP6GHJJJ@Z@Z 00437160 f   ToolkitPro1501vc60S:XTPSortClass.obj
 0001:00036280       ??_ECXTPSortClass@@UAEPAXI@Z 00437280 f i ToolkitPro1501vc60S:XTPSortClass.obj
 0001:00036280       ??_GCXTPSortClass@@UAEPAXI@Z 00437280 f i ToolkitPro1501vc60S:XTPSortClass.obj
 0001:000362a0       ??1CXTPSortClass@@UAE@XZ   004372a0 f   ToolkitPro1501vc60S:XTPSortClass.obj
 0001:00036340       ?Sort@CXTPSortClass@@UAEX_NH@Z 00437340 f   ToolkitPro1501vc60S:XTPSortClass.obj
 0001:00036390       ?SortInt@CXTPSortClass@@SAHPBD0F@Z 00437390 f   ToolkitPro1501vc60S:XTPSortClass.obj
 0001:00036490       ?SortString@CXTPSortClass@@SAHPBD0F@Z 00437490 f   ToolkitPro1501vc60S:XTPSortClass.obj
 0001:000364b0       ?SortDateTime@CXTPSortClass@@SAHPBD0F@Z 004374b0 f   ToolkitPro1501vc60S:XTPSortClass.obj
 0001:00036560       ?SortDecimal@CXTPSortClass@@SAHPBD0F@Z 00437560 f   ToolkitPro1501vc60S:XTPSortClass.obj
 0001:000365d0       ?RemoveNonNumeric@CXTPSortClass@@SAHAAVCString@@@Z 004375d0 f   ToolkitPro1501vc60S:XTPSortClass.obj
 0001:00036670       ??0CXTPSystemVersion@@AAE@XZ 00437670 f   ToolkitPro1501vc60S:XTPSystemHelpers.obj
 0001:000366a0       ?XTPSystemVersion@@YGPAVCXTPSystemVersion@@XZ 004376a0 f   ToolkitPro1501vc60S:XTPSystemHelpers.obj
 0001:000366f0       ?IsWin95@CXTPSystemVersion@@QBE_NXZ 004376f0 f   ToolkitPro1501vc60S:XTPSystemHelpers.obj
 0001:00036710       ?IsWin98@CXTPSystemVersion@@QBE_NXZ 00437710 f   ToolkitPro1501vc60S:XTPSystemHelpers.obj
 0001:00036730       ?IsWin9x@CXTPSystemVersion@@QBE_NXZ 00437730 f   ToolkitPro1501vc60S:XTPSystemHelpers.obj
 0001:00036740       ?IsWinNT4@CXTPSystemVersion@@QBE_NXZ 00437740 f   ToolkitPro1501vc60S:XTPSystemHelpers.obj
 0001:00036760       ?IsWin2K@CXTPSystemVersion@@QBE_NXZ 00437760 f   ToolkitPro1501vc60S:XTPSystemHelpers.obj
 0001:00036780       ?IsWinXP@CXTPSystemVersion@@QBE_NXZ 00437780 f   ToolkitPro1501vc60S:XTPSystemHelpers.obj
 0001:000367a0       ?IsWin2KOrGreater@CXTPSystemVersion@@QBE_NXZ 004377a0 f   ToolkitPro1501vc60S:XTPSystemHelpers.obj
 0001:000367c0       ?IsWinXPOrGreater@CXTPSystemVersion@@QBE_NXZ 004377c0 f   ToolkitPro1501vc60S:XTPSystemHelpers.obj
 0001:000367e0       ?IsWinVistaOrGreater@CXTPSystemVersion@@QBE_NXZ 004377e0 f   ToolkitPro1501vc60S:XTPSystemHelpers.obj
 0001:00036800       ?IsWin7OrGreater@CXTPSystemVersion@@QBE_NXZ 00437800 f   ToolkitPro1501vc60S:XTPSystemHelpers.obj
 0001:00036820       ?GreaterThanEqualTo@CXTPSystemVersion@@ABE_NKK@Z 00437820 f   ToolkitPro1501vc60S:XTPSystemHelpers.obj
 0001:00036850       ?EqualTo@CXTPSystemVersion@@ABE_NKK@Z 00437850 f   ToolkitPro1501vc60S:XTPSystemHelpers.obj
 0001:00036880       ?GetComCtlVersion@CXTPSystemVersion@@QBEKXZ 00437880 f   ToolkitPro1501vc60S:XTPSystemHelpers.obj
 0001:00036900       ?IsClearTypeTextQualitySupported@CXTPSystemVersion@@QBEHXZ 00437900 f   ToolkitPro1501vc60S:XTPSystemHelpers.obj
 0001:00036910       ?GetMaxCharSize@CXTPSystemVersion@@QBEHXZ 00437910 f   ToolkitPro1501vc60S:XTPSystemHelpers.obj
 0001:00036940       ?XTPMultiMonitor@@YAPAVCXTPMultiMonitor@@XZ 00437940 f   ToolkitPro1501vc60S:XTPSystemHelpers.obj
 0001:00036990       ??1CXTPMultiMonitor@@QAE@XZ 00437990 f i ToolkitPro1501vc60S:XTPSystemHelpers.obj
 0001:000369a0       ??0CXTPMultiMonitor@@AAE@XZ 004379a0 f   ToolkitPro1501vc60S:XTPSystemHelpers.obj
 0001:00036a70       ?GetMonitorInfoA@CXTPMultiMonitor@@AAEHPAUXTP_HMONITOR__@1@PAUXTP_MONITORINFO@1@@Z 00437a70 f   ToolkitPro1501vc60S:XTPSystemHelpers.obj
 0001:00036aa0       ?GetWorkArea@CXTPMultiMonitor@@AAE?AVCRect@@PAUXTP_HMONITOR__@1@@Z 00437aa0 f   ToolkitPro1501vc60S:XTPSystemHelpers.obj
 0001:00036b00       ?GetScreenArea@CXTPMultiMonitor@@AAE?AVCRect@@PAUXTP_HMONITOR__@1@@Z 00437b00 f   ToolkitPro1501vc60S:XTPSystemHelpers.obj
 0001:00036b70       ?GetScreenArea@CXTPMultiMonitor@@QAE?AVCRect@@ABUtagPOINT@@@Z 00437b70 f   ToolkitPro1501vc60S:XTPSystemHelpers.obj
 0001:00036bd0       ?GetScreenArea@CXTPMultiMonitor@@QAE?AVCRect@@PBUtagRECT@@@Z 00437bd0 f   ToolkitPro1501vc60S:XTPSystemHelpers.obj
 0001:00036c20       ?GetWorkArea@CXTPMultiMonitor@@QAE?AVCRect@@PAUHWND__@@@Z 00437c20 f   ToolkitPro1501vc60S:XTPSystemHelpers.obj
 0001:00036c70       ?GetWorkArea@CXTPMultiMonitor@@QAE?AVCRect@@ABUtagPOINT@@@Z 00437c70 f   ToolkitPro1501vc60S:XTPSystemHelpers.obj
 0001:00036cd0       ?GetWorkArea@CXTPMultiMonitor@@QAE?AVCRect@@PBUtagRECT@@@Z 00437cd0 f   ToolkitPro1501vc60S:XTPSystemHelpers.obj
 0001:00036d20       ?GetWorkArea@CXTPMultiMonitor@@QAE?AVCRect@@PBVCWnd@@@Z 00437d20 f   ToolkitPro1501vc60S:XTPSystemHelpers.obj
 0001:00036d60       ?GetWorkArea@CXTPMultiMonitor@@QAE?AVCRect@@XZ 00437d60 f   ToolkitPro1501vc60S:XTPSystemHelpers.obj
 0001:00036db0       ??0CXTPModuleHandle@@QAE@XZ 00437db0 f   ToolkitPro1501vc60S:XTPSystemHelpers.obj
 0001:00036de0       ??_GCXTPModuleHandle@@UAEPAXI@Z 00437de0 f i ToolkitPro1501vc60S:XTPSystemHelpers.obj
 0001:00036de0       ??_ECXTPModuleHandle@@UAEPAXI@Z 00437de0 f i ToolkitPro1501vc60S:XTPSystemHelpers.obj
 0001:00036e00       ??0CXTPModuleHandle@@QAE@PBD@Z 00437e00 f   ToolkitPro1501vc60S:XTPSystemHelpers.obj
 0001:00036e70       ??1CXTPModuleHandle@@UAE@XZ 00437e70 f   ToolkitPro1501vc60S:XTPSystemHelpers.obj
 0001:00036ec0       ?Init@CXTPModuleHandle@@QAEHPBD@Z 00437ec0 f   ToolkitPro1501vc60S:XTPSystemHelpers.obj
 0001:00036ef0       ?GetModuleHandleA@CXTPModuleHandle@@QAEHPBD@Z 00437ef0 f   ToolkitPro1501vc60S:XTPSystemHelpers.obj
 0001:00036f30       ?LoadLibraryA@CXTPModuleHandle@@QAEHPBD@Z 00437f30 f   ToolkitPro1501vc60S:XTPSystemHelpers.obj
 0001:00036f70       ?FreeLibrary@CXTPModuleHandle@@QAEHXZ 00437f70 f   ToolkitPro1501vc60S:XTPSystemHelpers.obj
 0001:00036fb0       ?GetVersionInfo@CXTPModuleHandle@@AAEHXZ 00437fb0 f   ToolkitPro1501vc60S:XTPSystemHelpers.obj
 0001:00036fe0       ?GetVersion@CXTPModuleHandle@@QAEKXZ 00437fe0 f   ToolkitPro1501vc60S:XTPSystemHelpers.obj
 0001:00037010       ?GetProcAddress@CXTPModuleHandle@@QAEHPAP6GHXZPBDK@Z 00438010 f   ToolkitPro1501vc60S:XTPSystemHelpers.obj
 0001:00037080       ??0CXTPLockGuard@@QAE@AAU_RTL_CRITICAL_SECTION@@@Z 00438080 f   ToolkitPro1501vc60S:XTPSystemHelpers.obj
 0001:000370a0       ??1CXTPLockGuard@@QAE@XZ   004380a0 f   ToolkitPro1501vc60S:XTPSystemHelpers.obj
 0001:000370b0       ?LockThread@CXTPLockGuard@@QAEXXZ 004380b0 f   ToolkitPro1501vc60S:XTPSystemHelpers.obj
 0001:000370c0       ?UnLockThread@CXTPLockGuard@@QAEXXZ 004380c0 f   ToolkitPro1501vc60S:XTPSystemHelpers.obj
 0001:000370d0       ??0CXTPAccessible@@QAE@XZ  004380d0 f   ToolkitPro1501vc60S:XTPSystemHelpers.obj
 0001:00037100       ??_ECXTPAccessible@@UAEPAXI@Z 00438100 f i ToolkitPro1501vc60S:XTPSystemHelpers.obj
 0001:00037100       ??_GCXTPAccessible@@UAEPAXI@Z 00438100 f i ToolkitPro1501vc60S:XTPSystemHelpers.obj
 0001:00037120       ??1CXTPAccessible@@UAE@XZ  00438120 f   ToolkitPro1501vc60S:XTPSystemHelpers.obj
 0001:00037140       ?AccessibleNotifyWinEvent@CXTPAccessible@@QAEXKPAUHWND__@@JJ@Z 00438140 f   ToolkitPro1501vc60S:XTPSystemHelpers.obj
 0001:000371b0       ?AccessibleObjectFromWindow@CXTPAccessible@@IAEJPAUHWND__@@KABU_GUID@@PAPAX@Z 004381b0 f   ToolkitPro1501vc60S:XTPSystemHelpers.obj
 0001:00037240       ?LresultFromObject@CXTPAccessible@@IAEJABU_GUID@@IPAUIUnknown@@@Z 00438240 f   ToolkitPro1501vc60S:XTPSystemHelpers.obj
 0001:000372d0       ?GetChildIndex@CXTPAccessible@@IAEJPAUtagVARIANT@@@Z 004382d0 f   ToolkitPro1501vc60S:XTPSystemHelpers.obj
 0001:00037340       ?AddRef@XAccessible@CXTPAccessible@@UAGKXZ 00438340 f   ToolkitPro1501vc60S:XTPSystemHelpers.obj
 0001:00037360       ?Release@XAccessible@CXTPAccessible@@UAGKXZ 00438360 f   ToolkitPro1501vc60S:XTPSystemHelpers.obj
 0001:00037380       ?QueryInterface@XAccessible@CXTPAccessible@@UAGJABU_GUID@@PAPAX@Z 00438380 f   ToolkitPro1501vc60S:XTPSystemHelpers.obj
 0001:000373b0       ?get_accParent@XAccessible@CXTPAccessible@@UAGJPAPAUIDispatch@@@Z 004383b0 f   ToolkitPro1501vc60S:XTPSystemHelpers.obj
 0001:000373d0       ?get_accChildCount@XAccessible@CXTPAccessible@@UAGJPAJ@Z 004383d0 f   ToolkitPro1501vc60S:XTPSystemHelpers.obj
 0001:000373f0       ?get_accChild@XAccessible@CXTPAccessible@@UAGJUtagVARIANT@@PAPAUIDispatch@@@Z 004383f0 f   ToolkitPro1501vc60S:XTPSystemHelpers.obj
 0001:00037430       ?get_accName@XAccessible@CXTPAccessible@@UAGJUtagVARIANT@@PAPAG@Z 00438430 f   ToolkitPro1501vc60S:XTPSystemHelpers.obj
 0001:00037470       ?get_accValue@XAccessible@CXTPAccessible@@UAGJUtagVARIANT@@PAPAG@Z 00438470 f   ToolkitPro1501vc60S:XTPSystemHelpers.obj
 0001:000374b0       ?get_accDescription@XAccessible@CXTPAccessible@@UAGJUtagVARIANT@@PAPAG@Z 004384b0 f   ToolkitPro1501vc60S:XTPSystemHelpers.obj
 0001:000374f0       ?get_accRole@XAccessible@CXTPAccessible@@UAGJUtagVARIANT@@PAU3@@Z 004384f0 f   ToolkitPro1501vc60S:XTPSystemHelpers.obj
 0001:00037530       ?get_accState@XAccessible@CXTPAccessible@@UAGJUtagVARIANT@@PAU3@@Z 00438530 f   ToolkitPro1501vc60S:XTPSystemHelpers.obj
 0001:00037570       ?get_accHelp@XAccessible@CXTPAccessible@@UAGJUtagVARIANT@@PAPAG@Z 00438570 f   ToolkitPro1501vc60S:XTPSystemHelpers.obj
 0001:000375b0       ?get_accHelpTopic@XAccessible@CXTPAccessible@@UAGJPAPAGUtagVARIANT@@PAJ@Z 004385b0 f   ToolkitPro1501vc60S:XTPSystemHelpers.obj
 0001:000375f0       ?get_accKeyboardShortcut@XAccessible@CXTPAccessible@@UAGJUtagVARIANT@@PAPAG@Z 004385f0 f   ToolkitPro1501vc60S:XTPSystemHelpers.obj
 0001:00037630       ?get_accFocus@XAccessible@CXTPAccessible@@UAGJPAUtagVARIANT@@@Z 00438630 f   ToolkitPro1501vc60S:XTPSystemHelpers.obj
 0001:00037650       ?get_accSelection@XAccessible@CXTPAccessible@@UAGJPAUtagVARIANT@@@Z 00438650 f   ToolkitPro1501vc60S:XTPSystemHelpers.obj
 0001:00037670       ?get_accDefaultAction@XAccessible@CXTPAccessible@@UAGJUtagVARIANT@@PAPAG@Z 00438670 f   ToolkitPro1501vc60S:XTPSystemHelpers.obj
 0001:000376b0       ?accSelect@XAccessible@CXTPAccessible@@UAGJJUtagVARIANT@@@Z 004386b0 f   ToolkitPro1501vc60S:XTPSystemHelpers.obj
 0001:000376f0       ?accLocation@XAccessible@CXTPAccessible@@UAGJPAJ000UtagVARIANT@@@Z 004386f0 f   ToolkitPro1501vc60S:XTPSystemHelpers.obj
 0001:00037740       ?accNavigate@XAccessible@CXTPAccessible@@UAGJJUtagVARIANT@@PAU3@@Z 00438740 f   ToolkitPro1501vc60S:XTPSystemHelpers.obj
 0001:00037780       ?accHitTest@XAccessible@CXTPAccessible@@UAGJJJPAUtagVARIANT@@@Z 00438780 f   ToolkitPro1501vc60S:XTPSystemHelpers.obj
 0001:000377a0       ?accDoDefaultAction@XAccessible@CXTPAccessible@@UAGJUtagVARIANT@@@Z 004387a0 f   ToolkitPro1501vc60S:XTPSystemHelpers.obj
 0001:000377e0       ?put_accName@XAccessible@CXTPAccessible@@UAGJUtagVARIANT@@PAG@Z 004387e0 f   ToolkitPro1501vc60S:XTPSystemHelpers.obj
 0001:00037820       ?put_accValue@XAccessible@CXTPAccessible@@UAGJUtagVARIANT@@PAG@Z 00438820 f   ToolkitPro1501vc60S:XTPSystemHelpers.obj
 0001:00037860       ?Invoke@XAccessible@CXTPAccessible@@UAGJJABU_GUID@@KGPAUtagDISPPARAMS@@PAUtagVARIANT@@PAUtagEXCEPINFO@@PAI@Z 00438860 f   ToolkitPro1501vc60S:XTPSystemHelpers.obj
 0001:00037870       ?AccessibleSelect@CXTPAccessible@@UAEJJUtagVARIANT@@@Z 00438870 f   ToolkitPro1501vc60S:XTPSystemHelpers.obj
 0001:00037870       ?GetAccessibleDescription@CXTPAccessible@@UAEJUtagVARIANT@@PAPAG@Z 00438870 f   ToolkitPro1501vc60S:XTPSystemHelpers.obj
 0001:00037870       ?GetAccessibleName@CXTPAccessible@@UAEJUtagVARIANT@@PAPAG@Z 00438870 f   ToolkitPro1501vc60S:XTPSystemHelpers.obj
 0001:00037870       ?GetAccessibleDefaultAction@CXTPAccessible@@UAEJUtagVARIANT@@PAPAG@Z 00438870 f   ToolkitPro1501vc60S:XTPSystemHelpers.obj
 0001:00037870       ?GetAccessibleValue@CXTPAccessible@@UAEJUtagVARIANT@@PAPAG@Z 00438870 f   ToolkitPro1501vc60S:XTPSystemHelpers.obj
 0001:00037870       ?GetAccessibleChild@CXTPAccessible@@UAEJUtagVARIANT@@PAPAUIDispatch@@@Z 00438870 f   ToolkitPro1501vc60S:XTPSystemHelpers.obj
 0001:00037870       ?GetAccessibleHelp@CXTPAccessible@@UAEJUtagVARIANT@@PAPAG@Z 00438870 f   ToolkitPro1501vc60S:XTPSystemHelpers.obj
 0001:00037870       ?GetAccessibleState@CXTPAccessible@@UAEJUtagVARIANT@@PAU2@@Z 00438870 f   ToolkitPro1501vc60S:XTPSystemHelpers.obj
 0001:00037870       ?PutAccessibleValue@CXTPAccessible@@UAEJUtagVARIANT@@PAG@Z 00438870 f   ToolkitPro1501vc60S:XTPSystemHelpers.obj
 0001:00037870       ?PutAccessibleName@CXTPAccessible@@UAEJUtagVARIANT@@PAG@Z 00438870 f   ToolkitPro1501vc60S:XTPSystemHelpers.obj
 0001:00037870       ?GetAccessibleKeyboardShortcut@CXTPAccessible@@UAEJUtagVARIANT@@PAPAG@Z 00438870 f   ToolkitPro1501vc60S:XTPSystemHelpers.obj
 0001:00037870       ?GetAccessibleRole@CXTPAccessible@@UAEJUtagVARIANT@@PAU2@@Z 00438870 f   ToolkitPro1501vc60S:XTPSystemHelpers.obj
 0001:00037880       ?GetIDsOfNames@XAccessible@CXTPAccessible@@UAGJABU_GUID@@PAPAGIKPAJ@Z 00438880 f   ToolkitPro1501vc60S:XTPSystemHelpers.obj
 0001:00037880       ?GetAccessibleHelpTopic@CXTPAccessible@@UAEJPAPAGUtagVARIANT@@PAJ@Z 00438880 f   ToolkitPro1501vc60S:XTPSystemHelpers.obj
 0001:00037880       ?AccessibleNavigate@CXTPAccessible@@UAEJJUtagVARIANT@@PAU2@@Z 00438880 f   ToolkitPro1501vc60S:XTPSystemHelpers.obj
 0001:00037890       ?AccessibleLocation@CXTPAccessible@@UAEJPAJ000UtagVARIANT@@@Z 00438890 f   ToolkitPro1501vc60S:XTPSystemHelpers.obj
 0001:000378a0       ??0CXTPSoundManager@@AAE@XZ 004388a0 f   ToolkitPro1501vc60S:XTPSystemHelpers.obj
 0001:000378d0       ?XTPSoundManager@@YAPAVCXTPSoundManager@@XZ 004388d0 f   ToolkitPro1501vc60S:XTPSystemHelpers.obj
 0001:00037920       ??1CXTPSoundManager@@QAE@XZ 00438920 f   ToolkitPro1501vc60S:XTPSystemHelpers.obj
 0001:00037940       ?SoundThreadProc@CXTPSoundManager@@CGKPAX@Z 00438940 f   ToolkitPro1501vc60S:XTPSystemHelpers.obj
 0001:000379c0       ?StartThread@CXTPSoundManager@@AAEXXZ 004389c0 f   ToolkitPro1501vc60S:XTPSystemHelpers.obj
 0001:00037a10       ?StopThread@CXTPSoundManager@@QAEXXZ 00438a10 f   ToolkitPro1501vc60S:XTPSystemHelpers.obj
 0001:00037aa0       ?PlaySystemSound@CXTPSoundManager@@QAEXW4XTPSoundManagerState@@@Z 00438aa0 f   ToolkitPro1501vc60S:XTPSystemHelpers.obj
 0001:00037ad0       ??0CXTPZipMemFile@@QAE@XZ  00438ad0 f   ToolkitPro1501vc60S:XTPSystemHelpers.obj
 0001:00037af0       ??_GCXTPZipMemFile@@UAEPAXI@Z 00438af0 f i ToolkitPro1501vc60S:XTPSystemHelpers.obj
 0001:00037af0       ??_ECXTPZipMemFile@@UAEPAXI@Z 00438af0 f i ToolkitPro1501vc60S:XTPSystemHelpers.obj
 0001:00037b10       ??0CXTPZipMemFile@@QAE@PAEI@Z 00438b10 f   ToolkitPro1501vc60S:XTPSystemHelpers.obj
 0001:00037b70       ??1CXTPZipMemFile@@UAE@XZ  00438b70 f   ToolkitPro1501vc60S:XTPSystemHelpers.obj
 0001:00037b80       ?AttachCompressedBuffer@CXTPZipMemFile@@QAEXPAEIH@Z 00438b80 f   ToolkitPro1501vc60S:XTPSystemHelpers.obj
 0001:00037c10       ?OpenCompressedFile@CXTPZipMemFile@@QAEHPBD@Z 00438c10 f   ToolkitPro1501vc60S:XTPSystemHelpers.obj
 0001:00037ce0       ?DetachCompressedBuffer@CXTPZipMemFile@@QAEXAAPAEAAK@Z 00438ce0 f   ToolkitPro1501vc60S:XTPSystemHelpers.obj
 0001:00037d70       ?SetFilePath@CFile@@UAEXPBD@Z 00438d70 f i ToolkitPro1501vc60S:XTPSystemHelpers.obj
 0001:00037d80       ??0CXTPCommandBarsContextMenus@@QAE@PAVCXTPCommandBars@@@Z 00438d80 f   ToolkitPro1501vc60S:XTPCommandBars.obj
 0001:00037db0       ??_ECXTPCommandBarsContextMenus@@UAEPAXI@Z 00438db0 f i ToolkitPro1501vc60S:XTPCommandBars.obj
 0001:00037db0       ??_GCXTPCommandBarsContextMenus@@UAEPAXI@Z 00438db0 f i ToolkitPro1501vc60S:XTPCommandBars.obj
 0001:00037dd0       ??1CXTPCommandBarsContextMenus@@UAE@XZ 00438dd0 f i ToolkitPro1501vc60S:XTPCommandBars.obj
 0001:00037de0       ?Add@CXTPCommandBarsContextMenus@@UAEPAVCXTPCommandBar@@PAV2@@Z 00438de0 f   ToolkitPro1501vc60S:XTPCommandBars.obj
 0001:00037f30       ??0CXTPCommandBarsOptions@@QAE@XZ 00438f30 f   ToolkitPro1501vc60S:XTPCommandBars.obj
 0001:00038060       ??_GCXTPCommandBarsOptions@@UAEPAXI@Z 00439060 f i ToolkitPro1501vc60S:XTPCommandBars.obj
 0001:00038060       ??_ECXTPCommandBarsOptions@@UAEPAXI@Z 00439060 f i ToolkitPro1501vc60S:XTPCommandBars.obj
 0001:00038080       ??1CXTPCommandBarsOptions@@UAE@XZ 00439080 f i ToolkitPro1501vc60S:XTPCommandBars.obj
 0001:00038180       ?ShowKeyboardCues@CXTPCommandBarsOptions@@QAEXW4XTPKeyboardCuesShow@@@Z 00439180 f   ToolkitPro1501vc60S:XTPCommandBars.obj
 0001:00038210       ?CreateObject@CXTPCommandBars@@SGPAVCObject@@XZ 00439210 f   ToolkitPro1501vc60S:XTPCommandBars.obj
 0001:00038270       ?GetRuntimeClass@CXTPCommandBars@@UBEPAUCRuntimeClass@@XZ 00439270 f   ToolkitPro1501vc60S:XTPCommandBars.obj
 0001:00038280       ??0CXTPCommandBars@@IAE@XZ 00439280 f   ToolkitPro1501vc60S:XTPCommandBars.obj
 0001:000384b0       ??_ECXTPCommandBars@@MAEPAXI@Z 004394b0 f i ToolkitPro1501vc60S:XTPCommandBars.obj
 0001:000384b0       ??_GCXTPCommandBars@@MAEPAXI@Z 004394b0 f i ToolkitPro1501vc60S:XTPCommandBars.obj
 0001:000384d0       ??1KEYBOARDTIPS@CXTPCommandBars@@QAE@XZ 004394d0 f i ToolkitPro1501vc60S:XTPCommandBars.obj
 0001:00038520       ??1CXTPCommandBars@@MAE@XZ 00439520 f   ToolkitPro1501vc60S:XTPCommandBars.obj
 0001:000386d0       ?IsToolBarVisible@@YAHPAVCXTPToolBar@@@Z 004396d0 f   ToolkitPro1501vc60S:XTPCommandBars.obj
 0001:000386f0       ?CreateAction@CXTPCommandBars@@QAEPAVCXTPControlAction@@H@Z 004396f0 f   ToolkitPro1501vc60S:XTPCommandBars.obj
 0001:00038710       ?FindAction@CXTPCommandBars@@QBEPAVCXTPControlAction@@H@Z 00439710 f   ToolkitPro1501vc60S:XTPCommandBars.obj
 0001:00038730       ?GetMenuBar@CXTPCommandBars@@UBEPAVCXTPMenuBar@@XZ 00439730 f   ToolkitPro1501vc60S:XTPCommandBars.obj
 0001:00038750       ?RecalcFrameLayout@CXTPCommandBars@@UAEXH@Z 00439750 f   ToolkitPro1501vc60S:XTPCommandBars.obj
 0001:00038820       ?IdleRecalcLayout@CXTPCommandBars@@IAEXXZ 00439820 f   ToolkitPro1501vc60S:XTPCommandBars.obj
 0001:00038860       ?OnToolBarAdded@CXTPCommandBars@@MAEXPAVCXTPToolBar@@@Z 00439860 f   ToolkitPro1501vc60S:XTPCommandBars.obj
 0001:00038880       ?OnToolBarRemoved@CXTPCommandBars@@MAEXPAVCXTPToolBar@@@Z 00439880 f   ToolkitPro1501vc60S:XTPCommandBars.obj
 0001:000388a0       ?GetFrameReBar@CXTPCommandBars@@QBEPAVCXTPReBar@@XZ 004398a0 f   ToolkitPro1501vc60S:XTPCommandBars.obj
 0001:000388d0       ?AddCustomBar@CXTPCommandBars@@MAEPAVCXTPToolBar@@PBDIH@Z 004398d0 f   ToolkitPro1501vc60S:XTPCommandBars.obj
 0001:000389e0       ?GetShortcutManager@CXTPCommandBars@@QBEPAVCXTPShortcutManager@@XZ 004399e0 f   ToolkitPro1501vc60S:XTPCommandBars.obj
 0001:000389f0       ?EnableDocking@CXTPCommandBars@@QAEXXZ 004399f0 f   ToolkitPro1501vc60S:XTPCommandBars.obj
 0001:00038ab0       ?CanDock@CXTPCommandBars@@QBEPAVCXTPDockBar@@VCPoint@@PAV2@@Z 00439ab0 f   ToolkitPro1501vc60S:XTPCommandBars.obj
 0001:00038c40       ?DockCommandBar@CXTPCommandBars@@QAEHPAVCXTPToolBar@@PAUtagRECT@@PAVCXTPDockBar@@@Z 00439c40 f   ToolkitPro1501vc60S:XTPCommandBars.obj
 0001:00038ca0       ?DockCommandBar@CXTPCommandBars@@QAEHPAVCXTPToolBar@@W4XTPBarPosition@@@Z 00439ca0 f   ToolkitPro1501vc60S:XTPCommandBars.obj
 0001:00038ce0       ?FloatCommandBar@CXTPCommandBars@@IAEHPAVCXTPToolBar@@@Z 00439ce0 f   ToolkitPro1501vc60S:XTPCommandBars.obj
 0001:00038d30       ?InvalidateCommandBars@CXTPCommandBars@@QAEXXZ 00439d30 f   ToolkitPro1501vc60S:XTPCommandBars.obj
 0001:00038d90       ?RedrawCommandBars@CXTPCommandBars@@QAEXXZ 00439d90 f   ToolkitPro1501vc60S:XTPCommandBars.obj
 0001:00038ec0       ?IsKeyboardCuesVisible@CXTPCommandBar@@UBEHXZ 00439ec0 f   ToolkitPro1501vc60S:XTPCommandBars.obj
 0001:00038ee0       ??0CXTPCommandBarKeyboardTip@@QAE@PAVCXTPCommandBars@@PAVCCmdTarget@@PBDVCPoint@@KH@Z 00439ee0 f   ToolkitPro1501vc60S:XTPCommandBars.obj
 0001:00038fa0       ??_ECXTPCommandBarKeyboardTip@@UAEPAXI@Z 00439fa0 f i ToolkitPro1501vc60S:XTPCommandBars.obj
 0001:00038fa0       ??_GCXTPCommandBarKeyboardTip@@UAEPAXI@Z 00439fa0 f i ToolkitPro1501vc60S:XTPCommandBars.obj
 0001:00038fc0       ??1CXTPCommandBarKeyboardTip@@UAE@XZ 00439fc0 f i ToolkitPro1501vc60S:XTPCommandBars.obj
 0001:00039030       ?GetMessageMap@CXTPCommandBarKeyboardTip@@MBEPBUAFX_MSGMAP@@XZ 0043a030 f   ToolkitPro1501vc60S:XTPCommandBars.obj
 0001:00039040       ?OnPaint@CXTPCommandBarKeyboardTip@@IAEXXZ 0043a040 f   ToolkitPro1501vc60S:XTPCommandBars.obj
 0001:000390b0       ?IsKeyboardTipsVisible@CXTPCommandBar@@QBEHXZ 0043a0b0 f   ToolkitPro1501vc60S:XTPCommandBars.obj
 0001:000390d0       ?CreateKeyboardTips@CXTPCommandBar@@UAEXXZ 0043a0d0 f   ToolkitPro1501vc60S:XTPCommandBars.obj
 0001:00039520       ?GetKeyboardTip@CXTPControl@@QBE?AVCString@@XZ 0043a520 f i ToolkitPro1501vc60S:XTPCommandBars.obj
 0001:000395f0       ?GetKeyboardTip@CXTPControlAction@@QBE?AVCString@@XZ 0043a5f0 f i ToolkitPro1501vc60S:XTPCommandBars.obj
 0001:00039610       ?CreateKeyboardTips@CXTPCommandBars@@UAEXPAVCXTPCommandBar@@@Z 0043a610 f   ToolkitPro1501vc60S:XTPCommandBars.obj
 0001:00039620       ?ShowKeyboardTips@CXTPCommandBars@@QAEXPAVCXTPCommandBar@@H@Z 0043a620 f   ToolkitPro1501vc60S:XTPCommandBars.obj
 0001:00039d20       ?HideKeyboardTips@CXTPCommandBars@@QAEXXZ 0043ad20 f   ToolkitPro1501vc60S:XTPCommandBars.obj
 0001:00039d80       ?ShowKeyboardCues@CXTPCommandBars@@QAEXH@Z 0043ad80 f   ToolkitPro1501vc60S:XTPCommandBars.obj
 0001:00039db0       ?OnTrackingModeChanged@CXTPCommandBars@@MAEXPAVCXTPCommandBar@@H@Z 0043adb0 f   ToolkitPro1501vc60S:XTPCommandBars.obj
 0001:00039e50       ?GetMouseManager@CXTPCommandBars@@QBEPAVCXTPMouseManager@@XZ 0043ae50 f   ToolkitPro1501vc60S:XTPCommandBars.obj
 0001:00039e90       ?GetKeyboardManager@CXTPCommandBars@@QBEPAVCXTPKeyboardManager@@XZ 0043ae90 f   ToolkitPro1501vc60S:XTPCommandBars.obj
 0001:00039ed0       ?_GetNextControl@CXTPCommandBars@@IBEPAVCXTPControl@@AAPAVCXTPControls@@H@Z 0043aed0 f   ToolkitPro1501vc60S:XTPCommandBars.obj
 0001:00039fa0       ?FindAccel@CXTPCommandBars@@IBEPAVCXTPControl@@PAVCXTPCommandBar@@IAAH@Z 0043afa0 f   ToolkitPro1501vc60S:XTPCommandBars.obj
 0001:0003a1d0       ?ClosePopups@CXTPCommandBars@@QBEXXZ 0043b1d0 f   ToolkitPro1501vc60S:XTPCommandBars.obj
 0001:0003a200       ?OnFrameAccel@CXTPCommandBars@@QAEHI@Z 0043b200 f   ToolkitPro1501vc60S:XTPCommandBars.obj
 0001:0003a360       ?PreTranslateFrameMessage@CXTPCommandBars@@QAEHPAUtagMSG@@@Z 0043b360 f   ToolkitPro1501vc60S:XTPCommandBars.obj
 0001:0003a560       ?OnFrameWndMsg@CXTPCommandBars@@QAEHIIJPAJ@Z 0043b560 f   ToolkitPro1501vc60S:XTPCommandBars.obj
 0001:0003a770       ?IsLayoutRTL@CXTPCommandBars@@QBEHXZ 0043b770 f   ToolkitPro1501vc60S:XTPCommandBars.obj
 0001:0003a7a0       ?PumpMessage@CXTPPopupBar@@QAEXXZ 0043b7a0 f   ToolkitPro1501vc60S:XTPCommandBars.obj
 0001:0003a8b0       ?TrackPopupMenu@CXTPCommandBars@@SAHPAVCXTPPopupBar@@IHHPAVCWnd@@PBUtagRECT@@1@Z 0043b8b0 f   ToolkitPro1501vc60S:XTPCommandBars.obj
 0001:0003aa20       ?TrackPopupMenu@CXTPCommandBars@@SAHPAVCMenu@@IHHPAVCWnd@@PBUtagRECT@@1PAV1@@Z 0043ba20 f   ToolkitPro1501vc60S:XTPCommandBars.obj
 0001:0003aad0       ?GetToolbarsPopup@CXTPCommandBars@@UAEPAVCXTPPopupBar@@XZ 0043bad0 f   ToolkitPro1501vc60S:XTPCommandBars.obj
 0001:0003ab00       ?ContextMenu@CXTPCommandBars@@UAEXPAVCXTPToolBar@@VCPoint@@@Z 0043bb00 f   ToolkitPro1501vc60S:XTPCommandBars.obj
 0001:0003ab80       ?GetAt@CXTPCommandBars@@QBEPAVCXTPToolBar@@H@Z 0043bb80 f   ToolkitPro1501vc60S:XTPCommandBars.obj
 0001:0003ab80       ?GetPane@CXTPStatusBar@@QBEPAVCXTPStatusBarPane@@H@Z 0043bb80 f   ToolkitPro1501vc60S:XTPCommandBars.obj
 0001:0003aba0       ?ToggleVisible@CXTPCommandBars@@QAEXH@Z 0043bba0 f   ToolkitPro1501vc60S:XTPCommandBars.obj
 0001:0003abf0       ?GetToolBar@CXTPCommandBars@@QBEPAVCXTPToolBar@@I@Z 0043bbf0 f   ToolkitPro1501vc60S:XTPCommandBars.obj
 0001:0003ac30       ?_GetHiddenControls@CXTPToolBar@@AAEXPAVCXTPCommandBar@@@Z 0043bc30 f   ToolkitPro1501vc60S:XTPCommandBars.obj
 0001:0003ac90       ?GetHiddenControls@CXTPCommandBars@@UAEXPAVCXTPToolBar@@PAVCXTPCommandBar@@@Z 0043bc90 f   ToolkitPro1501vc60S:XTPCommandBars.obj
 0001:0003ad50       ?_GetAddOrRemovePopup@CXTPCommandBars@@IAEXPAVCXTPToolBar@@PAVCXTPCommandBar@@@Z 0043bd50 f   ToolkitPro1501vc60S:XTPCommandBars.obj
 0001:0003ae50       ?GetAddOrRemovePopup@CXTPCommandBars@@UAEXPAVCXTPToolBar@@PAVCXTPCommandBar@@@Z 0043be50 f   ToolkitPro1501vc60S:XTPCommandBars.obj
 0001:0003af60       ?SetQuickCustomizeMode@CXTPCommandBars@@QAEXH@Z 0043bf60 f   ToolkitPro1501vc60S:XTPCommandBars.obj
 0001:0003af90       ?SetCustomizeMode@CXTPCommandBars@@QAEXH@Z 0043bf90 f   ToolkitPro1501vc60S:XTPCommandBars.obj
 0001:0003b010       ?GetTextAlignment@CXTPStatusBarPane@@QBEHXZ 0043c010 f   ToolkitPro1501vc60S:XTPCommandBars.obj
 0001:0003b010       ?GetDragControl@CXTPCommandBars@@QBEPAVCCmdTarget@@XZ 0043c010 f   ToolkitPro1501vc60S:XTPCommandBars.obj
 0001:0003b020       ?SetDragControl@CXTPCommandBars@@QAEXPAVCCmdTarget@@@Z 0043c020 f   ToolkitPro1501vc60S:XTPCommandBars.obj
 0001:0003b0b0       ?RemoveAll@CXTPCommandBars@@QAEXXZ 0043c0b0 f   ToolkitPro1501vc60S:XTPCommandBars.obj
 0001:0003b160       ?Remove@CXTPCommandBars@@QAEXPAVCXTPToolBar@@@Z 0043c160 f   ToolkitPro1501vc60S:XTPCommandBars.obj
 0001:0003b210       ?SetSite@CXTPCommandBars@@QAEXPAVCWnd@@@Z 0043c210 f   ToolkitPro1501vc60S:XTPCommandBars.obj
 0001:0003b270       ?IsControlHidden@CXTPCommandBars@@UAEHPAVCXTPControl@@@Z 0043c270 f   ToolkitPro1501vc60S:XTPCommandBars.obj
 0001:0003b310       ?IsCommandHidden@CXTPCommandBars@@UAEHI@Z 0043c310 f   ToolkitPro1501vc60S:XTPCommandBars.obj
 0001:0003b3a0       ?SetCommandUsed@CXTPCommandBars@@QAEXI@Z 0043c3a0 f   ToolkitPro1501vc60S:XTPCommandBars.obj
 0001:0003b4b0       ?ResetUsageData@CXTPCommandBars@@QAEXXZ 0043c4b0 f   ToolkitPro1501vc60S:XTPCommandBars.obj
 0001:0003b520       ?PX_UintMap@@YAXPAVCXTPPropExchange@@PBDAAV?$CMap@IIHH@@@Z 0043c520 f   ToolkitPro1501vc60S:XTPCommandBars.obj
 0001:0003b7b0       ??1CXTPPropExchangeSection@@QAE@XZ 0043c7b0 f i ToolkitPro1501vc60S:XTPCommandBars.obj
 0001:0003b7c0       ?DoPropExchange@CXTPCommandBarsOptions@@QAEXPAVCXTPPropExchange@@H@Z 0043c7c0 f   ToolkitPro1501vc60S:XTPCommandBars.obj
 0001:0003ba50       ?Serialize@CXTPCommandBarsOptions@@UAEXAAVCArchive@@@Z 0043ca50 f   ToolkitPro1501vc60S:XTPCommandBars.obj
 0001:0003bac0       ??1CXTPPropExchangeArchive@@UAE@XZ 0043cac0 f i ToolkitPro1501vc60S:XTPCommandBars.obj
 0001:0003bad0       ?SaveOptions@CXTPCommandBars@@QAEXPBD@Z 0043cad0 f   ToolkitPro1501vc60S:XTPCommandBars.obj
 0001:0003bc00       ?LoadOptions@CXTPCommandBars@@QAEXPBD@Z 0043cc00 f   ToolkitPro1501vc60S:XTPCommandBars.obj
 0001:0003bd20       ?GetPaintManager@CXTPCommandBars@@QBEPAVCXTPPaintManager@@XZ 0043cd20 f   ToolkitPro1501vc60S:XTPCommandBars.obj
 0001:0003bd40       ?GetImageManager@CXTPCommandBars@@QBEPAVCXTPImageManager@@XZ 0043cd40 f   ToolkitPro1501vc60S:XTPCommandBars.obj
 0001:0003bd50       ?FindDocTemplate@CXTPCommandBars@@IAEPAVCDocTemplate@@PAVCMDIChildWnd@@@Z 0043cd50 f   ToolkitPro1501vc60S:XTPCommandBars.obj
 0001:0003bde0       ?GetActiveDocTemplate@CXTPCommandBars@@UAEIXZ 0043cde0 f   ToolkitPro1501vc60S:XTPCommandBars.obj
 0001:0003be50       ?OnSetPreviewMode@CXTPCommandBars@@QAEXH@Z 0043ce50 f   ToolkitPro1501vc60S:XTPCommandBars.obj
 0001:0003bea0       ?GetToolTipContext@CXTPCommandBars@@QBEPAVCXTPToolTipContext@@XZ 0043cea0 f   ToolkitPro1501vc60S:XTPCommandBars.obj
 0001:0003beb0       ?FindIndex@CXTPCommandBars@@QBEHPAVCXTPToolBar@@@Z 0043ceb0 f   ToolkitPro1501vc60S:XTPCommandBars.obj
 0001:0003bef0       ?GetNextVisible@CXTPCommandBars@@IBEHJH@Z 0043cef0 f   ToolkitPro1501vc60S:XTPCommandBars.obj
 0001:0003bf90       ?SetToolBarFocus@CXTPCommandBars@@QAEHPAVCXTPToolBar@@H@Z 0043cf90 f   ToolkitPro1501vc60S:XTPCommandBars.obj
 0001:0003c050       ?CreateObject@?$CThreadLocal@VCXTPKeyboardManager@@@@SGPAVCNoTrackObject@@XZ 0043d050 f i ToolkitPro1501vc60S:XTPCommandBars.obj
 0001:0003c0b0       ?CreateObject@?$CThreadLocal@VCXTPMouseManager@@@@SGPAVCNoTrackObject@@XZ 0043d0b0 f i ToolkitPro1501vc60S:XTPCommandBars.obj
 0001:0003c110       ??1?$CArray@PAVCXTPToolBar@@PAV1@@@UAE@XZ 0043d110 f i ToolkitPro1501vc60S:XTPCommandBars.obj
 0001:0003c160       ??1?$CMap@IIHH@@UAE@XZ     0043d160 f i ToolkitPro1501vc60S:XTPCommandBars.obj
 0001:0003c1e0       ??1?$CArray@PAVCXTPCommandBarKeyboardTip@@PAV1@@@UAE@XZ 0043d1e0 f i ToolkitPro1501vc60S:XTPCommandBars.obj
 0001:0003c230       ??_G?$CArray@PAVCXTPToolBar@@PAV1@@@UAEPAXI@Z 0043d230 f i ToolkitPro1501vc60S:XTPCommandBars.obj
 0001:0003c230       ??_E?$CArray@PAVCXTPToolBar@@PAV1@@@UAEPAXI@Z 0043d230 f i ToolkitPro1501vc60S:XTPCommandBars.obj
 0001:0003c250       ??_G?$CArray@PAVCXTPCommandBar@@PAV1@@@UAEPAXI@Z 0043d250 f i ToolkitPro1501vc60S:XTPCommandBars.obj
 0001:0003c250       ??_E?$CArray@PAVCXTPCommandBar@@PAV1@@@UAEPAXI@Z 0043d250 f i ToolkitPro1501vc60S:XTPCommandBars.obj
 0001:0003c270       ??1?$CArray@PAVCXTPCommandBar@@PAV1@@@UAE@XZ 0043d270 f i ToolkitPro1501vc60S:XTPCommandBars.obj
 0001:0003c2c0       ??_E?$CMap@IIHH@@UAEPAXI@Z 0043d2c0 f i ToolkitPro1501vc60S:XTPCommandBars.obj
 0001:0003c2c0       ??_G?$CMap@IIHH@@UAEPAXI@Z 0043d2c0 f i ToolkitPro1501vc60S:XTPCommandBars.obj
 0001:0003c2e0       ??_G?$CArray@PAVCXTPCommandBarKeyboardTip@@PAV1@@@UAEPAXI@Z 0043d2e0 f i ToolkitPro1501vc60S:XTPCommandBars.obj
 0001:0003c2e0       ??_E?$CArray@PAVCXTPCommandBarKeyboardTip@@PAV1@@@UAEPAXI@Z 0043d2e0 f i ToolkitPro1501vc60S:XTPCommandBars.obj
 0001:0003c300       ??0CXTPComboBox@@QAE@XZ    0043d300 f   ToolkitPro1501vc60S:XTPComboBox.obj
 0001:0003c3c0       ?SetBackColor@CXTPComboBox@@UAEXK@Z 0043d3c0 f i ToolkitPro1501vc60S:XTPComboBox.obj
 0001:0003c3d0       ?SetTextColor@CXTPComboBox@@UAEXK@Z 0043d3d0 f i ToolkitPro1501vc60S:XTPComboBox.obj
 0001:0003c3e0       ??_GCXTPComboBox@@UAEPAXI@Z 0043d3e0 f i ToolkitPro1501vc60S:XTPComboBox.obj
 0001:0003c3e0       ??_ECXTPComboBox@@UAEPAXI@Z 0043d3e0 f i ToolkitPro1501vc60S:XTPComboBox.obj
 0001:0003c400       ??1CXTPCommandBarEditCtrl@@UAE@XZ 0043d400 f i ToolkitPro1501vc60S:XTPComboBox.obj
 0001:0003c400       ??1CXTPControlComboBoxEditCtrl@@UAE@XZ 0043d400 f i ToolkitPro1501vc60S:XTPComboBox.obj
 0001:0003c400       ??1CXTPControlEditCtrl@@UAE@XZ 0043d400 f i ToolkitPro1501vc60S:XTPComboBox.obj
 0001:0003c400       ??1CXTPComboBoxEditCtrl@@UAE@XZ 0043d400 f i ToolkitPro1501vc60S:XTPComboBox.obj
 0001:0003c410       ??1CXTPComboBox@@UAE@XZ    0043d410 f   ToolkitPro1501vc60S:XTPComboBox.obj
 0001:0003c480       ?GetRuntimeClass@CXTPComboBox@@UBEPAUCRuntimeClass@@XZ 0043d480 f   ToolkitPro1501vc60S:XTPComboBox.obj
 0001:0003c490       ?GetMessageMap@CXTPComboBox@@MBEPBUAFX_MSGMAP@@XZ 0043d490 f   ToolkitPro1501vc60S:XTPComboBox.obj
 0001:0003c4a0       ?RefreshMetrics@CXTPComboBox@@QAEXXZ 0043d4a0 f   ToolkitPro1501vc60S:XTPComboBox.obj
 0001:0003cc00       ??4CXTPPaintManagerColor@@QAEABV0@ABV0@@Z 0043dc00 f i ToolkitPro1501vc60S:XTPComboBox.obj
 0001:0003cc20       ?Init@CXTPComboBox@@IAEXXZ 0043dc20 f   ToolkitPro1501vc60S:XTPComboBox.obj
 0001:0003cc70       ?PreSubclassWindow@CXTPComboBox@@MAEXXZ 0043dc70 f   ToolkitPro1501vc60S:XTPComboBox.obj
 0001:0003cc90       ?OnCreate@CXTPComboBox@@IAEHPAUtagCREATESTRUCTA@@@Z 0043dc90 f   ToolkitPro1501vc60S:XTPComboBox.obj
 0001:0003ccb0       ?PreCreateWindow@CXTPComboBox@@MAEHAAUtagCREATESTRUCTA@@@Z 0043dcb0 f   ToolkitPro1501vc60S:XTPComboBox.obj
 0001:0003cce0       ?SetTheme@CXTPComboBox@@QAEXW4XTPControlTheme@@@Z 0043dce0 f   ToolkitPro1501vc60S:XTPComboBox.obj
 0001:0003cd20       ?OnPaint@CXTPComboBox@@IAEXXZ 0043dd20 f   ToolkitPro1501vc60S:XTPComboBox.obj
 0001:0003dd80       ?GetClientBrush@CXTPComboBox@@IAEPAUHBRUSH__@@PAVCDC@@@Z 0043ed80 f   ToolkitPro1501vc60S:XTPComboBox.obj
 0001:0003de10       ?OnMouseLeave@CXTPComboBox@@IAEXXZ 0043ee10 f   ToolkitPro1501vc60S:XTPComboBox.obj
 0001:0003dec0       ?SetHighlighted@CXTPComboBox@@IAEXH@Z 0043eec0 f   ToolkitPro1501vc60S:XTPComboBox.obj
 0001:0003df10       ?OnMouseMove@CXTPComboBox@@IAEXIVCPoint@@@Z 0043ef10 f   ToolkitPro1501vc60S:XTPComboBox.obj
 0001:0003df70       ?GetMessageMap@CXTPComboBoxEditCtrl@@MBEPBUAFX_MSGMAP@@XZ 0043ef70 f   ToolkitPro1501vc60S:XTPComboBox.obj
 0001:0003df80       ?OnMouseLeave@CXTPComboBoxEditCtrl@@IAEXXZ 0043ef80 f   ToolkitPro1501vc60S:XTPComboBox.obj
 0001:0003dfd0       ?OnMouseMove@CXTPComboBoxEditCtrl@@IAEXIVCPoint@@@Z 0043efd0 f   ToolkitPro1501vc60S:XTPComboBox.obj
 0001:0003e070       ?OnKillFocus@CXTPComboBoxEditCtrl@@IAEXPAVCWnd@@@Z 0043f070 f   ToolkitPro1501vc60S:XTPComboBox.obj
 0001:0003e0c0       ?OnSetFocus@CXTPComboBoxEditCtrl@@IAEXPAVCWnd@@@Z 0043f0c0 f   ToolkitPro1501vc60S:XTPComboBox.obj
 0001:0003e100       ?OnKillFocus@CXTPComboBox@@IAEXPAVCWnd@@@Z 0043f100 f   ToolkitPro1501vc60S:XTPComboBox.obj
 0001:0003e130       ?OnSetFocus@CXTPComboBox@@IAEXPAVCWnd@@@Z 0043f130 f   ToolkitPro1501vc60S:XTPComboBox.obj
 0001:0003e160       ?NeedRedraw@CXTPComboBox@@IAEHXZ 0043f160 f   ToolkitPro1501vc60S:XTPComboBox.obj
 0001:0003e190       ?RedrawFocusedFrame@CXTPComboBox@@IAEXXZ 0043f190 f   ToolkitPro1501vc60S:XTPComboBox.obj
 0001:0003e1c0       ?OnSysColorChange@CXTPComboBox@@IAEXXZ 0043f1c0 f   ToolkitPro1501vc60S:XTPComboBox.obj
 0001:0003e1e0       ?PreTranslateMessage@CXTPComboBox@@MAEHPAUtagMSG@@@Z 0043f1e0 f   ToolkitPro1501vc60S:XTPComboBox.obj
 0001:0003e2a0       ?OnEditUpdate@CXTPComboBox@@IAEHXZ 0043f2a0 f   ToolkitPro1501vc60S:XTPComboBox.obj
 0001:0003e400       ?OnEndSel@CXTPComboBox@@IAEHXZ 0043f400 f   ToolkitPro1501vc60S:XTPComboBox.obj
 0001:0003e420       _compress2                 0043f420 f   ToolkitPro1501vc60S:compress.obj
 0001:0003e4d0       _compress                  0043f4d0 f   ToolkitPro1501vc60S:compress.obj
 0001:0003e4f0       _uncompress                0043f4f0 f   ToolkitPro1501vc60S:uncompr.obj
 0001:0003e5d0       ?AddCaptionButton@CXTPOffice2007FrameHook@@IAEXHH@Z 0043f5d0 f   ToolkitPro1501vc60S:XTPOffice2007FrameHook.obj
 0001:0003e660       ?SetParent@CXTPControl@@MAEXPAVCXTPCommandBar@@@Z 0043f660 f i ToolkitPro1501vc60S:XTPOffice2007FrameHook.obj
 0001:0003e670       ?GetDescription@CXTPControl@@UBE?AVCString@@XZ 0043f670 f i ToolkitPro1501vc60S:XTPOffice2007FrameHook.obj
 0001:0003e740       ?GetDescription@CXTPControlAction@@QBE?AVCString@@XZ 0043f740 f i ToolkitPro1501vc60S:XTPOffice2007FrameHook.obj
 0001:0003e760       ?GetTooltip@CXTPControl@@UBE?AVCString@@XZ 0043f760 f i ToolkitPro1501vc60S:XTPOffice2007FrameHook.obj
 0001:0003e830       ?GetTooltip@CXTPControlAction@@QBE?AVCString@@XZ 0043f830 f i ToolkitPro1501vc60S:XTPOffice2007FrameHook.obj
 0001:0003e850       ?GetCaption@CXTPControl@@UBE?AVCString@@XZ 0043f850 f i ToolkitPro1501vc60S:XTPOffice2007FrameHook.obj
 0001:0003e930       ?GetCaption@CXTPControlAction@@QBE?AVCString@@XZ 0043f930 f i ToolkitPro1501vc60S:XTPOffice2007FrameHook.obj
 0001:0003e960       ?SetBeginGroup@CXTPControl@@UAEXH@Z 0043f960 f i ToolkitPro1501vc60S:XTPOffice2007FrameHook.obj
 0001:0003e980       ?SetEnabled@CXTPControl@@UAEXH@Z 0043f980 f i ToolkitPro1501vc60S:XTPOffice2007FrameHook.obj
 0001:0003e9b0       ?SetChecked@CXTPControl@@UAEXH@Z 0043f9b0 f i ToolkitPro1501vc60S:XTPOffice2007FrameHook.obj
 0001:0003e9d0       ?SetRect@CXTPControl@@UAEXVCRect@@@Z 0043f9d0 f i ToolkitPro1501vc60S:XTPOffice2007FrameHook.obj
 0001:0003ea00       ?IsVisible@CXTPControl@@UBEHK@Z 0043fa00 f i ToolkitPro1501vc60S:XTPOffice2007FrameHook.obj
 0001:0003ea30       ?SetHideFlags@CXTPControl@@UAEXK@Z 0043fa30 f i ToolkitPro1501vc60S:XTPOffice2007FrameHook.obj
 0001:0003ea40       ?OnItemOrderChanged@CXTPTabManager@@MAEXPAVCXTPTabManagerItem@@HH@Z 0043fa40 f i ToolkitPro1501vc60S:XTPOffice2007FrameHook.obj
 0001:0003ea40       ?OnPopupRButtonUp@CXTPCommandBar@@UAEXPAV1@VCPoint@@@Z 0043fa40 f i ToolkitPro1501vc60S:XTPOffice2007FrameHook.obj
 0001:0003ea40       ?OnItemHandleChanged@CXTPTabManager@@MAEXPAVCXTPTabManagerItem@@PAUHWND__@@1@Z 0043fa40 f i ToolkitPro1501vc60S:XTPOffice2007FrameHook.obj
 0001:0003ea40       ?OnClick@CXTPControl@@UAEXHVCPoint@@@Z 0043fa40 f i ToolkitPro1501vc60S:XTPOffice2007FrameHook.obj
 0001:0003ea50       ?SetWidth@CXTPControl@@UAEXH@Z 0043fa50 f i ToolkitPro1501vc60S:XTPOffice2007FrameHook.obj
 0001:0003ea70       ?SetHeight@CXTPControl@@UAEXH@Z 0043fa70 f i ToolkitPro1501vc60S:XTPOffice2007FrameHook.obj
 0001:0003ea90       ?OnRButtonUp@CXTPControl@@MAEHVCPoint@@@Z 0043fa90 f i ToolkitPro1501vc60S:XTPOffice2007FrameHook.obj
 0001:0003ea90       ?OnHookKeyDown@CXTPControl@@MAEHIJ@Z 0043fa90 f i ToolkitPro1501vc60S:XTPOffice2007FrameHook.obj
 0001:0003ea90       ?OnRButtonDown@CXTPControl@@MAEHVCPoint@@@Z 0043fa90 f i ToolkitPro1501vc60S:XTPOffice2007FrameHook.obj
 0001:0003eaa0       ?PreviewAccel@CXTPCommandBar@@UAEHI@Z 0043faa0 f i ToolkitPro1501vc60S:XTPOffice2007FrameHook.obj
 0001:0003eaa0       ?OnSetPopup@CXTPControl@@MAEHH@Z 0043faa0 f i ToolkitPro1501vc60S:XTPOffice2007FrameHook.obj
 0001:0003eaa0       ?SetPosition@CXTPCommandBar@@UAEHW4XTPBarPosition@@@Z 0043faa0 f i ToolkitPro1501vc60S:XTPOffice2007FrameHook.obj
 0001:0003eab0       ?OnLButtonUp@CXTPControl@@MAEXVCPoint@@@Z 0043fab0 f i ToolkitPro1501vc60S:XTPOffice2007FrameHook.obj
 0001:0003eab0       ?OnSwitchItem@CXTPTabManager@@MAEXPAVCXTPTabManagerItem@@0@Z 0043fab0 f i ToolkitPro1501vc60S:XTPOffice2007FrameHook.obj
 0001:0003eab0       ?DrawSingleButton@CAppearanceSet@CXTPTabPaintManager@@UAEXPAVCDC@@PAVCXTPTabManagerItem@@@Z 0043fab0 f i ToolkitPro1501vc60S:XTPOffice2007FrameHook.obj
 0001:0003eab0       ?GetText@CXTPControlComboBoxPopupBar@@UBEXHAAVCString@@@Z 0043fab0 f i ToolkitPro1501vc60S:XTPOffice2007FrameHook.obj
 0001:0003eab0       ?OnMouseMove@CXTPControl@@MAEXVCPoint@@@Z 0043fab0 f i ToolkitPro1501vc60S:XTPOffice2007FrameHook.obj
 0001:0003eac0       ?OnHookMouseWheel@CXTPControl@@MAEHIFVCPoint@@@Z 0043fac0 f i ToolkitPro1501vc60S:XTPOffice2007FrameHook.obj
 0001:0003ead0       ?OnToolHitTest@CXTPControl@@MBEHVCPoint@@PAUtagTOOLINFOA@@@Z 0043fad0 f i ToolkitPro1501vc60S:XTPOffice2007FrameHook.obj
 0001:0003eae0       ?GetSelected@CControlCaptionButton@CXTPOffice2007FrameHook@@UBEHXZ 0043fae0 f i ToolkitPro1501vc60S:XTPOffice2007FrameHook.obj
 0001:0003eb00       ?GetPressed@CControlCaptionButton@CXTPOffice2007FrameHook@@UBEHXZ 0043fb00 f i ToolkitPro1501vc60S:XTPOffice2007FrameHook.obj
 0001:0003eb20       ??0CWinEventHook@CXTPOffice2007FrameHook@@QAE@XZ 0043fb20 f   ToolkitPro1501vc60S:XTPOffice2007FrameHook.obj
 0001:0003eb30       ?SetEventHook@CWinEventHook@CXTPOffice2007FrameHook@@QAEXXZ 0043fb30 f   ToolkitPro1501vc60S:XTPOffice2007FrameHook.obj
 0001:0003ebb0       ?RemoveEventHook@CWinEventHook@CXTPOffice2007FrameHook@@QAEXXZ 0043fbb0 f   ToolkitPro1501vc60S:XTPOffice2007FrameHook.obj
 0001:0003ebf0       ?WinEventProc@CWinEventHook@CXTPOffice2007FrameHook@@KGXPAUHWINEVENTHOOK__@12@KPAUHWND__@@JJKK@Z 0043fbf0 f   ToolkitPro1501vc60S:XTPOffice2007FrameHook.obj
 0001:0003ec70       ??0CXTPOffice2007FrameHook@@QAE@XZ 0043fc70 f   ToolkitPro1501vc60S:XTPOffice2007FrameHook.obj
 0001:0003eef0       ??_GCXTPOffice2007FrameHook@@UAEPAXI@Z 0043fef0 f i ToolkitPro1501vc60S:XTPOffice2007FrameHook.obj
 0001:0003eef0       ??_ECXTPOffice2007FrameHook@@UAEPAXI@Z 0043fef0 f i ToolkitPro1501vc60S:XTPOffice2007FrameHook.obj
 0001:0003ef10       ?OnResourceImagesChanged@CXTPOffice2007FrameHook@@IAEXKIJ@Z 0043ff10 f   ToolkitPro1501vc60S:XTPOffice2007FrameHook.obj
 0001:0003ef60       ?DisableOffice2007Frame@CXTPOffice2007FrameHook@@QAEXXZ 0043ff60 f   ToolkitPro1501vc60S:XTPOffice2007FrameHook.obj
 0001:0003f030       ??1CXTPOffice2007FrameHook@@UAE@XZ 00440030 f   ToolkitPro1501vc60S:XTPOffice2007FrameHook.obj
 0001:0003f130       ?GetSiteStyle@CXTPOffice2007FrameHook@@QBEKH@Z 00440130 f   ToolkitPro1501vc60S:XTPOffice2007FrameHook.obj
 0001:0003f160       ?EnableOffice2007Frame@CXTPOffice2007FrameHook@@QAEXPAVCXTPCommandBars@@@Z 00440160 f   ToolkitPro1501vc60S:XTPOffice2007FrameHook.obj
 0001:0003f2d0       ?SetWinHook@CXTPOffice2007FrameHook@@IAEXXZ 004402d0 f   ToolkitPro1501vc60S:XTPOffice2007FrameHook.obj
 0001:0003f330       ?GetPaintManager@CXTPOffice2007FrameHook@@QBEPAVCXTPPaintManager@@XZ 00440330 f   ToolkitPro1501vc60S:XTPOffice2007FrameHook.obj
 0001:0003f350       ?GetFramePaintManager@CXTPOffice2007FrameHook@@QBEPAVCXTPFramePaintManager@@XZ 00440350 f   ToolkitPro1501vc60S:XTPOffice2007FrameHook.obj
 0001:0003f360       ?UpdateFrameRegion@CXTPOffice2007FrameHook@@IAEXXZ 00440360 f   ToolkitPro1501vc60S:XTPOffice2007FrameHook.obj
 0001:0003f3b0       ?UpdateFrameRegion@CXTPOffice2007FrameHook@@IAEXVCSize@@H@Z 004403b0 f   ToolkitPro1501vc60S:XTPOffice2007FrameHook.obj
 0001:0003f570       ?IsMDIMaximized@CXTPOffice2007FrameHook@@QBEHXZ 00440570 f   ToolkitPro1501vc60S:XTPOffice2007FrameHook.obj
 0001:0003f5a0       ?IsCaptionVisible@CXTPOffice2007FrameHook@@QBEHXZ 004405a0 f   ToolkitPro1501vc60S:XTPOffice2007FrameHook.obj
 0001:0003f5f0       ?IsFrameHasStatusBar@CXTPOffice2007FrameHook@@QBEHPAH@Z 004405f0 f   ToolkitPro1501vc60S:XTPOffice2007FrameHook.obj
 0001:0003f690       ?RedrawFrame@CXTPOffice2007FrameHook@@QAEXXZ 00440690 f   ToolkitPro1501vc60S:XTPOffice2007FrameHook.obj
 0001:0003f710       ?DrawRibbonFramePart@CXTPOffice2007FrameHook@@QAEXPAVCDC@@@Z 00440710 f   ToolkitPro1501vc60S:XTPOffice2007FrameHook.obj
 0001:0003f740       ?RedrawRibbonBar@CXTPOffice2007FrameHook@@QAEXXZ 00440740 f   ToolkitPro1501vc60S:XTPOffice2007FrameHook.obj
 0001:0003f770       ?DelayRecalcFrameLayout@CXTPOffice2007FrameHook@@QAEXXZ 00440770 f   ToolkitPro1501vc60S:XTPOffice2007FrameHook.obj
 0001:0003f790       ?RecalcFrameLayout@CXTPOffice2007FrameHook@@QAEXXZ 00440790 f   ToolkitPro1501vc60S:XTPOffice2007FrameHook.obj
 0001:0003f840       ?RepositionCaptionButtons@CXTPOffice2007FrameHook@@IAEXXZ 00440840 f   ToolkitPro1501vc60S:XTPOffice2007FrameHook.obj
 0001:0003fb40       ?SetHideFlag@CXTPControl@@QAEHW4XTPControlHideFlags@@H@Z 00440b40 f i ToolkitPro1501vc60S:XTPOffice2007FrameHook.obj
 0001:0003fba0       ?ScreenToFrame@CXTPOffice2007FrameHook@@IAEXPAUtagPOINT@@@Z 00440ba0 f   ToolkitPro1501vc60S:XTPOffice2007FrameHook.obj
 0001:0003fbc0       ?TrackCaptionButton@CXTPOffice2007FrameHook@@IAEXPAVCXTPControl@@@Z 00440bc0 f   ToolkitPro1501vc60S:XTPOffice2007FrameHook.obj
 0001:0003fd30       ?GetCaptionHeight@CXTPOffice2007FrameHook@@QBEHXZ 00440d30 f   ToolkitPro1501vc60S:XTPOffice2007FrameHook.obj
 0001:0003fd60       ?HitTestCaptionButton@CXTPOffice2007FrameHook@@IAEPAVCXTPControl@@VCPoint@@@Z 00440d60 f   ToolkitPro1501vc60S:XTPOffice2007FrameHook.obj
 0001:0003fd90       ?RefreshFrameStyle@CXTPOffice2007FrameHook@@IAEXXZ 00440d90 f   ToolkitPro1501vc60S:XTPOffice2007FrameHook.obj
 0001:0003fe30       ?GetAutoHideBar@CXTPOffice2007FrameHook@@IBEHXZ 00440e30 f   ToolkitPro1501vc60S:XTPOffice2007FrameHook.obj
 0001:0003fe60       ?OnHookMessage@CXTPOffice2007FrameHook@@MAEHPAUHWND__@@IAAIAAJ2@Z 00440e60 f   ToolkitPro1501vc60S:XTPOffice2007FrameHook.obj
 0001:00040980       ??1?$CXTPNotifySinkImpl@VCXTPOffice2007FrameHook@@VC_m_Sink_Informator@1@@@UAE@XZ 00441980 f i ToolkitPro1501vc60S:XTPOffice2007FrameHook.obj
 0001:00040a30       ?OnEvent@?$CXTPNotifySinkImpl@VCXTPOffice2007FrameHook@@VC_m_Sink_Informator@1@@@UAEXKIJK@Z 00441a30 f i ToolkitPro1501vc60S:XTPOffice2007FrameHook.obj
 0001:00040aa0       ??_E?$CXTPNotifySinkImpl@VCXTPOffice2007FrameHook@@VC_m_Sink_Informator@1@@@UAEPAXI@Z 00441aa0 f i ToolkitPro1501vc60S:XTPOffice2007FrameHook.obj
 0001:00040aa0       ??_G?$CXTPNotifySinkImpl@VCXTPOffice2007FrameHook@@VC_m_Sink_Informator@1@@@UAEPAXI@Z 00441aa0 f i ToolkitPro1501vc60S:XTPOffice2007FrameHook.obj
 0001:00040ac0       ??1?$CXTPNotifyMapCodeToHandler@P8CXTPOffice2007FrameHook@@AEXKIJ@Z@@UAE@XZ 00441ac0 f i ToolkitPro1501vc60S:XTPOffice2007FrameHook.obj
 0001:00040b40       ??_E?$CXTPNotifyMapCodeToHandler@P8CXTPOffice2007FrameHook@@AEXKIJ@Z@@UAEPAXI@Z 00441b40 f i ToolkitPro1501vc60S:XTPOffice2007FrameHook.obj
 0001:00040b40       ??_G?$CXTPNotifyMapCodeToHandler@P8CXTPOffice2007FrameHook@@AEXKIJ@Z@@UAEPAXI@Z 00441b40 f i ToolkitPro1501vc60S:XTPOffice2007FrameHook.obj
 0001:00040b60       ??0?$CMap@KKV?$XTP_MAPHANDLER_T@$03@@AAV1@@@QAE@H@Z 00441b60 f i ToolkitPro1501vc60S:XTPOffice2007FrameHook.obj
 0001:00040b90       ?Serialize@?$CMap@KKV?$XTP_MAPHANDLER_T@$03@@AAV1@@@UAEXAAVCArchive@@@Z 00441b90 f i ToolkitPro1501vc60S:XTPOffice2007FrameHook.obj
 0001:00040d90       ??_E?$CMap@KKV?$XTP_MAPHANDLER_T@$03@@AAV1@@@UAEPAXI@Z 00441d90 f i ToolkitPro1501vc60S:XTPOffice2007FrameHook.obj
 0001:00040d90       ??_G?$CMap@KKV?$XTP_MAPHANDLER_T@$03@@AAV1@@@UAEPAXI@Z 00441d90 f i ToolkitPro1501vc60S:XTPOffice2007FrameHook.obj
 0001:00040db0       ??1?$CMap@KKV?$XTP_MAPHANDLER_T@$03@@AAV1@@@UAE@XZ 00441db0 f i ToolkitPro1501vc60S:XTPOffice2007FrameHook.obj
 0001:00040e60       ??0CXTPTrayIcon@@QAE@XZ    00441e60 f   ToolkitPro1501vc60S:XTPTrayIcon.obj
 0001:00040f20       ?Create@CXTPTrayIcon@@UAE_NPBDKPAVCWnd@@I@Z 00441f20 f i ToolkitPro1501vc60S:XTPTrayIcon.obj
 0001:00040f40       ?SetTooltip@CXTPTrayIcon@@UAEXPBD@Z 00441f40 f i ToolkitPro1501vc60S:XTPTrayIcon.obj
 0001:00040f50       ?SetTrayIcon@CXTPTrayIcon@@UAEXIK@Z 00441f50 f i ToolkitPro1501vc60S:XTPTrayIcon.obj
 0001:00040f60       ?SetAnimationIcons@CXTPTrayIcon@@UAEXPBIPBVCString@@H@Z 00441f60 f i ToolkitPro1501vc60S:XTPTrayIcon.obj
 0001:00040f80       ?KillTimer@CXTPTrayIcon@@UAEXXZ 00441f80 f i ToolkitPro1501vc60S:XTPTrayIcon.obj
 0001:00040f90       ?SetTimer@CXTPTrayIcon@@UAEXII@Z 00441f90 f i ToolkitPro1501vc60S:XTPTrayIcon.obj
 0001:00040fb0       ??_ECXTPTrayIcon@@UAEPAXI@Z 00441fb0 f i ToolkitPro1501vc60S:XTPTrayIcon.obj
 0001:00040fb0       ??_GCXTPTrayIcon@@UAEPAXI@Z 00441fb0 f i ToolkitPro1501vc60S:XTPTrayIcon.obj
 0001:00040fd0       ??1CXTPTrayIcon@@UAE@XZ    00441fd0 f   ToolkitPro1501vc60S:XTPTrayIcon.obj
 0001:000410c0       ?GetMessageMap@CXTPTrayIcon@@MBEPBUAFX_MSGMAP@@XZ 004420c0 f   ToolkitPro1501vc60S:XTPTrayIcon.obj
 0001:000410d0       ?SetDefaultValues@CXTPTrayIcon@@QAEXXZ 004420d0 f   ToolkitPro1501vc60S:XTPTrayIcon.obj
 0001:00041170       ?IsShellVersion5@CXTPTrayIcon@@QBEHXZ 00442170 f   ToolkitPro1501vc60S:XTPTrayIcon.obj
 0001:000411f0       ?ShellNotify@CXTPTrayIcon@@QAEHK@Z 004421f0 f   ToolkitPro1501vc60S:XTPTrayIcon.obj
 0001:00041210       ?SetIcon@CXTPTrayIcon@@QAE_NPAUHICON__@@@Z 00442210 f   ToolkitPro1501vc60S:XTPTrayIcon.obj
 0001:00041250       ?SetIcon@CXTPTrayIcon@@QAE_NPBD@Z 00442250 f   ToolkitPro1501vc60S:XTPTrayIcon.obj
 0001:000412b0       ?SetIcon@CXTPTrayIcon@@QAE_NI@Z 004422b0 f   ToolkitPro1501vc60S:XTPTrayIcon.obj
 0001:000412d0       ?RemoveAnimationIcons@CXTPTrayIcon@@UAEXXZ 004422d0 f   ToolkitPro1501vc60S:XTPTrayIcon.obj
 0001:00041320       ?SetAnimationIcons@CXTPTrayIcon@@UAE_NPBIHPBVCString@@@Z 00442320 f   ToolkitPro1501vc60S:XTPTrayIcon.obj
 0001:00041510       ??1TRAYICONDATA@CXTPTrayIcon@@QAE@XZ 00442510 f i ToolkitPro1501vc60S:XTPTrayIcon.obj
 0001:00041520       ??0TRAYICONDATA@CXTPTrayIcon@@QAE@XZ 00442520 f i ToolkitPro1501vc60S:XTPTrayIcon.obj
 0001:00041530       ?SetTooltipText@CXTPTrayIcon@@QAE_NPBD@Z 00442530 f   ToolkitPro1501vc60S:XTPTrayIcon.obj
 0001:000415c0       ?SetShellTooltip@CXTPTrayIcon@@AAE_NPBD@Z 004425c0 f   ToolkitPro1501vc60S:XTPTrayIcon.obj
 0001:00041610       ?AddIcon@CXTPTrayIcon@@QAE_NXZ 00442610 f   ToolkitPro1501vc60S:XTPTrayIcon.obj
 0001:00041650       ?RemoveIcon@CXTPTrayIcon@@QAE_NXZ 00442650 f   ToolkitPro1501vc60S:XTPTrayIcon.obj
 0001:00041690       ?OnTimer@CXTPTrayIcon@@IAEXI@Z 00442690 f   ToolkitPro1501vc60S:XTPTrayIcon.obj
 0001:00041710       ?Create@CXTPTrayIcon@@UAE_NPBDPAVCWnd@@III_N@Z 00442710 f   ToolkitPro1501vc60S:XTPTrayIcon.obj
 0001:000417c0       ?ShowBalloonTip@CXTPTrayIcon@@QAE_NPBD0KI@Z 004427c0 f   ToolkitPro1501vc60S:XTPTrayIcon.obj
 0001:00041870       ?StartAnimation@CXTPTrayIcon@@UAEXI@Z 00442870 f   ToolkitPro1501vc60S:XTPTrayIcon.obj
 0001:00041890       ?StopAnimation@CXTPTrayIcon@@UAEXXZ 00442890 f   ToolkitPro1501vc60S:XTPTrayIcon.obj
 0001:000418c0       ?OnTrayNotification@CXTPTrayIcon@@MAEJIJ@Z 004428c0 f   ToolkitPro1501vc60S:XTPTrayIcon.obj
 0001:00041bd0       ?WindowProc@CXTPTrayIcon@@MAEJIIJ@Z 00442bd0 f   ToolkitPro1501vc60S:XTPTrayIcon.obj
 0001:00041c10       ?OnTaskbarCreated@CXTPTrayIcon@@IAEJIJ@Z 00442c10 f   ToolkitPro1501vc60S:XTPTrayIcon.obj
 0001:00041c20       ?OnSettingChange@CXTPTrayIcon@@IAEXIPBD@Z 00442c20 f   ToolkitPro1501vc60S:XTPTrayIcon.obj
 0001:00041c50       ?InstallIconPending@CXTPTrayIcon@@UAEXXZ 00442c50 f   ToolkitPro1501vc60S:XTPTrayIcon.obj
 0001:00041c80       ?FindTrayWnd@CXTPTrayIcon@@CGHPAUHWND__@@J@Z 00442c80 f   ToolkitPro1501vc60S:XTPTrayIcon.obj
 0001:00041d30       ?GetTrayWindowRect@CXTPTrayIcon@@AAE_NAAVCRect@@@Z 00442d30 f   ToolkitPro1501vc60S:XTPTrayIcon.obj
 0001:00041e50       ?CanAnimate@CXTPTrayIcon@@ABE_NXZ 00442e50 f   ToolkitPro1501vc60S:XTPTrayIcon.obj
 0001:00041e90       ?CreateMinimizeWnd@CXTPTrayIcon@@UAE_NPAVCWnd@@@Z 00442e90 f   ToolkitPro1501vc60S:XTPTrayIcon.obj
 0001:00041f10       ?MinimizeToTray@CXTPTrayIcon@@QAEXPAVCWnd@@@Z 00442f10 f   ToolkitPro1501vc60S:XTPTrayIcon.obj
 0001:00041f80       ?MaximizeFromTray@CXTPTrayIcon@@QAEXPAVCWnd@@@Z 00442f80 f   ToolkitPro1501vc60S:XTPTrayIcon.obj
 0001:00042040       ?RemoveHead@?$CList@UTRAYICONDATA@CXTPTrayIcon@@AAU12@@@QAE?AUTRAYICONDATA@CXTPTrayIcon@@XZ 00443040 f i ToolkitPro1501vc60S:XTPTrayIcon.obj
 0001:00042140       ??1?$CList@UTRAYICONDATA@CXTPTrayIcon@@AAU12@@@UAE@XZ 00443140 f i ToolkitPro1501vc60S:XTPTrayIcon.obj
 0001:000421c0       ?Serialize@?$CList@UTRAYICONDATA@CXTPTrayIcon@@AAU12@@@UAEXAAVCArchive@@@Z 004431c0 f i ToolkitPro1501vc60S:XTPTrayIcon.obj
 0001:00042340       ??_E?$CList@UTRAYICONDATA@CXTPTrayIcon@@AAU12@@@UAEPAXI@Z 00443340 f i ToolkitPro1501vc60S:XTPTrayIcon.obj
 0001:00042340       ??_G?$CList@UTRAYICONDATA@CXTPTrayIcon@@AAU12@@@UAEPAXI@Z 00443340 f i ToolkitPro1501vc60S:XTPTrayIcon.obj
 0001:00042360       ?ConstructElements@@YGXPAUTRAYICONDATA@CXTPTrayIcon@@H@Z 00443360 f i ToolkitPro1501vc60S:XTPTrayIcon.obj
 0001:000423e0       ?GetRuntimeClass@CXTPStatusBarPane@@UBEPAUCRuntimeClass@@XZ 004433e0 f   ToolkitPro1501vc60S:XTPStatusBar.obj
 0001:000423f0       ??0CXTPStatusBarPane@@QAE@XZ 004433f0 f   ToolkitPro1501vc60S:XTPStatusBar.obj
 0001:000424c0       ??_GCXTPStatusBarPane@@UAEPAXI@Z 004434c0 f i ToolkitPro1501vc60S:XTPStatusBar.obj
 0001:000424c0       ??_ECXTPStatusBarPane@@UAEPAXI@Z 004434c0 f i ToolkitPro1501vc60S:XTPStatusBar.obj
 0001:000424e0       ??1CXTPStatusBarPane@@UAE@XZ 004434e0 f   ToolkitPro1501vc60S:XTPStatusBar.obj
 0001:000425d0       ?GetRect@CXTPStatusBarPane@@QBE?AVCRect@@XZ 004435d0 f   ToolkitPro1501vc60S:XTPStatusBar.obj
 0001:00042600       ?Redraw@CXTPStatusBarPane@@QBEXXZ 00443600 f   ToolkitPro1501vc60S:XTPStatusBar.obj
 0001:00042650       ?GetPadding@CXTPStatusBarPane@@QBE?AVCRect@@XZ 00443650 f   ToolkitPro1501vc60S:XTPStatusBar.obj
 0001:00042680       ?SetText@CXTPStatusBarPane@@QAEXPBD@Z 00443680 f   ToolkitPro1501vc60S:XTPStatusBar.obj
 0001:00042760       ?GetText@CXTPStatusBarPane@@QBE?AVCString@@XZ 00443760 f   ToolkitPro1501vc60S:XTPStatusBar.obj
 0001:00042780       ?GetWidth@CXTPStatusBarPane@@UAEHXZ 00443780 f   ToolkitPro1501vc60S:XTPStatusBar.obj
 0001:00042790       ?SetStyle@CXTPStatusBarPane@@QAEXI@Z 00443790 f   ToolkitPro1501vc60S:XTPStatusBar.obj
 0001:000427d0       ?GetIndex@CXTPStatusBarPane@@QBEHXZ 004437d0 f   ToolkitPro1501vc60S:XTPStatusBar.obj
 0001:000427e0       ?IsVisible@CXTPStatusBarPane@@QBEHXZ 004437e0 f   ToolkitPro1501vc60S:XTPStatusBar.obj
 0001:000427e0       ?IsClosed@CXTPDockingPane@@QBEHXZ 004437e0 f   ToolkitPro1501vc60S:XTPStatusBar.obj
 0001:000427f0       ?OnDraw@CXTPStatusBarPane@@MAEXPAVCDC@@VCRect@@@Z 004437f0 f   ToolkitPro1501vc60S:XTPStatusBar.obj
 0001:00042840       ?GetBestFit@CXTPStatusBarPane@@QAEHXZ 00443840 f   ToolkitPro1501vc60S:XTPStatusBar.obj
 0001:00042970       ?GetTextFont@CXTPStatusBarPane@@UAEPAVCFont@@XZ 00443970 f   ToolkitPro1501vc60S:XTPStatusBar.obj
 0001:00042990       ?GetImage@CXTPStatusBarPane@@UBEPAVCXTPImageManagerIcon@@XZ 00443990 f   ToolkitPro1501vc60S:XTPStatusBar.obj
 0001:000429b0       ?GetTooltip@CXTPStatusBarPane@@QBE?AVCString@@XZ 004439b0 f   ToolkitPro1501vc60S:XTPStatusBar.obj
 0001:000429d0       ?SetEnabled@CXTPStatusBarPane@@QAEXH@Z 004439d0 f   ToolkitPro1501vc60S:XTPStatusBar.obj
 0001:00042a10       ?IsEnabled@CXTPStatusBarPane@@QBEHXZ 00443a10 f   ToolkitPro1501vc60S:XTPStatusBar.obj
 0001:00042a20       ?IsChecked@CXTPStatusBarPane@@QBEHXZ 00443a20 f   ToolkitPro1501vc60S:XTPStatusBar.obj
 0001:00042a40       ?OnToolHitTest@CXTPStatusBarPane@@MBEHVCPoint@@PAUtagTOOLINFOA@@@Z 00443a40 f   ToolkitPro1501vc60S:XTPStatusBar.obj
 0001:00042a50       ?OnLButtonDown@CXTPStatusBarPane@@MAEXVCPoint@@@Z 00443a50 f   ToolkitPro1501vc60S:XTPStatusBar.obj
 0001:00042ba0       ?GetRuntimeClass@CXTPStatusBar@@UBEPAUCRuntimeClass@@XZ 00443ba0 f   ToolkitPro1501vc60S:XTPStatusBar.obj
 0001:00042bb0       ??0CXTPStatusBar@@QAE@XZ   00443bb0 f   ToolkitPro1501vc60S:XTPStatusBar.obj
 0001:00042ca0       ??_ECXTPStatusBar@@UAEPAXI@Z 00443ca0 f i ToolkitPro1501vc60S:XTPStatusBar.obj
 0001:00042ca0       ??_GCXTPStatusBar@@UAEPAXI@Z 00443ca0 f i ToolkitPro1501vc60S:XTPStatusBar.obj
 0001:00042cc0       ?IsWin4@CXTPStatusBar@@AAEHXZ 00443cc0 f   ToolkitPro1501vc60S:XTPStatusBar.obj
 0001:00042cd0       ??1CXTPStatusBar@@UAE@XZ   00443cd0 f   ToolkitPro1501vc60S:XTPStatusBar.obj
 0001:00042d90       ?GetImageManager@CXTPStatusBar@@QBEPAVCXTPImageManager@@XZ 00443d90 f   ToolkitPro1501vc60S:XTPStatusBar.obj
 0001:00042db0       ?HitTest@CXTPStatusBar@@QBEPAVCXTPStatusBarPane@@VCPoint@@PAVCRect@@@Z 00443db0 f   ToolkitPro1501vc60S:XTPStatusBar.obj
 0001:00042e60       ?RemoveAll@CXTPStatusBar@@QAEXXZ 00443e60 f   ToolkitPro1501vc60S:XTPStatusBar.obj
 0001:00042ec0       ?FindPane@CXTPStatusBar@@QBEPAVCXTPStatusBarPane@@I@Z 00443ec0 f   ToolkitPro1501vc60S:XTPStatusBar.obj
 0001:00042f10       ?Create@CXTPStatusBar@@QAEHPAVCWnd@@KI@Z 00443f10 f   ToolkitPro1501vc60S:XTPStatusBar.obj
 0001:00042f30       ?GetFont@CXTPStatusBar@@QAEPAVCFont@@XZ 00443f30 f   ToolkitPro1501vc60S:XTPStatusBar.obj
 0001:00042f50       ?CreateEx@CXTPStatusBar@@QAEHPAVCWnd@@KKI@Z 00443f50 f   ToolkitPro1501vc60S:XTPStatusBar.obj
 0001:00042fe0       ?PreCreateWindow@CXTPStatusBar@@MAEHAAUtagCREATESTRUCTA@@@Z 00443fe0 f   ToolkitPro1501vc60S:XTPStatusBar.obj
 0001:00043020       ?SetIndicators@CXTPStatusBar@@QAEHPBIH@Z 00444020 f   ToolkitPro1501vc60S:XTPStatusBar.obj
 0001:00043280       ?CalcInsideRect@CXTPStatusBar@@IBEXAAVCRect@@H@Z 00444280 f   ToolkitPro1501vc60S:XTPStatusBar.obj
 0001:00043300       ?RecalcLayout@CXTPStatusBar@@UAEXXZ 00444300 f   ToolkitPro1501vc60S:XTPStatusBar.obj
 0001:000435d0       ?CommandToIndex@CXTPStatusBar@@QBEHI@Z 004445d0 f   ToolkitPro1501vc60S:XTPStatusBar.obj
 0001:00043620       ?GetItemID@CXTPStatusBar@@QBEIH@Z 00444620 f   ToolkitPro1501vc60S:XTPStatusBar.obj
 0001:00043640       ?GetPaneStyle@CXTPStatusBar@@QBEIH@Z 00444640 f   ToolkitPro1501vc60S:XTPStatusBar.obj
 0001:00043660       ?SetPaneStyle@CXTPStatusBar@@QAEXHI@Z 00444660 f   ToolkitPro1501vc60S:XTPStatusBar.obj
 0001:00043680       ?SetPaneInfo@CXTPStatusBar@@QAEXHIIH@Z 00444680 f   ToolkitPro1501vc60S:XTPStatusBar.obj
 0001:00043700       ?SetPaneText@CXTPStatusBar@@QAEHHPBD@Z 00444700 f   ToolkitPro1501vc60S:XTPStatusBar.obj
 0001:00043730       ?CalcFixedLayout@CXTPStatusBar@@MAE?AVCSize@@HH@Z 00444730 f   ToolkitPro1501vc60S:XTPStatusBar.obj
 0001:00043820       ?GetMessageMap@CXTPStatusBar@@MBEPBUAFX_MSGMAP@@XZ 00444820 f   ToolkitPro1501vc60S:XTPStatusBar.obj
 0001:00043830       ?OnCreate@CXTPStatusBar@@QAEHPAUtagCREATESTRUCTA@@@Z 00444830 f   ToolkitPro1501vc60S:XTPStatusBar.obj
 0001:00043850       ?OnSysCommand@CXTPStatusBar@@IAEXIJ@Z 00444850 f   ToolkitPro1501vc60S:XTPStatusBar.obj
 0001:00043890       ?OnNcHitTest@CXTPStatusBar@@IAEJVCPoint@@@Z 00444890 f   ToolkitPro1501vc60S:XTPStatusBar.obj
 0001:00043990       ?SetCustomizationVisible@CXTPStatusBarPane@@QAEXH@Z 00444990 f   ToolkitPro1501vc60S:XTPStatusBar.obj
 0001:000439c0       ?GetCustomizationVisible@CXTPStatusBarPane@@QBEHXZ 004449c0 f   ToolkitPro1501vc60S:XTPStatusBar.obj
 0001:000439d0       ?GetStatusBarPopup@CXTPStatusBar@@UAEPAVCXTPPopupBar@@XZ 004449d0 f   ToolkitPro1501vc60S:XTPStatusBar.obj
 0001:00043b70       ?GetSelected@CXTPControl@@UBEHXZ 00444b70 f i ToolkitPro1501vc60S:XTPStatusBar.obj
 0001:00043b70       ?GetVisitedColor@CXTPHyperLink@@UBEKXZ 00444b70 f i ToolkitPro1501vc60S:XTPStatusBar.obj
 0001:00043b80       ?GetPressed@CXTPControl@@UBEHXZ 00444b80 f i ToolkitPro1501vc60S:XTPStatusBar.obj
 0001:00043b90       ?OnExecute@CControlCustomization@CXTPStatusBar@@UAEXXZ 00444b90 f i ToolkitPro1501vc60S:XTPStatusBar.obj
 0001:00043bf0       ??1CXTPControlToolbars@@UAE@XZ 00444bf0 f i ToolkitPro1501vc60S:XTPStatusBar.obj
 0001:00043bf0       ??1CXTPControlToolbar@CXTPControlToolbars@@UAE@XZ 00444bf0 f i ToolkitPro1501vc60S:XTPStatusBar.obj
 0001:00043bf0       ??1CControlButtonCustomize@CXTPToolBar@@UAE@XZ 00444bf0 f i ToolkitPro1501vc60S:XTPStatusBar.obj
 0001:00043bf0       ??1CControlQuickAccessCommand@CXTPRibbonBar@@UAE@XZ 00444bf0 f i ToolkitPro1501vc60S:XTPStatusBar.obj
 0001:00043bf0       ??1CControlGroupsScroll@CXTPRibbonScrollableBar@@UAE@XZ 00444bf0 f i ToolkitPro1501vc60S:XTPStatusBar.obj
 0001:00043bf0       ??1CXTPRibbonControlSystemPopupBarButton@@UAE@XZ 00444bf0 f i ToolkitPro1501vc60S:XTPStatusBar.obj
 0001:00043bf0       ??1CCustomizeButton@CXTPCustomizeSheet@@UAE@XZ 00444bf0 f i ToolkitPro1501vc60S:XTPStatusBar.obj
 0001:00043bf0       ??1CXTPControlWorkspaceActions@@UAE@XZ 00444bf0 f i ToolkitPro1501vc60S:XTPStatusBar.obj
 0001:00043bf0       ??1CControlButtonHide@CXTPToolBar@@UAE@XZ 00444bf0 f i ToolkitPro1501vc60S:XTPStatusBar.obj
 0001:00043bf0       ??1CXTPRibbonBarControlCaptionButton@@UAE@XZ 00444bf0 f i ToolkitPro1501vc60S:XTPStatusBar.obj
 0001:00043bf0       ??1CXTPControlRadioButton@@UAE@XZ 00444bf0 f i ToolkitPro1501vc60S:XTPStatusBar.obj
 0001:00043bf0       ??1CXTPControlCheckBox@@UAE@XZ 00444bf0 f i ToolkitPro1501vc60S:XTPStatusBar.obj
 0001:00043bf0       ??1CControlFileItem@CXTPRibbonControlSystemRecentFileList@@UAE@XZ 00444bf0 f i ToolkitPro1501vc60S:XTPStatusBar.obj
 0001:00043bf0       ??1CControlButtonHide@CXTPDialogBar@@UAE@XZ 00444bf0 f i ToolkitPro1501vc60S:XTPStatusBar.obj
 0001:00043bf0       ??1CXTPControlRecentFileList@@UAE@XZ 00444bf0 f i ToolkitPro1501vc60S:XTPStatusBar.obj
 0001:00043bf0       ??1CControlCustomization@CXTPStatusBar@@UAE@XZ 00444bf0 f i ToolkitPro1501vc60S:XTPStatusBar.obj
 0001:00043bf0       ??1CControlMDIButton@CXTPMenuBar@@UAE@XZ 00444bf0 f i ToolkitPro1501vc60S:XTPStatusBar.obj
 0001:00043bf0       ??1CXTPRibbonGroupOption@@UAE@XZ 00444bf0 f i ToolkitPro1501vc60S:XTPStatusBar.obj
 0001:00043bf0       ??1CXTPRibbonControlSystemPopupBarListItem@@UAE@XZ 00444bf0 f i ToolkitPro1501vc60S:XTPStatusBar.obj
 0001:00043bf0       ??1CXTPControlOleItems@@UAE@XZ 00444bf0 f i ToolkitPro1501vc60S:XTPStatusBar.obj
 0001:00043bf0       ??1CXTPControlWindowList@@UAE@XZ 00444bf0 f i ToolkitPro1501vc60S:XTPStatusBar.obj
 0001:00043bf0       ??1CControlExpandButton@CXTPPopupBar@@UAE@XZ 00444bf0 f i ToolkitPro1501vc60S:XTPStatusBar.obj
 0001:00043c00       ?OnRButtonUp@CXTPStatusBar@@IAEXIVCPoint@@@Z 00444c00 f   ToolkitPro1501vc60S:XTPStatusBar.obj
 0001:00043c70       ?OnMouseLeave@CXTPStatusBar@@IAEXXZ 00444c70 f   ToolkitPro1501vc60S:XTPStatusBar.obj
 0001:00043c80       ?HandleMouseMove@CXTPStatusBar@@IAEXVCPoint@@@Z 00444c80 f   ToolkitPro1501vc60S:XTPStatusBar.obj
 0001:00043d70       ?OnMouseMove@CXTPStatusBar@@IAEXIVCPoint@@@Z 00444d70 f   ToolkitPro1501vc60S:XTPStatusBar.obj
 0001:00043d90       ?OnLButtonDblClk@CXTPStatusBar@@IAEXIVCPoint@@@Z 00444d90 f   ToolkitPro1501vc60S:XTPStatusBar.obj
 0001:00043e50       ?OnLButtonDown@CXTPStatusBar@@IAEXIVCPoint@@@Z 00444e50 f   ToolkitPro1501vc60S:XTPStatusBar.obj
 0001:00043e80       ?OnNcCalcSize@CXTPStatusBar@@IAEXHPAUtagNCCALCSIZE_PARAMS@@@Z 00444e80 f   ToolkitPro1501vc60S:XTPStatusBar.obj
 0001:00043ee0       ?OnBarStyleChange@CXTPStatusBar@@MAEXKK@Z 00444ee0 f   ToolkitPro1501vc60S:XTPStatusBar.obj
 0001:00043f10       ?OnNcPaint@CXTPStatusBar@@IAEXXZ 00444f10 f   ToolkitPro1501vc60S:XTPStatusBar.obj
 0001:00043f20       ?OnSize@CXTPStatusBar@@QAEXIHH@Z 00444f20 f   ToolkitPro1501vc60S:XTPStatusBar.obj
 0001:00043f40       ?OnWindowPosChanging@CXTPStatusBar@@IAEXPAUtagWINDOWPOS@@@Z 00444f40 f   ToolkitPro1501vc60S:XTPStatusBar.obj
 0001:00043f70       ?OnSetText@CXTPStatusBar@@IAEJIJ@Z 00444f70 f   ToolkitPro1501vc60S:XTPStatusBar.obj
 0001:00043fa0       ?OnGetText@CXTPStatusBar@@IAEJIJ@Z 00444fa0 f   ToolkitPro1501vc60S:XTPStatusBar.obj
 0001:00044000       ?OnGetTextLength@CXTPStatusBar@@IAEJIJ@Z 00445000 f   ToolkitPro1501vc60S:XTPStatusBar.obj
 0001:00044030       ?OnSetMinHeight@CXTPStatusBar@@IAEJIJ@Z 00445030 f   ToolkitPro1501vc60S:XTPStatusBar.obj
 0001:00044050       ?Enable@CStatusCmdUI@CXTPStatusBar@@UAEXH@Z 00445050 f   ToolkitPro1501vc60S:XTPStatusBar.obj
 0001:00044080       ?SetCheck@CStatusCmdUI@CXTPStatusBar@@UAEXH@Z 00445080 f   ToolkitPro1501vc60S:XTPStatusBar.obj
 0001:000440c0       ?SetText@CStatusCmdUI@CXTPStatusBar@@UAEXPBD@Z 004450c0 f   ToolkitPro1501vc60S:XTPStatusBar.obj
 0001:000440e0       ?OnUpdateCmdUI@CXTPStatusBar@@MAEXPAVCFrameWnd@@H@Z 004450e0 f   ToolkitPro1501vc60S:XTPStatusBar.obj
 0001:00044170       ?GetPaintManager@CXTPStatusBar@@QBEPAVCXTPPaintManager@@XZ 00445170 f   ToolkitPro1501vc60S:XTPStatusBar.obj
 0001:000441a0       ?DrawPaneEntry@CXTPStatusBar@@UAEXPAVCDC@@HVCRect@@@Z 004451a0 f   ToolkitPro1501vc60S:XTPStatusBar.obj
 0001:000441e0       ?OnPaint@CXTPStatusBar@@QAEXXZ 004451e0 f   ToolkitPro1501vc60S:XTPStatusBar.obj
 0001:00044270       ?OnPrintClient@CXTPStatusBar@@QAEJIJ@Z 00445270 f   ToolkitPro1501vc60S:XTPStatusBar.obj
 0001:000442b0       ?OnDraw@CXTPStatusBar@@QAEXPAVCDC@@@Z 004452b0 f   ToolkitPro1501vc60S:XTPStatusBar.obj
 0001:00044480       ?DrawStretch@CXTPStatusBar@@MAEXPAVCDC@@AAVCRect@@@Z 00445480 f   ToolkitPro1501vc60S:XTPStatusBar.obj
 0001:000444c0       ?PositionControls@CXTPStatusBar@@QAEXXZ 004454c0 f   ToolkitPro1501vc60S:XTPStatusBar.obj
 0001:000445e0       ?OnWindowPosChanged@CXTPStatusBar@@IAEXPAUtagWINDOWPOS@@@Z 004455e0 f   ToolkitPro1501vc60S:XTPStatusBar.obj
 0001:00044640       ?OnIdleUpdateCmdUI@CXTPStatusBar@@QAEJIJ@Z 00445640 f   ToolkitPro1501vc60S:XTPStatusBar.obj
 0001:00044700       ?OnToolHitTest@CXTPStatusBar@@MBEHVCPoint@@PAUtagTOOLINFOA@@@Z 00445700 f   ToolkitPro1501vc60S:XTPStatusBar.obj
 0001:00044840       ?OnPaneClick@CXTPStatusBar@@UAEXPAVCXTPStatusBarPane@@@Z 00445840 f   ToolkitPro1501vc60S:XTPStatusBar.obj
 0001:00044880       ?OnSwitchPaneClick@CXTPStatusBar@@UAEXPAVCXTPStatusBarPane@@J@Z 00445880 f   ToolkitPro1501vc60S:XTPStatusBar.obj
 0001:000448b0       ?OnWndMsg@CXTPStatusBar@@MAEHIIJPAJ@Z 004458b0 f   ToolkitPro1501vc60S:XTPStatusBar.obj
 0001:00044960       ?LoadState@CXTPStatusBar@@QAEXPBD@Z 00445960 f   ToolkitPro1501vc60S:XTPStatusBar.obj
 0001:00044b30       ?DoPropExchange@CXTPStatusBar@@UAEXPAVCXTPPropExchange@@@Z 00445b30 f   ToolkitPro1501vc60S:XTPStatusBar.obj
 0001:00044e50       ?SaveState@CXTPStatusBar@@QAEXPBD@Z 00445e50 f   ToolkitPro1501vc60S:XTPStatusBar.obj
 0001:00045000       ?GetSwitchCount@CXTPStatusBarSwitchPane@@QBEHXZ 00446000 f   ToolkitPro1501vc60S:XTPStatusBar.obj
 0001:00045010       ?GetSwitch@CXTPStatusBarSwitchPane@@QBEPAUSWITCH@1@H@Z 00446010 f   ToolkitPro1501vc60S:XTPStatusBar.obj
 0001:00045020       ??1?$CArray@PAVCXTPStatusBarPane@@PAV1@@@UAE@XZ 00446020 f i ToolkitPro1501vc60S:XTPStatusBar.obj
 0001:00045070       ??_G?$CArray@PAVCXTPStatusBarPane@@PAV1@@@UAEPAXI@Z 00446070 f i ToolkitPro1501vc60S:XTPStatusBar.obj
 0001:00045070       ??_E?$CArray@PAVCXTPStatusBarPane@@PAV1@@@UAEPAXI@Z 00446070 f i ToolkitPro1501vc60S:XTPStatusBar.obj
 0001:00045090       ??0CXTPDockingPaneManager@@QAE@XZ 00446090 f   ToolkitPro1501vc60S:XTPDockingPaneManager.obj
 0001:00045340       ??_ECXTPDockingPaneManager@@UAEPAXI@Z 00446340 f i ToolkitPro1501vc60S:XTPDockingPaneManager.obj
 0001:00045340       ??_GCXTPDockingPaneManager@@UAEPAXI@Z 00446340 f i ToolkitPro1501vc60S:XTPDockingPaneManager.obj
 0001:00045360       ??1CXTPDockingPaneManager@@UAE@XZ 00446360 f   ToolkitPro1501vc60S:XTPDockingPaneManager.obj
 0001:00045470       ?GetMessageMap@CXTPDockingPaneManager@@MBEPBUAFX_MSGMAP@@XZ 00446470 f   ToolkitPro1501vc60S:XTPDockingPaneManager.obj
 0001:00045480       ?OnSysColorChange@CXTPDockingPaneManager@@IAEXXZ 00446480 f   ToolkitPro1501vc60S:XTPDockingPaneManager.obj
 0001:000454a0       ?OnSettingChange@CXTPDockingPaneManager@@IAEXIPBD@Z 004464a0 f   ToolkitPro1501vc60S:XTPDockingPaneManager.obj
 0001:000454c0       ?UpdatePanes@CXTPDockingPaneManager@@UAEXXZ 004464c0 f   ToolkitPro1501vc60S:XTPDockingPaneManager.obj
 0001:00045520       ?OnInitialUpdate@CXTPDockingPaneManager@@IAEXXZ 00446520 f   ToolkitPro1501vc60S:XTPDockingPaneManager.obj
 0001:000455f0       ?OnIdleUpdateCmdUI@CXTPDockingPaneManager@@IAEJIJ@Z 004465f0 f   ToolkitPro1501vc60S:XTPDockingPaneManager.obj
 0001:00045600       ?SyncPanesState@CXTPDockingPaneManager@@QAEXXZ 00446600 f   ToolkitPro1501vc60S:XTPDockingPaneManager.obj
 0001:00045680       ?OnSizeParent@CXTPDockingPaneManager@@IAEJIJ@Z 00446680 f   ToolkitPro1501vc60S:XTPDockingPaneManager.obj
 0001:000456d0       ??0CRect@@QAE@PBUtagRECT@@@Z 004466d0 f i ToolkitPro1501vc60S:XTPDockingPaneManager.obj
 0001:000456d0       ??0CRect@@QAE@ABUtagRECT@@@Z 004466d0 f i ToolkitPro1501vc60S:XTPDockingPaneManager.obj
 0001:000456f0       ?_Clone@CXTPDockingPaneManager@@AAEPAVCXTPDockingPaneBase@@PAV2@@Z 004466f0 f   ToolkitPro1501vc60S:XTPDockingPaneManager.obj
 0001:00045710       ?NotifyAction@CXTPDockingPaneManager@@QAEHW4XTPDockingPaneAction@@PAVCXTPDockingPane@@PAVCXTPDockingPaneBase@@W4XTPDockingPaneDirection@@@Z 00446710 f   ToolkitPro1501vc60S:XTPDockingPaneManager.obj
 0001:00045770       ?DockSidePane@CXTPDockingPaneManager@@QAEPAVCXTPDockingPaneSidePanel@@PAVCXTPDockingPaneBase@@W4XTPDockingPaneDirection@@VCRect@@@Z 00446770 f   ToolkitPro1501vc60S:XTPDockingPaneManager.obj
 0001:000457f0       ?FloatPane@CXTPDockingPaneManager@@QAEPAVCXTPDockingPaneMiniWnd@@PAVCXTPDockingPaneBase@@VCRect@@@Z 004467f0 f   ToolkitPro1501vc60S:XTPDockingPaneManager.obj
 0001:00045890       ?CreatePane@CXTPDockingPaneManager@@QAEPAVCXTPDockingPane@@IVCRect@@W4XTPDockingPaneDirection@@PAVCXTPDockingPaneBase@@@Z 00446890 f   ToolkitPro1501vc60S:XTPDockingPaneManager.obj
 0001:000459b0       ?OnCreatePane@CXTPDockingPaneManager@@UAEPAVCXTPDockingPaneBase@@W4XTPDockingPaneType@@PAVCXTPDockingPaneLayout@@@Z 004469b0 f   ToolkitPro1501vc60S:XTPDockingPaneManager.obj
 0001:00045c00       ?DockPane@CXTPDockingPaneManager@@QAEXPAVCXTPDockingPaneBase@@W4XTPDockingPaneDirection@@0@Z 00446c00 f   ToolkitPro1501vc60S:XTPDockingPaneManager.obj
 0001:00045d10       ?_RemovePane@CXTPDockingPaneManager@@AAEXPAVCXTPDockingPaneBase@@@Z 00446d10 f   ToolkitPro1501vc60S:XTPDockingPaneManager.obj
 0001:00045d30       ?AttachPane@CXTPDockingPaneManager@@QAEXPAVCXTPDockingPaneBase@@0@Z 00446d30 f   ToolkitPro1501vc60S:XTPDockingPaneManager.obj
 0001:00045d50       ?_AttachPane@CXTPDockingPaneManager@@AAEXPAVCXTPDockingPaneBase@@0@Z 00446d50 f   ToolkitPro1501vc60S:XTPDockingPaneManager.obj
 0001:00045e90       ?_CalculateResultDockingRect@CXTPDockingPaneManager@@AAE?AVCRect@@PAVCXTPDockingPaneBase@@W4XTPDockingPaneDirection@@0@Z 00446e90 f   ToolkitPro1501vc60S:XTPDockingPaneManager.obj
 0001:00045fa0       ?_InsertPane@CXTPDockingPaneManager@@AAEXPAVCXTPDockingPaneBase@@W4XTPDockingPaneDirection@@0@Z 00446fa0 f   ToolkitPro1501vc60S:XTPDockingPaneManager.obj
 0001:000461d0       ?_GetHolder@CXTPDockingPaneManager@@AAEPAVCXTPDockingPaneBase@@PAV2@H@Z 004471d0 f   ToolkitPro1501vc60S:XTPDockingPaneManager.obj
 0001:00046230       ?ToggleDocking@CXTPDockingPaneManager@@QAEXPAVCXTPDockingPaneBase@@@Z 00447230 f   ToolkitPro1501vc60S:XTPDockingPaneManager.obj
 0001:000464a0       ?_ToggleDocking@CXTPDockingPaneManager@@AAEHPAVCXTPDockingPane@@PAVCXTPDockingPaneBase@@@Z 004474a0 f   ToolkitPro1501vc60S:XTPDockingPaneManager.obj
 0001:00046610       ?InstallDockingPanes@CXTPDockingPaneManager@@QAE_NPAVCWnd@@_N@Z 00447610 f   ToolkitPro1501vc60S:XTPDockingPaneManager.obj
 0001:00046770       ?FindPane@CXTPDockingPaneManager@@QBEPAVCXTPDockingPane@@H@Z 00447770 f   ToolkitPro1501vc60S:XTPDockingPaneManager.obj
 0001:000467b0       ?ShowPane@CXTPDockingPaneManager@@QAEXPAVCXTPDockingPane@@H@Z 004477b0 f   ToolkitPro1501vc60S:XTPDockingPaneManager.obj
 0001:00046840       ?NotifyOwner@CXTPDockingPaneManager@@UAEJIJ@Z 00447840 f   ToolkitPro1501vc60S:XTPDockingPaneManager.obj
 0001:00046880       ?ClosePane@CXTPDockingPaneManager@@QAEXPAVCXTPDockingPane@@@Z 00447880 f   ToolkitPro1501vc60S:XTPDockingPaneManager.obj
 0001:000468d0       ?HidePane@CXTPDockingPaneManager@@QAEXPAVCXTPDockingPaneBase@@@Z 004478d0 f   ToolkitPro1501vc60S:XTPDockingPaneManager.obj
 0001:00046930       ?IsPaneClosed@CXTPDockingPaneManager@@QBEHPAVCXTPDockingPane@@@Z 00447930 f   ToolkitPro1501vc60S:XTPDockingPaneManager.obj
 0001:00046950       ?IsPaneHidden@CXTPDockingPaneManager@@QBEHPAVCXTPDockingPane@@@Z 00447950 f   ToolkitPro1501vc60S:XTPDockingPaneManager.obj
 0001:00046980       ?_Redraw@CXTPDockingPaneManager@@AAEXXZ 00447980 f   ToolkitPro1501vc60S:XTPDockingPaneManager.obj
 0001:00046a00       ?SetTheme@CXTPDockingPaneManager@@QAEXW4XTPDockingPanePaintTheme@@@Z 00447a00 f   ToolkitPro1501vc60S:XTPDockingPaneManager.obj
 0001:00046e00       ?CreateLayout@CXTPDockingPaneManager@@UAEPAVCXTPDockingPaneLayout@@XZ 00447e00 f   ToolkitPro1501vc60S:XTPDockingPaneManager.obj
 0001:00046e60       ?GetPaneStack@CXTPDockingPaneManager@@QBEAAV?$CList@PAVCXTPDockingPaneBase@@PAV1@@@XZ 00447e60 f   ToolkitPro1501vc60S:XTPDockingPaneManager.obj
 0001:00046e70       ?GetPaneList@CXTPDockingPaneManager@@QBEAAV?$CList@UXTP_DOCKINGPANE_INFO@@AAU1@@@XZ 00447e70 f   ToolkitPro1501vc60S:XTPDockingPaneManager.obj
 0001:00046e80       ?GetClientPane@CXTPDockingPaneManager@@QBEPAVCXTPDockingPaneBase@@XZ 00447e80 f   ToolkitPro1501vc60S:XTPDockingPaneManager.obj
 0001:00046ea0       ?GetTopPane@CXTPDockingPaneManager@@QBEPAVCXTPDockingPaneBase@@XZ 00447ea0 f   ToolkitPro1501vc60S:XTPDockingPaneManager.obj
 0001:00046ec0       ?GetIcon@CXTPDockingPaneManager@@QBEPAVCXTPImageManagerIcon@@IH@Z 00447ec0 f   ToolkitPro1501vc60S:XTPDockingPaneManager.obj
 0001:00046ee0       ?IsLayoutRTL@CXTPDockingPaneManager@@QBEHXZ 00447ee0 f   ToolkitPro1501vc60S:XTPDockingPaneManager.obj
 0001:00046f00       ?GetRTLDirection@CXTPDockingPaneManager@@QBE?AW4XTPDockingPaneDirection@@W42@@Z 00447f00 f   ToolkitPro1501vc60S:XTPDockingPaneManager.obj
 0001:00046f30       ?GetPaneDirection@CXTPDockingPaneManager@@QBE?AW4XTPDockingPaneDirection@@PBVCXTPDockingPaneBase@@@Z 00447f30 f   ToolkitPro1501vc60S:XTPDockingPaneManager.obj
 0001:00046f50       ?RecalcFramesLayout@CXTPDockingPaneManager@@QAEXXZ 00447f50 f   ToolkitPro1501vc60S:XTPDockingPaneManager.obj
 0001:00046fe0       ?EnsureVisible@CXTPDockingPaneManager@@QAEXPAVCXTPDockingPaneBase@@@Z 00447fe0 f   ToolkitPro1501vc60S:XTPDockingPaneManager.obj
 0001:00047040       ?OnActivatePane@CXTPDockingPaneManager@@UAEXHPAVCXTPDockingPane@@@Z 00448040 f   ToolkitPro1501vc60S:XTPDockingPaneManager.obj
 0001:000470e0       ?RecalcFrameLayout@CXTPDockingPaneManager@@QAEXPAVCXTPDockingPaneBase@@H@Z 004480e0 f   ToolkitPro1501vc60S:XTPDockingPaneManager.obj
 0001:00047210       ?_TrackPopupContextMenu@CXTPDockingPaneManager@@AAEXPAVCXTPDockingPane@@@Z 00448210 f   ToolkitPro1501vc60S:XTPDockingPaneManager.obj
 0001:00047390       ?ActivateNextPane@CXTPDockingPaneManager@@QAEHPAVCXTPDockingPane@@H@Z 00448390 f   ToolkitPro1501vc60S:XTPDockingPaneManager.obj
 0001:00047440       ?OnWndMsg@CXTPDockingPaneManager@@MAEHIIJPAJ@Z 00448440 f   ToolkitPro1501vc60S:XTPDockingPaneManager.obj
 0001:00047520       ?GetAccessible@CXTPDockingPaneManager@@MAEPAVCCmdTarget@@XZ 00448520 f   ToolkitPro1501vc60S:XTPDockingPaneManager.obj
 0001:00047530       ?GetAccessibleParent@CXTPDockingPaneManager@@MAEJPAPAUIDispatch@@@Z 00448530 f   ToolkitPro1501vc60S:XTPDockingPaneManager.obj
 0001:00047570       ?GetAccessibleChildCount@CXTPDockingPaneManager@@MAEJPAJ@Z 00448570 f   ToolkitPro1501vc60S:XTPDockingPaneManager.obj
 0001:00047590       ?GetAccessibleChild@CXTPDockingPaneManager@@MAEJUtagVARIANT@@PAPAUIDispatch@@@Z 00448590 f   ToolkitPro1501vc60S:XTPDockingPaneManager.obj
 0001:000475f0       ?GetAccessibleName@CXTPDockingPaneManager@@MAEJUtagVARIANT@@PAPAG@Z 004485f0 f   ToolkitPro1501vc60S:XTPDockingPaneManager.obj
 0001:00047630       ?GetAccessibleRole@CXTPDockingPaneManager@@MAEJUtagVARIANT@@PAU2@@Z 00448630 f   ToolkitPro1501vc60S:XTPDockingPaneManager.obj
 0001:00047670       ?GetAccessibleState@CXTPDockingPaneManager@@MAEJUtagVARIANT@@PAU2@@Z 00448670 f   ToolkitPro1501vc60S:XTPDockingPaneManager.obj
 0001:000476a0       ?AccessibleLocation@CXTPDockingPaneManager@@MAEJPAJ000UtagVARIANT@@@Z 004486a0 f   ToolkitPro1501vc60S:XTPDockingPaneManager.obj
 0001:000476d0       ?AccessibleHitTest@CXTPDockingPaneManager@@MAEJJJPAUtagVARIANT@@@Z 004486d0 f   ToolkitPro1501vc60S:XTPDockingPaneManager.obj
 0001:000476e0       ?OnGetObject@CXTPDockingPaneManager@@IAEJIJ@Z 004486e0 f   ToolkitPro1501vc60S:XTPDockingPaneManager.obj
 0001:00047730       ?GetInterfaceMap@CXTPDockingPaneManager@@MBEPBUAFX_INTERFACEMAP@@XZ 00448730 f   ToolkitPro1501vc60S:XTPDockingPaneManager.obj
 0001:00047740       ?CreateObject@?$CThreadLocal@VCXTPDockingPaneKeyboardHook@@@@SGPAVCNoTrackObject@@XZ 00448740 f i ToolkitPro1501vc60S:XTPDockingPaneManager.obj
 0001:000477a0       ??1?$CList@PAVCXTPDockingPaneBase@@PAV1@@@UAE@XZ 004487a0 f i ToolkitPro1501vc60S:XTPDockingPaneManager.obj
 0001:00047800       ??_G?$CList@PAVCXTPDockingPaneBase@@PAV1@@@UAEPAXI@Z 00448800 f i ToolkitPro1501vc60S:XTPDockingPaneManager.obj
 0001:00047800       ??_E?$CList@PAVCXTPDockingPaneBase@@PAV1@@@UAEPAXI@Z 00448800 f i ToolkitPro1501vc60S:XTPDockingPaneManager.obj
 0001:00047820       ?ConstructElements@@YGXPAUXTP_DOCKINGPANE_INFO@@H@Z 00448820 f i ToolkitPro1501vc60S:XTPDockingPaneManager.obj
 0001:00047870       ??_ECXTPDockingPaneManager@@WDM@AEPAXI@Z 00448870 f i ToolkitPro1501vc60S:XTPDockingPaneManager.obj
 0001:00047880       ?CreateObject@CXTPFrameWnd@@SGPAVCObject@@XZ 00448880 f   ToolkitPro1501vc60S:XTPFrameWnd.obj
 0001:000478e0       ?GetRuntimeClass@CXTPFrameWnd@@UBEPAUCRuntimeClass@@XZ 004488e0 f   ToolkitPro1501vc60S:XTPFrameWnd.obj
 0001:000478f0       ??0CXTPFrameWnd@@QAE@XZ    004488f0 f   ToolkitPro1501vc60S:XTPFrameWnd.obj
 0001:00047910       ??_ECXTPFrameWnd@@UAEPAXI@Z 00448910 f i ToolkitPro1501vc60S:XTPFrameWnd.obj
 0001:00047910       ??_GCXTPFrameWnd@@UAEPAXI@Z 00448910 f i ToolkitPro1501vc60S:XTPFrameWnd.obj
 0001:00047930       ?CreateObject@CXTPMDIFrameWnd@@SGPAVCObject@@XZ 00448930 f   ToolkitPro1501vc60S:XTPFrameWnd.obj
 0001:00047990       ?GetRuntimeClass@CXTPMDIFrameWnd@@UBEPAUCRuntimeClass@@XZ 00448990 f   ToolkitPro1501vc60S:XTPFrameWnd.obj
 0001:000479a0       ??0CXTPMDIFrameWnd@@QAE@XZ 004489a0 f   ToolkitPro1501vc60S:XTPFrameWnd.obj
 0001:000479c0       ?OnCmdMsg@CXTPMDIFrameWnd@@UAEHIHPAXPAUAFX_CMDHANDLERINFO@@@Z 004489c0 f i ToolkitPro1501vc60S:XTPFrameWnd.obj
 0001:00047a30       ??_GCXTPMDIFrameWnd@@UAEPAXI@Z 00448a30 f i ToolkitPro1501vc60S:XTPFrameWnd.obj
 0001:00047a30       ??_ECXTPMDIFrameWnd@@UAEPAXI@Z 00448a30 f i ToolkitPro1501vc60S:XTPFrameWnd.obj
 0001:00047a50       ??1CXTPMDIFrameWnd@@UAE@XZ 00448a50 f i ToolkitPro1501vc60S:XTPFrameWnd.obj
 0001:00047ac0       ?LoadFrame@?$CXTPFrameWndBase@VCMDIFrameWnd@@@@UAEHIKPAVCWnd@@PAUCCreateContext@@@Z 00448ac0 f i ToolkitPro1501vc60S:XTPFrameWnd.obj
 0001:00047b10       ?OnSetPreviewMode@?$CXTPFrameWndBase@VCMDIFrameWnd@@@@UAEXHPAUCPrintPreviewState@@@Z 00448b10 f i ToolkitPro1501vc60S:XTPFrameWnd.obj
 0001:00047b40       ?InitCommandBars@?$CXTPCommandBarsSiteBase@VCMDIFrameWnd@@@@UAEHPAUCRuntimeClass@@@Z 00448b40 f i ToolkitPro1501vc60S:XTPFrameWnd.obj
 0001:00047b90       ?SaveCommandBars@?$CXTPCommandBarsSiteBase@VCMDIFrameWnd@@@@UAEXPBD@Z 00448b90 f i ToolkitPro1501vc60S:XTPFrameWnd.obj
 0001:00047bd0       ?LoadCommandBars@?$CXTPCommandBarsSiteBase@VCMDIFrameWnd@@@@UAEXPBDH@Z 00448bd0 f i ToolkitPro1501vc60S:XTPFrameWnd.obj
 0001:00047c20       ?PreTranslateMessage@?$CXTPCommandBarsSiteBase@VCMDIFrameWnd@@@@MAEHPAUtagMSG@@@Z 00448c20 f i ToolkitPro1501vc60S:XTPFrameWnd.obj
 0001:00047cb0       ?OnWndMsg@?$CXTPCommandBarsSiteBase@VCMDIFrameWnd@@@@MAEHIIJPAJ@Z 00448cb0 f i ToolkitPro1501vc60S:XTPFrameWnd.obj
 0001:00047d00       ??_E?$CXTPCommandBarsSiteBase@VCMDIFrameWnd@@@@UAEPAXI@Z 00448d00 f i ToolkitPro1501vc60S:XTPFrameWnd.obj
 0001:00047d00       ??_G?$CXTPCommandBarsSiteBase@VCMDIFrameWnd@@@@UAEPAXI@Z 00448d00 f i ToolkitPro1501vc60S:XTPFrameWnd.obj
 0001:00047d20       ??1?$CXTPCommandBarsSiteBase@VCMDIFrameWnd@@@@UAE@XZ 00448d20 f i ToolkitPro1501vc60S:XTPFrameWnd.obj
 0001:00047d90       ??1CMDIFrameWnd@@UAE@XZ    00448d90 f i ToolkitPro1501vc60S:XTPFrameWnd.obj
 0001:00047da0       ??0CXTPDockingPane@@IAE@PAVCXTPDockingPaneLayout@@@Z 00448da0 f   ToolkitPro1501vc60S:XTPDockingPane.obj
 0001:00047e90       ?SetDockingSite@CXTPDockingPaneBase@@MAEXPAVCWnd@@@Z 00448e90 f i ToolkitPro1501vc60S:XTPDockingPane.obj
 0001:00047ea0       ?IsCaptionButtonVisible@CXTPDockingPaneBase@@MAEHPAVCXTPDockingPaneCaptionButton@@@Z 00448ea0 f i ToolkitPro1501vc60S:XTPDockingPane.obj
 0001:00047ea0       ?Lock@CEmptySyncObject@CXTPNotifyConnection@@UAEHK@Z 00448ea0 f i ToolkitPro1501vc60S:XTPDockingPane.obj
 0001:00047eb0       ??_ECXTPDockingPane@@MAEPAXI@Z 00448eb0 f i ToolkitPro1501vc60S:XTPDockingPane.obj
 0001:00047eb0       ??_GCXTPDockingPane@@MAEPAXI@Z 00448eb0 f i ToolkitPro1501vc60S:XTPDockingPane.obj
 0001:00047ed0       ??1CXTPDockingPane@@MAE@XZ 00448ed0 f   ToolkitPro1501vc60S:XTPDockingPane.obj
 0001:00047f80       ?SetID@CXTPDockingPane@@IAEXH@Z 00448f80 f   ToolkitPro1501vc60S:XTPDockingPane.obj
 0001:00047ff0       ?SetWindowRect@CXTPDockingPane@@IAEXVCRect@@@Z 00448ff0 f   ToolkitPro1501vc60S:XTPDockingPane.obj
 0001:00048030       ?GetEnabled@CXTPDockingPane@@QBE?AW4XTPDockingPaneEnableOptions@@XZ 00449030 f   ToolkitPro1501vc60S:XTPDockingPane.obj
 0001:00048050       ?OnSizeParent@CXTPDockingPane@@MAEXPAVCWnd@@VCRect@@PAX@Z 00449050 f   ToolkitPro1501vc60S:XTPDockingPane.obj
 0001:00048120       ?SetFocus@CXTPDockingPane@@UAEXXZ 00449120 f   ToolkitPro1501vc60S:XTPDockingPane.obj
 0001:00048150       ?IsFocus@CXTPDockingPane@@QBEHXZ 00449150 f   ToolkitPro1501vc60S:XTPDockingPane.obj
 0001:00048180       ?SetParentContainer@CXTPDockingPane@@MAEXPAVCXTPDockingPaneBase@@@Z 00449180 f   ToolkitPro1501vc60S:XTPDockingPane.obj
 0001:000481e0       ?ShowWindow@CXTPDockingPane@@IAEXH@Z 004491e0 f   ToolkitPro1501vc60S:XTPDockingPane.obj
 0001:00048220       ?Close@CXTPDockingPane@@QAEXXZ 00449220 f   ToolkitPro1501vc60S:XTPDockingPane.obj
 0001:00048240       ?Hide@CXTPDockingPane@@QAEXXZ 00449240 f   ToolkitPro1501vc60S:XTPDockingPane.obj
 0001:00048270       ?Select@CXTPDockingPane@@QAEXXZ 00449270 f   ToolkitPro1501vc60S:XTPDockingPane.obj
 0001:00048290       ?GetDockingSite@CXTPDockingPane@@UBEPAVCWnd@@XZ 00449290 f   ToolkitPro1501vc60S:XTPDockingPane.obj
 0001:000482a0       ?Copy@CXTPDockingPane@@EAEXPAVCXTPDockingPaneBase@@PAV?$CMap@PAVCXTPDockingPaneBase@@PAV1@PAV1@PAV1@@@K@Z 004492a0 f   ToolkitPro1501vc60S:XTPDockingPane.obj
 0001:000482d0       ?Copy@CXTPDockingPane@@MAEXPAV1@@Z 004492d0 f   ToolkitPro1501vc60S:XTPDockingPane.obj
 0001:00048380       ?IsValid@CXTPDockingPane@@QBEHXZ 00449380 f   ToolkitPro1501vc60S:XTPDockingPane.obj
 0001:00048390       ?Attach@CXTPDockingPane@@QAEXPAVCWnd@@@Z 00449390 f   ToolkitPro1501vc60S:XTPDockingPane.obj
 0001:00048410       ?GetTitle@CXTPDockingPane@@UBE?AVCString@@XZ 00449410 f   ToolkitPro1501vc60S:XTPDockingPane.obj
 0001:00048430       ?GetCaption@CXTPPropertyPage@@QBE?AVCString@@XZ 00449430 f   ToolkitPro1501vc60S:XTPDockingPane.obj
 0001:00048430       ?GetTitleToolTip@CXTPDockingPane@@UBE?AVCString@@XZ 00449430 f   ToolkitPro1501vc60S:XTPDockingPane.obj
 0001:00048460       ?GetTabCaption@CXTPDockingPane@@UBE?AVCString@@XZ 00449460 f   ToolkitPro1501vc60S:XTPDockingPane.obj
 0001:000484b0       ?SetTitle@CXTPDockingPane@@QAEXPBD@Z 004494b0 f   ToolkitPro1501vc60S:XTPDockingPane.obj
 0001:00048570       ?IsHidden@CXTPDockingPane@@UBEHXZ 00449570 f   ToolkitPro1501vc60S:XTPDockingPane.obj
 0001:00048580       ?IsSelected@CXTPDockingPane@@QBEHXZ 00449580 f   ToolkitPro1501vc60S:XTPDockingPane.obj
 0001:000485a0       ?IsFloating@CXTPDockingPane@@QBEHXZ 004495a0 f   ToolkitPro1501vc60S:XTPDockingPane.obj
 0001:000485f0       ?GetIcon@CXTPDockingPane@@UBEPAVCXTPImageManagerIcon@@H@Z 004495f0 f   ToolkitPro1501vc60S:XTPDockingPane.obj
 0001:00048620       ?GetItemColor@CXTPDockingPane@@UBEKXZ 00449620 f   ToolkitPro1501vc60S:XTPDockingPane.obj
 0001:00048660       ?GetMinMaxInfo@CXTPDockingPane@@UBEXPAUtagMINMAXINFO@@@Z 00449660 f   ToolkitPro1501vc60S:XTPDockingPane.obj
 0001:000486a0       ?GetOptions@CXTPDockingPane@@QBEKXZ 004496a0 f   ToolkitPro1501vc60S:XTPDockingPane.obj
 0001:000486c0       ?DeletePane@CXTPDockingPane@@MAEXXZ 004496c0 f   ToolkitPro1501vc60S:XTPDockingPane.obj
 0001:000486c0       ?DeletePane@CXTPDockingPaneClientContainer@@MAEXXZ 004496c0 f   ToolkitPro1501vc60S:XTPDockingPane.obj
 0001:000486c0       ?DeletePane@CXTPDockingPaneSplitterContainer@@MAEXXZ 004496c0 f   ToolkitPro1501vc60S:XTPDockingPane.obj
 0001:000486d0       ?GetAccessible@CXTPDockingPane@@MAEPAVCCmdTarget@@XZ 004496d0 f   ToolkitPro1501vc60S:XTPDockingPane.obj
 0001:000486e0       ?GetAccessibleParent@CXTPDockingPane@@MAEJPAPAUIDispatch@@@Z 004496e0 f   ToolkitPro1501vc60S:XTPDockingPane.obj
 0001:00048710       ?GetAccessibleChildCount@CXTPDockingPane@@MAEJPAJ@Z 00449710 f   ToolkitPro1501vc60S:XTPDockingPane.obj
 0001:00048740       ?GetAccessibleChild@CXTPDockingPane@@MAEJUtagVARIANT@@PAPAUIDispatch@@@Z 00449740 f   ToolkitPro1501vc60S:XTPDockingPane.obj
 0001:00048780       ?GetAccessibleName@CXTPDockingPane@@MAEJUtagVARIANT@@PAPAG@Z 00449780 f   ToolkitPro1501vc60S:XTPDockingPane.obj
 0001:00048810       ?GetAccessibleDescription@CXTPDockingPane@@MAEJUtagVARIANT@@PAPAG@Z 00449810 f   ToolkitPro1501vc60S:XTPDockingPane.obj
 0001:000488a0       ?GetAccessibleRole@CXTPDockingPane@@MAEJUtagVARIANT@@PAU2@@Z 004498a0 f   ToolkitPro1501vc60S:XTPDockingPane.obj
 0001:000488e0       ?AccessibleSelect@CXTPDockingPane@@MAEJJUtagVARIANT@@@Z 004498e0 f   ToolkitPro1501vc60S:XTPDockingPane.obj
 0001:00048910       ?GetAccessibleState@CXTPDockingPane@@MAEJUtagVARIANT@@PAU2@@Z 00449910 f   ToolkitPro1501vc60S:XTPDockingPane.obj
 0001:00048970       ?GetAccessibleDefaultAction@CXTPDockingPane@@MAEJUtagVARIANT@@PAPAG@Z 00449970 f   ToolkitPro1501vc60S:XTPDockingPane.obj
 0001:000489a0       ?AccessibleDoDefaultAction@CXTPDockingPane@@MAEJUtagVARIANT@@@Z 004499a0 f   ToolkitPro1501vc60S:XTPDockingPane.obj
 0001:000489d0       ?AccessibleLocation@CXTPDockingPane@@MAEJPAJ000UtagVARIANT@@@Z 004499d0 f   ToolkitPro1501vc60S:XTPDockingPane.obj
 0001:00048af0       ?AccessibleHitTest@CXTPDockingPane@@MAEJJJPAUtagVARIANT@@@Z 00449af0 f   ToolkitPro1501vc60S:XTPDockingPane.obj
 0001:00048b10       ?GetInterfaceMap@CXTPDockingPane@@MBEPBUAFX_INTERFACEMAP@@XZ 00449b10 f   ToolkitPro1501vc60S:XTPDockingPane.obj
 0001:00048b20       ??_ECXTPDockingPane@@OBM@AEPAXI@Z 00449b20 f i ToolkitPro1501vc60S:XTPDockingPane.obj
 0001:00048b30       ??_ECXTPDockingPane@@OFE@AEPAXI@Z 00449b30 f i ToolkitPro1501vc60S:XTPDockingPane.obj
 0001:00048b80       ??0CLogFont@CXTPPaintManager@@QAE@XZ 00449b80 f   ToolkitPro1501vc60S:XTPPaintManager.obj
 0001:00048ba0       ?GetRuntimeClass@CXTPPaintManager@@UBEPAUCRuntimeClass@@XZ 00449ba0 f   ToolkitPro1501vc60S:XTPPaintManager.obj
 0001:00048bb0       ??0CXTPPaintManager@@IAE@XZ 00449bb0 f   ToolkitPro1501vc60S:XTPPaintManager.obj
 0001:00048ed0       ??_GCXTPPaintManagerFont@@UAEPAXI@Z 00449ed0 f i ToolkitPro1501vc60S:XTPPaintManager.obj
 0001:00048ed0       ??_ECXTPPaintManagerFont@@UAEPAXI@Z 00449ed0 f i ToolkitPro1501vc60S:XTPPaintManager.obj
 0001:00048ef0       ??1CXTPPaintManagerFont@@UAE@XZ 00449ef0 f i ToolkitPro1501vc60S:XTPPaintManager.obj
 0001:00048f30       ?GetGalleryPaintManager@CXTPPaintManager@@UBEPAVCXTPControlGalleryPaintManager@@XZ 00449f30 f i ToolkitPro1501vc60S:XTPPaintManager.obj
 0001:00048f40       ?GetSliderPaintManager@CXTPPaintManager@@UBEPAVCXTPSliderPaintManager@@XZ 00449f40 f i ToolkitPro1501vc60S:XTPPaintManager.obj
 0001:00048f50       ?GetProgressPaintManager@CXTPPaintManager@@UBEPAVCXTPProgressPaintManager@@XZ 00449f50 f i ToolkitPro1501vc60S:XTPPaintManager.obj
 0001:00048f60       ??_ECXTPPaintManager@@MAEPAXI@Z 00449f60 f i ToolkitPro1501vc60S:XTPPaintManager.obj
 0001:00048f60       ??_GCXTPPaintManager@@MAEPAXI@Z 00449f60 f i ToolkitPro1501vc60S:XTPPaintManager.obj
 0001:00048f80       ?GetCurrentSystemTheme@CXTPPaintManager@@QAE?AW4XTPCurrentSystemTheme@@XZ 00449f80 f   ToolkitPro1501vc60S:XTPPaintManager.obj
 0001:00048fc0       ?GetXtremeColor@CXTPPaintManager@@QAEKI@Z 00449fc0 f   ToolkitPro1501vc60S:XTPPaintManager.obj
 0001:00048ff0       ?SetColors@CXTPPaintManager@@QAEXHPBHPBK@Z 00449ff0 f   ToolkitPro1501vc60S:XTPPaintManager.obj
 0001:00049020       ??1CXTPPaintManager@@MAE@XZ 0044a020 f   ToolkitPro1501vc60S:XTPPaintManager.obj
 0001:000491f0       ?GetIconsInfo@CXTPPaintManager@@QAEPAUXTP_COMMANDBARS_ICONSINFO@@XZ 0044a1f0 f   ToolkitPro1501vc60S:XTPPaintManager.obj
 0001:00049200       ?UpdateColors@CXTPPaintManager@@UAEXXZ 0044a200 f   ToolkitPro1501vc60S:XTPPaintManager.obj
 0001:00049230       ?RefreshMetrics@CXTPPaintManager@@UAEXXZ 0044a230 f   ToolkitPro1501vc60S:XTPPaintManager.obj
 0001:00049360       ?GetFramePaintManager@CXTPPaintManager@@UAEPAVCXTPFramePaintManager@@XZ 0044a360 f   ToolkitPro1501vc60S:XTPPaintManager.obj
 0001:000493e0       ?GetRibbonPaintManager@CXTPPaintManager@@UAEPAVCXTPRibbonPaintManager@@XZ 0044a3e0 f   ToolkitPro1501vc60S:XTPPaintManager.obj
 0001:00049460       ?GetControlHeight@CXTPPaintManager@@QBEHXZ 0044a460 f   ToolkitPro1501vc60S:XTPPaintManager.obj
 0001:00049480       ?CreateTheme@CXTPPaintManager@@SAPAV1@W4XTPPaintTheme@@@Z 0044a480 f   ToolkitPro1501vc60S:XTPPaintManager.obj
 0001:00049690       ??1CXTPDefaultTheme@@UAE@XZ 0044a690 f i ToolkitPro1501vc60S:XTPPaintManager.obj
 0001:00049690       ??1CXTPOfficeTheme@@UAE@XZ 0044a690 f i ToolkitPro1501vc60S:XTPPaintManager.obj
 0001:00049690       ??1CXTPVisualStudio6Theme@@UAE@XZ 0044a690 f i ToolkitPro1501vc60S:XTPPaintManager.obj
 0001:000496a0       ?SetTheme@CXTPPaintManager@@SAXW4XTPPaintTheme@@@Z 0044a6a0 f   ToolkitPro1501vc60S:XTPPaintManager.obj
 0001:000496d0       ?SetCustomTheme@CXTPPaintManager@@SAXPAV1@@Z 0044a6d0 f   ToolkitPro1501vc60S:XTPPaintManager.obj
 0001:00049700       ?Done@CXTPPaintManager@@SAXXZ 0044a700 f   ToolkitPro1501vc60S:XTPPaintManager.obj
 0001:00049720       ?Triangle@CXTPPaintManager@@SAXPAVCDC@@VCPoint@@11K@Z 0044a720 f   ToolkitPro1501vc60S:XTPPaintManager.obj
 0001:000497f0       ?Rectangle@CXTPPaintManager@@QAEXPAVCDC@@VCRect@@HH@Z 0044a7f0 f   ToolkitPro1501vc60S:XTPPaintManager.obj
 0001:00049850       ?Draw3dRect@CXTPPaintManager@@QAEXPAVCDC@@VCRect@@HH@Z 0044a850 f   ToolkitPro1501vc60S:XTPPaintManager.obj
 0001:00049880       ?_DrawCheckMark@CXTPPaintManager@@IAEXPAVCDC@@VCRect@@KH@Z 0044a880 f   ToolkitPro1501vc60S:XTPPaintManager.obj
 0001:000499e0       ?AlphaEllipse@CXTPPaintManager@@QAEXPAVCDC@@VCRect@@KK@Z 0044a9e0 f   ToolkitPro1501vc60S:XTPPaintManager.obj
 0001:00049c20       ?DrawPopupBarRadioMark@CXTPPaintManager@@UAEXPAVCDC@@VCRect@@HK@Z 0044ac20 f   ToolkitPro1501vc60S:XTPPaintManager.obj
 0001:00049c80       ?DrawPopupBarCheckMark@CXTPPaintManager@@UAEXPAVCDC@@VCRect@@HK@Z 0044ac80 f   ToolkitPro1501vc60S:XTPPaintManager.obj
 0001:00049d10       ?DrawComboExpandMark@CXTPPaintManager@@UAEXPAVCDC@@VCRect@@K@Z 0044ad10 f   ToolkitPro1501vc60S:XTPPaintManager.obj
 0001:00049d90       ?HorizontalLine@CXTPPaintManager@@QAEXPAVCDC@@HHHK@Z 0044ad90 f   ToolkitPro1501vc60S:XTPPaintManager.obj
 0001:00049dc0       ?VerticalLine@CXTPPaintManager@@QAEXPAVCDC@@HHHK@Z 0044adc0 f   ToolkitPro1501vc60S:XTPPaintManager.obj
 0001:00049df0       ?Line@CXTPPaintManager@@QAEXPAVCDC@@VCPoint@@1@Z 0044adf0 f   ToolkitPro1501vc60S:XTPPaintManager.obj
 0001:00049e20       ?Line@CXTPPaintManager@@QAEXPAVCDC@@HHHHH@Z 0044ae20 f   ToolkitPro1501vc60S:XTPPaintManager.obj
 0001:00049ec0       ?StripMnemonics@CXTPPaintManager@@SAXAAVCString@@@Z 0044aec0 f   ToolkitPro1501vc60S:XTPPaintManager.obj
 0001:00049ed0       ?SplitString@CXTPPaintManager@@IAEXABVCString@@AAV2@1@Z 0044aed0 f   ToolkitPro1501vc60S:XTPPaintManager.obj
 0001:0004a020       ?DrawTextApi@CXTPPaintManager@@SAXPAVCDC@@ABVCString@@PAUtagRECT@@IH@Z 0044b020 f   ToolkitPro1501vc60S:XTPPaintManager.obj
 0001:0004a280       ?DrawControlText3@CXTPPaintManager@@IAEXPAVCDC@@PAVCXTPControl@@ABVCString@@2VCRect@@HH@Z 0044b280 f   ToolkitPro1501vc60S:XTPPaintManager.obj
 0001:0004a4c0       ?DrawDropDownGlyph@CXTPPaintManager@@UAEXPAVCDC@@PAVCXTPControl@@VCPoint@@HHHH@Z 0044b4c0 f   ToolkitPro1501vc60S:XTPPaintManager.obj
 0001:0004a540       ?DrawControlText2@CXTPPaintManager@@QAE?AVCSize@@PAVCDC@@PAVCXTPControl@@VCRect@@HHH@Z 0044b540 f   ToolkitPro1501vc60S:XTPPaintManager.obj
 0001:0004aa90       ?DrawControlText@CXTPPaintManager@@QAE?AVCSize@@PAVCDC@@PAVCXTPControl@@VCRect@@HHHH@Z 0044ba90 f   ToolkitPro1501vc60S:XTPPaintManager.obj
 0001:0004ae00       ?FontExists@CXTPPaintManager@@SAHPBD@Z 0044be00 f   ToolkitPro1501vc60S:XTPPaintManager.obj
 0001:0004ae10       ?SetCommandBarsFontIndirect@CXTPPaintManager@@QAEXPAUtagLOGFONTA@@H@Z 0044be10 f   ToolkitPro1501vc60S:XTPPaintManager.obj
 0001:0004b030       ?UpdateFonts@CXTPPaintManager@@UAEXXZ 0044c030 f   ToolkitPro1501vc60S:XTPPaintManager.obj
 0001:0004b280       ?DrawControlEntry@CXTPPaintManager@@UAEXPAVCDC@@PAVCXTPControl@@@Z 0044c280 f   ToolkitPro1501vc60S:XTPPaintManager.obj
 0001:0004b360       ?GetControlTextColor@CXTPPaintManager@@UAEKPAVCXTPControl@@@Z 0044c360 f   ToolkitPro1501vc60S:XTPPaintManager.obj
 0001:0004b460       ?GetPopupBarGripperWidth@CXTPPaintManager@@UAEHPAVCXTPCommandBar@@@Z 0044c460 f   ToolkitPro1501vc60S:XTPPaintManager.obj
 0001:0004b4d0       ?GetControlEditBackColor@CXTPPaintManager@@UAEKPAVCXTPControl@@@Z 0044c4d0 f   ToolkitPro1501vc60S:XTPPaintManager.obj
 0001:0004b500       ?DrawControlEdit@CXTPPaintManager@@UAE?AVCSize@@PAVCDC@@PAVCXTPControlEdit@@H@Z 0044c500 f   ToolkitPro1501vc60S:XTPPaintManager.obj
 0001:0004b980       ?DrawControlComboBox@CXTPPaintManager@@UAE?AVCSize@@PAVCDC@@PAVCXTPControlComboBox@@H@Z 0044c980 f   ToolkitPro1501vc60S:XTPPaintManager.obj
 0001:0004be70       ?DrawControl@CXTPPaintManager@@QAE?AVCSize@@PAVCDC@@PAVCXTPControl@@H@Z 0044ce70 f   ToolkitPro1501vc60S:XTPPaintManager.obj
 0001:0004bf20       ?FillDockBar@CXTPPaintManager@@UAEXPAVCDC@@PAVCXTPDockBar@@@Z 0044cf20 f   ToolkitPro1501vc60S:XTPPaintManager.obj
 0001:0004bf60       ?FillMessageBar@CXTPPaintManager@@UAEXPAVCDC@@PAVCXTPMessageBar@@@Z 0044cf60 f   ToolkitPro1501vc60S:XTPPaintManager.obj
 0001:0004c010       ?DrawMessageBarButton@CXTPPaintManager@@UAEXPAVCDC@@PAVCXTPMessageBarButton@@@Z 0044d010 f   ToolkitPro1501vc60S:XTPPaintManager.obj
 0001:0004c260       ?FillStatusBar@CXTPPaintManager@@UAEXPAVCDC@@PAVCXTPStatusBar@@@Z 0044d260 f   ToolkitPro1501vc60S:XTPPaintManager.obj
 0001:0004c2e0       ?GetControlTextOrientation@CXTPPaintManager@@UAE?AW4XTPBarTextOrientation@@PAVCXTPControl@@@Z 0044d2e0 f   ToolkitPro1501vc60S:XTPPaintManager.obj
 0001:0004c320       ?GetControlFont@CXTPPaintManager@@UAEPAVCFont@@PAVCXTPControl@@@Z 0044d320 f   ToolkitPro1501vc60S:XTPPaintManager.obj
 0001:0004c380       ?GetCommandBarFont@CXTPPaintManager@@UAEPAVCFont@@PAVCXTPCommandBar@@@Z 0044d380 f   ToolkitPro1501vc60S:XTPPaintManager.obj
 0001:0004c3c0       ?DrawSpecialControl@CXTPPaintManager@@UAE?AVCSize@@PAVCDC@@W4XTPSpecialControl@@PAVCXTPControl@@PAVCXTPCommandBar@@HPAX@Z 0044d3c0 f   ToolkitPro1501vc60S:XTPPaintManager.obj
 0001:0004ca60       ?DrawControlText@CXTPPaintManager@@IAE?AVCSize@@PAVCDC@@PAVCXTPControl@@VCRect@@HHV2@H@Z 0044da60 f   ToolkitPro1501vc60S:XTPPaintManager.obj
 0001:0004cc30       ?GetSplitButtonCommandRect@CXTPPaintManager@@UAE?AVCRect@@PAVCXTPControl@@@Z 0044dc30 f   ToolkitPro1501vc60S:XTPPaintManager.obj
 0001:0004cd30       ?DrawControlCheckBoxMark@CXTPPaintManager@@UAE?AVCSize@@PAVCDC@@VCRect@@HHHHH@Z 0044dd30 f   ToolkitPro1501vc60S:XTPPaintManager.obj
 0001:0004ce10       ?DrawControlRadioButtonMark@CXTPPaintManager@@UAE?AVCSize@@PAVCDC@@VCRect@@HHHHH@Z 0044de10 f   ToolkitPro1501vc60S:XTPPaintManager.obj
 0001:0004cf00       ?GetControlSize@CXTPPaintManager@@IAE?AVCSize@@PAVCXTPControl@@V2@H@Z 0044df00 f   ToolkitPro1501vc60S:XTPPaintManager.obj
 0001:0004cf80       ?GetPopupBarImageSize@CXTPPaintManager@@MAE?AVCSize@@PAVCXTPCommandBar@@@Z 0044df80 f   ToolkitPro1501vc60S:XTPPaintManager.obj
 0001:0004cfd0       ?DrawPopupBarText@CXTPPaintManager@@MAEXPAVCDC@@ABVCString@@AAVCRect@@IHHH@Z 0044dfd0 f   ToolkitPro1501vc60S:XTPPaintManager.obj
 0001:0004d0e0       ?DrawControlPopupParent@CXTPPaintManager@@UAE?AVCSize@@PAVCDC@@PAVCXTPControl@@H@Z 0044e0e0 f   ToolkitPro1501vc60S:XTPPaintManager.obj
 0001:0004d780       ?GetShortcutText@CXTPControl@@QBE?AVCString@@XZ 0044e780 f i ToolkitPro1501vc60S:XTPPaintManager.obj
 0001:0004d860       ?GetURL@CXTPHyperLink@@UBE?AVCString@@XZ 0044e860 f i ToolkitPro1501vc60S:XTPPaintManager.obj
 0001:0004d860       ?GetShortcutText@CXTPControlAction@@QBE?AVCString@@XZ 0044e860 f i ToolkitPro1501vc60S:XTPPaintManager.obj
 0001:0004d880       ?GetIconSize@CXTPPaintManager@@IAE?AVCSize@@PAVCXTPControl@@@Z 0044e880 f   ToolkitPro1501vc60S:XTPPaintManager.obj
 0001:0004d8e0       ?GetSplitDropDownHeight@CXTPPaintManager@@QBEHXZ 0044e8e0 f   ToolkitPro1501vc60S:XTPPaintManager.obj
 0001:0004d910       ?GetStretchIconSize@CXTPPaintManager@@IAE?AVCSize@@PAVCXTPImageManagerIcon@@V2@@Z 0044e910 f   ToolkitPro1501vc60S:XTPPaintManager.obj
 0001:0004d9a0       ?DrawControlToolBarParent@CXTPPaintManager@@UAE?AVCSize@@PAVCDC@@PAVCXTPControl@@H@Z 0044e9a0 f   ToolkitPro1501vc60S:XTPPaintManager.obj
 0001:0004e8b0       ?GetCommandBarBorders@CXTPPaintManager@@UAE?AVCRect@@PAVCXTPCommandBar@@@Z 0044f8b0 f   ToolkitPro1501vc60S:XTPPaintManager.obj
 0001:0004e8e0       ?GradientFill@CXTPPaintManager@@QAEXPAVCDC@@PAUtagRECT@@KKHPBU3@@Z 0044f8e0 f   ToolkitPro1501vc60S:XTPPaintManager.obj
 0001:0004e910       ?DrawStatusBarGripper@CXTPPaintManager@@UAEXPAVCDC@@VCRect@@@Z 0044f910 f   ToolkitPro1501vc60S:XTPPaintManager.obj
 0001:0004eb10       ?AnimateExpanding@CXTPPaintManager@@UAEXPAVCXTPCommandBar@@PAVCDC@@1H@Z 0044fb10 f   ToolkitPro1501vc60S:XTPPaintManager.obj
 0001:0004ee70       ?AlphaBlendU@CXTPPaintManager@@IAEXPAE0HH0E@Z 0044fe70 f   ToolkitPro1501vc60S:XTPPaintManager.obj
 0001:0004ef20       ?Animate@CXTPPaintManager@@UAEXPAVCDC@@0VCRect@@W4XTPAnimationType@@@Z 0044ff20 f   ToolkitPro1501vc60S:XTPPaintManager.obj
 0001:0004f390       ?DrawStatusBarButtonFace@CXTPPaintManager@@UAEXPAVCDC@@VCRect@@PAVCXTPStatusBarPane@@@Z 00450390 f   ToolkitPro1501vc60S:XTPPaintManager.obj
 0001:0004f420       ?DrawStatusBarPaneBorder@CXTPPaintManager@@UAEXPAVCDC@@VCRect@@PAVCXTPStatusBarPane@@H@Z 00450420 f   ToolkitPro1501vc60S:XTPPaintManager.obj
 0001:0004f4b0       ?DrawStatusBarPaneSeparator@CXTPPaintManager@@UAEXPAVCDC@@VCRect@@PAVCXTPStatusBarPane@@@Z 004504b0 f   ToolkitPro1501vc60S:XTPPaintManager.obj
 0001:0004f4f0       ?DrawStatusBarPaneEntry@CXTPPaintManager@@UAEXPAVCDC@@VCRect@@PAVCXTPStatusBarPane@@@Z 004504f0 f   ToolkitPro1501vc60S:XTPPaintManager.obj
 0001:0004f8e0       ?DrawStatusBarSwitchPane@CXTPPaintManager@@UAEHPAVCDC@@VCRect@@PAVCXTPStatusBarSwitchPane@@@Z 004508e0 f   ToolkitPro1501vc60S:XTPPaintManager.obj
 0001:0004faa0       ?DrawCommandBarGripper@CXTPPaintManager@@UAE?AVCSize@@PAVCDC@@PAVCXTPCommandBar@@H@Z 00450aa0 f   ToolkitPro1501vc60S:XTPPaintManager.obj
 0001:0004fc70       ?IsFlatToolBar@CXTPPaintManager@@MAEHPAVCXTPCommandBar@@@Z 00450c70 f   ToolkitPro1501vc60S:XTPPaintManager.obj
 0001:0004fc90       ?OnDrawItem@CXTPControlSelector@@MAEXPAVCDC@@VCRect@@K@Z 00450c90 f   ToolkitPro1501vc60S:XTPPaintManager.obj
 0001:0004fc90       ?Arrange@CXTPMarkupInline@@UAEXVCRect@@PAU__POSITION@@1@Z 00450c90 f   ToolkitPro1501vc60S:XTPPaintManager.obj
 0001:0004fc90       ?DrawPopupBarGripper@CXTPPaintManager@@UAEXPAVCDC@@HHHHH@Z 00450c90 f   ToolkitPro1501vc60S:XTPPaintManager.obj
 0001:0004fca0       ?FillWorkspace@CXTPPaintManager@@UAEXPAVCDC@@VCRect@@1@Z 00450ca0 f   ToolkitPro1501vc60S:XTPPaintManager.obj
 0001:0004fcc0       ?FillCompositeAlpha@CXTPPaintManager@@SAXPAVCDC@@VCRect@@@Z 00450cc0 f   ToolkitPro1501vc60S:XTPPaintManager.obj
 0001:0004fdf0       ?DrawKeyboardTip@CXTPPaintManager@@UAEXPAVCDC@@PAVCXTPCommandBarKeyboardTip@@H@Z 00450df0 f   ToolkitPro1501vc60S:XTPPaintManager.obj
 0001:0004fee0       ?GetAutoIconSize@CXTPPaintManager@@QBE?AVCSize@@H@Z 00450ee0 f   ToolkitPro1501vc60S:XTPPaintManager.obj
 0001:0004ff80       ?DrawControlMDIButton@CXTPPaintManager@@UAEXPAVCDC@@PAVCXTPControlButton@@@Z 00450f80 f   ToolkitPro1501vc60S:XTPPaintManager.obj
 0001:000500a0       ??0CXTPPaintManagerColor@@QAE@XZ 004510a0 f   ToolkitPro1501vc60S:XTPColorManager.obj
 0001:000500c0       ??0CXTPPaintManagerColor@@QAE@K@Z 004510c0 f   ToolkitPro1501vc60S:XTPColorManager.obj
 0001:000500e0       ?Serialize@CXTPPaintManagerColor@@UAEXAAVCArchive@@@Z 004510e0 f   ToolkitPro1501vc60S:XTPColorManager.obj
 0001:000501a0       ??0CXTPPaintManagerColorGradient@@QAE@XZ 004511a0 f   ToolkitPro1501vc60S:XTPColorManager.obj
 0001:000501d0       ??0CXTPPaintManagerColorGradient@@QAE@K@Z 004511d0 f   ToolkitPro1501vc60S:XTPColorManager.obj
 0001:00050210       ?SetStandardValue@CXTPPaintManagerColorGradient@@QAEXK@Z 00451210 f   ToolkitPro1501vc60S:XTPColorManager.obj
 0001:00050230       ?SetStandardValue@CXTPPaintManagerColorGradient@@QAEXKKM@Z 00451230 f   ToolkitPro1501vc60S:XTPColorManager.obj
 0001:00050250       ?SetStandardValue@CXTPPaintManagerColorGradient@@QAEXAAV1@@Z 00451250 f   ToolkitPro1501vc60S:XTPColorManager.obj
 0001:00050280       ?Serialize@CXTPPaintManagerColorGradient@@UAEXAAVCArchive@@@Z 00451280 f   ToolkitPro1501vc60S:XTPColorManager.obj
 0001:00050310       ??0CXTPColorManager@@AAE@XZ 00451310 f   ToolkitPro1501vc60S:XTPColorManager.obj
 0001:00050460       ??_GCXTPColorManager@@UAEPAXI@Z 00451460 f i ToolkitPro1501vc60S:XTPColorManager.obj
 0001:00050460       ??_GCXTPControlTheme@@UAEPAXI@Z 00451460 f i ToolkitPro1501vc60S:XTPColorManager.obj
 0001:00050460       ??_ECXTPShortcutManagerAccel@@UAEPAXI@Z 00451460 f i ToolkitPro1501vc60S:XTPColorManager.obj
 0001:00050460       ??_GCXTPShortcutManagerAccel@@UAEPAXI@Z 00451460 f i ToolkitPro1501vc60S:XTPColorManager.obj
 0001:00050460       ??_ECXTPColorManager@@UAEPAXI@Z 00451460 f i ToolkitPro1501vc60S:XTPColorManager.obj
 0001:00050460       ??_ECXTPControlTheme@@UAEPAXI@Z 00451460 f i ToolkitPro1501vc60S:XTPColorManager.obj
 0001:00050480       ??1CXTPControlTheme@@UAE@XZ 00451480 f i ToolkitPro1501vc60S:XTPColorManager.obj
 0001:00050480       ??1CXTPShortcutManagerAccel@@UAE@XZ 00451480 f i ToolkitPro1501vc60S:XTPColorManager.obj
 0001:00050480       ??1CXTPColorManager@@UAE@XZ 00451480 f i ToolkitPro1501vc60S:XTPColorManager.obj
 0001:00050490       ?Instance@CXTPColorManager@@CAAAV1@XZ 00451490 f   ToolkitPro1501vc60S:XTPColorManager.obj
 0001:000504e0       ?ColorWidth@CXTPColorManager@@AAEMHH@Z 004514e0 f   ToolkitPro1501vc60S:XTPColorManager.obj
 0001:00050510       ?ColorDelta@CXTPColorManager@@AAEMKK@Z 00451510 f   ToolkitPro1501vc60S:XTPColorManager.obj
 0001:000505a0       ?Length@CXTPColorManager@@AAEMKK@Z 004515a0 f   ToolkitPro1501vc60S:XTPColorManager.obj
 0001:000505c0       ?LongColor@CXTPColorManager@@QAEHKKHM@Z 004515c0 f   ToolkitPro1501vc60S:XTPColorManager.obj
 0001:00050640       ?MixColor@CXTPColorManager@@AAEKKKM@Z 00451640 f   ToolkitPro1501vc60S:XTPColorManager.obj
 0001:000509d0       ?AdjustColor@CXTPColorManager@@AAEKKKM@Z 004519d0 f   ToolkitPro1501vc60S:XTPColorManager.obj
 0001:00050c60       ?LightColor@CXTPColorManager@@QBEKKKH@Z 00451c60 f   ToolkitPro1501vc60S:XTPColorManager.obj
 0001:00050d20       ?GetColor@CXTPColorManager@@QBEKH@Z 00451d20 f   ToolkitPro1501vc60S:XTPColorManager.obj
 0001:00050d50       ?RefreshSysColors@CXTPColorManager@@AAEXXZ 00451d50 f   ToolkitPro1501vc60S:XTPColorManager.obj
 0001:00050da0       ?RefreshXPColors@CXTPColorManager@@AAEXXZ 00451da0 f   ToolkitPro1501vc60S:XTPColorManager.obj
 0001:00050f00       ?RefreshGradientColors@CXTPColorManager@@AAEXXZ 00451f00 f   ToolkitPro1501vc60S:XTPColorManager.obj
 0001:00051370       ?RefreshXtremeColors@@YAXXZ 00452370 f   ToolkitPro1501vc60S:XTPColorManager.obj
 0001:00051380       ?IsLowResolution@CXTPColorManager@@QAEHPAUHDC__@@@Z 00452380 f   ToolkitPro1501vc60S:XTPColorManager.obj
 0001:00051400       ?RefreshColors@CXTPColorManager@@QAEXXZ 00452400 f   ToolkitPro1501vc60S:XTPColorManager.obj
 0001:00051e40       ?GetLunaColor@CXTPColorManager@@QBEKH@Z 00452e40 f   ToolkitPro1501vc60S:XTPColorManager.obj
 0001:00051e70       ?RefreshLunaColors@CXTPColorManager@@QAEXXZ 00452e70 f   ToolkitPro1501vc60S:XTPColorManager.obj
 0001:00052130       ?GetRDelta@CXTPColorManager@@AAENK@Z 00453130 f   ToolkitPro1501vc60S:XTPColorManager.obj
 0001:00052150       ?GetGDelta@CXTPColorManager@@AAENK@Z 00453150 f   ToolkitPro1501vc60S:XTPColorManager.obj
 0001:00052170       ?GetBDelta@CXTPColorManager@@AAENK@Z 00453170 f   ToolkitPro1501vc60S:XTPColorManager.obj
 0001:00052190       ?DisableLunaColors@CXTPColorManager@@QAEXH@Z 00453190 f   ToolkitPro1501vc60S:XTPColorManager.obj
 0001:000521a0       ?IsLunaColorsDisabled@CXTPColorManager@@QBEHXZ 004531a0 f   ToolkitPro1501vc60S:XTPColorManager.obj
 0001:000521b0       ?GetWinThemeWrapperTheme@CXTPColorManager@@QBE?AW4XTPCurrentSystemTheme@@XZ 004531b0 f   ToolkitPro1501vc60S:XTPColorManager.obj
 0001:000521c0       ?_GetWinThemeWrapperTheme@CXTPColorManager@@AAE?AW4XTPCurrentSystemTheme@@XZ 004531c0 f   ToolkitPro1501vc60S:XTPColorManager.obj
 0001:00052480       ?GetCurrentSystemTheme@CXTPColorManager@@QBE?AW4XTPCurrentSystemTheme@@XZ 00453480 f   ToolkitPro1501vc60S:XTPColorManager.obj
 0001:000524a0       ??0CXTPTransparentBitmap@@QAE@PAUHBITMAP__@@@Z 004534a0 f   ToolkitPro1501vc60S:XTPDrawHelpers.obj
 0001:000524a0       ??0CXTPMarkupAutoPtr@@QAE@PAVCXTPMarkupObject@@@Z 004534a0 f   ToolkitPro1501vc60S:XTPDrawHelpers.obj
 0001:000524b0       ?GetTransparentColor@CXTPTransparentBitmap@@QBEKXZ 004534b0 f   ToolkitPro1501vc60S:XTPDrawHelpers.obj
 0001:00052500       ?ConvertToIcon@CXTPTransparentBitmap@@QBEPAUHICON__@@XZ 00453500 f   ToolkitPro1501vc60S:XTPDrawHelpers.obj
 0001:000525f0       ??0CXTPEmptyRect@@QAE@XZ   004535f0 f   ToolkitPro1501vc60S:XTPDrawHelpers.obj
 0001:00052600       ??0CXTPWindowRect@@QAE@PAUHWND__@@@Z 00453600 f   ToolkitPro1501vc60S:XTPDrawHelpers.obj
 0001:00052630       ??0CXTPWindowRect@@QAE@PBVCWnd@@@Z 00453630 f   ToolkitPro1501vc60S:XTPDrawHelpers.obj
 0001:00052690       ??0CXTPClientRect@@QAE@PBVCWnd@@@Z 00453690 f   ToolkitPro1501vc60S:XTPDrawHelpers.obj
 0001:000526f0       ??0CXTPBufferDC@@QAE@PAUHDC__@@ABVCRect@@@Z 004536f0 f   ToolkitPro1501vc60S:XTPDrawHelpers.obj
 0001:000527c0       ??_GCXTPBufferDC@@UAEPAXI@Z 004537c0 f i ToolkitPro1501vc60S:XTPDrawHelpers.obj
 0001:000527c0       ??_ECXTPBufferDC@@UAEPAXI@Z 004537c0 f i ToolkitPro1501vc60S:XTPDrawHelpers.obj
 0001:000527e0       ??0CXTPBufferDC@@QAE@AAVCPaintDC@@@Z 004537e0 f   ToolkitPro1501vc60S:XTPDrawHelpers.obj
 0001:00052910       ??1CXTPBufferDC@@UAE@XZ    00453910 f   ToolkitPro1501vc60S:XTPDrawHelpers.obj
 0001:000529c0       ??0CXTPFontDC@@QAE@PAVCDC@@PAVCFont@@@Z 004539c0 f   ToolkitPro1501vc60S:XTPDrawHelpers.obj
 0001:00052a00       ??_ECXTPFontDC@@UAEPAXI@Z  00453a00 f i ToolkitPro1501vc60S:XTPDrawHelpers.obj
 0001:00052a00       ??_GCXTPFontDC@@UAEPAXI@Z  00453a00 f i ToolkitPro1501vc60S:XTPDrawHelpers.obj
 0001:00052a20       ??1CXTPFontDC@@UAE@XZ      00453a20 f   ToolkitPro1501vc60S:XTPDrawHelpers.obj
 0001:00052a40       ?SetFont@CXTPFontDC@@QAEXPAVCFont@@@Z 00453a40 f   ToolkitPro1501vc60S:XTPDrawHelpers.obj
 0001:00052a70       ?ReleaseFont@CXTPFontDC@@QAEXXZ 00453a70 f   ToolkitPro1501vc60S:XTPDrawHelpers.obj
 0001:00052a90       ?ReleaseColor@CXTPFontDC@@QAEXXZ 00453a90 f   ToolkitPro1501vc60S:XTPDrawHelpers.obj
 0001:00052ac0       ??0CXTPPenDC@@QAE@PAVCDC@@PAVCPen@@@Z 00453ac0 f   ToolkitPro1501vc60S:XTPDrawHelpers.obj
 0001:00052b20       ??_GCXTPPenDC@@UAEPAXI@Z   00453b20 f i ToolkitPro1501vc60S:XTPDrawHelpers.obj
 0001:00052b20       ??_ECXTPPenDC@@UAEPAXI@Z   00453b20 f i ToolkitPro1501vc60S:XTPDrawHelpers.obj
 0001:00052b40       ??0CXTPPenDC@@QAE@PAUHDC__@@K@Z 00453b40 f   ToolkitPro1501vc60S:XTPDrawHelpers.obj
 0001:00052bd0       ??1CXTPPenDC@@UAE@XZ       00453bd0 f   ToolkitPro1501vc60S:XTPDrawHelpers.obj
 0001:00052c30       ?Color@CXTPPenDC@@QAEXK@Z  00453c30 f   ToolkitPro1501vc60S:XTPDrawHelpers.obj
 0001:00052c90       ??0CXTPBrushDC@@QAE@PAUHDC__@@K@Z 00453c90 f   ToolkitPro1501vc60S:XTPDrawHelpers.obj
 0001:00052d10       ??_GCXTPBrushDC@@UAEPAXI@Z 00453d10 f i ToolkitPro1501vc60S:XTPDrawHelpers.obj
 0001:00052d10       ??_ECXTPBrushDC@@UAEPAXI@Z 00453d10 f i ToolkitPro1501vc60S:XTPDrawHelpers.obj
 0001:00052d30       ??1CXTPBrushDC@@UAE@XZ     00453d30 f   ToolkitPro1501vc60S:XTPDrawHelpers.obj
 0001:00052d90       ??0CXTPCompatibleDC@@QAE@PAVCDC@@PAVCBitmap@@@Z 00453d90 f   ToolkitPro1501vc60S:XTPDrawHelpers.obj
 0001:00052e20       ??_ECXTPCompatibleDC@@UAEPAXI@Z 00453e20 f i ToolkitPro1501vc60S:XTPDrawHelpers.obj
 0001:00052e20       ??_GCXTPCompatibleDC@@UAEPAXI@Z 00453e20 f i ToolkitPro1501vc60S:XTPDrawHelpers.obj
 0001:00052e40       ??0CXTPCompatibleDC@@QAE@PAVCDC@@PAUHBITMAP__@@@Z 00453e40 f   ToolkitPro1501vc60S:XTPDrawHelpers.obj
 0001:00052ec0       ??1CXTPCompatibleDC@@UAE@XZ 00453ec0 f   ToolkitPro1501vc60S:XTPDrawHelpers.obj
 0001:00052f30       ??0CXTPSplitterTracker@@QAE@HH@Z 00453f30 f   ToolkitPro1501vc60S:XTPDrawHelpers.obj
 0001:00052f90       ?OnInvertTracker@CXTPSplitterTracker@@AAEXVCRect@@@Z 00453f90 f   ToolkitPro1501vc60S:XTPDrawHelpers.obj
 0001:00053040       ?Track@CXTPSplitterTracker@@QAEHPAVCWnd@@VCRect@@AAV3@VCPoint@@H@Z 00454040 f   ToolkitPro1501vc60S:XTPDrawHelpers.obj
 0001:000534c0       ??0CXTPDrawHelpers@@QAE@XZ 004544c0 f   ToolkitPro1501vc60S:XTPDrawHelpers.obj
 0001:00053520       ??_ECXTPDrawHelpers@@UAEPAXI@Z 00454520 f i ToolkitPro1501vc60S:XTPDrawHelpers.obj
 0001:00053520       ??_GCXTPDrawHelpers@@UAEPAXI@Z 00454520 f i ToolkitPro1501vc60S:XTPDrawHelpers.obj
 0001:00053540       ?XTPDrawHelpers@@YAPAVCXTPDrawHelpers@@XZ 00454540 f   ToolkitPro1501vc60S:XTPDrawHelpers.obj
 0001:00053590       ??1CXTPDrawHelpers@@UAE@XZ 00454590 f   ToolkitPro1501vc60S:XTPDrawHelpers.obj
 0001:000535a0       ?GradientFill@CXTPDrawHelpers@@QAEHPAUHDC__@@PAU_TRIVERTEX@@KPAXKK@Z 004545a0 f   ToolkitPro1501vc60S:XTPDrawHelpers.obj
 0001:000535d0       ?GradientFillSlow@CXTPDrawHelpers@@AAEXPAVCDC@@PBUtagRECT@@KKH@Z 004545d0 f   ToolkitPro1501vc60S:XTPDrawHelpers.obj
 0001:00053740       ?GradientFillFast@CXTPDrawHelpers@@AAEXPAVCDC@@PBUtagRECT@@KKH@Z 00454740 f   ToolkitPro1501vc60S:XTPDrawHelpers.obj
 0001:00053810       ?GradientFill@CXTPDrawHelpers@@QAEXPAVCDC@@PBUtagRECT@@KKH@Z 00454810 f   ToolkitPro1501vc60S:XTPDrawHelpers.obj
 0001:000538e0       ?GradientFill@CXTPDrawHelpers@@QAEXPAVCDC@@PBUtagRECT@@KKH1@Z 004548e0 f   ToolkitPro1501vc60S:XTPDrawHelpers.obj
 0001:00053af0       ?GradientFill@CXTPDrawHelpers@@QAEXPAVCDC@@PBUtagRECT@@ABVCXTPPaintManagerColorGradient@@H1@Z 00454af0 f   ToolkitPro1501vc60S:XTPDrawHelpers.obj
 0001:00053cb0       ?StripMnemonics@CXTPDrawHelpers@@SAXAAVCString@@@Z 00454cb0 f   ToolkitPro1501vc60S:XTPDrawHelpers.obj
 0001:00053ce0       ?StripMnemonics@CXTPDrawHelpers@@SAXPAD@Z 00454ce0 f   ToolkitPro1501vc60S:XTPDrawHelpers.obj
 0001:00053d10       ?BlendColors@CXTPDrawHelpers@@SAKKKN@Z 00454d10 f   ToolkitPro1501vc60S:XTPDrawHelpers.obj
 0001:00053e00       ?DarkenColor@CXTPDrawHelpers@@SAKJK@Z 00454e00 f   ToolkitPro1501vc60S:XTPDrawHelpers.obj
 0001:00053e70       ?Dlu2Pix@CXTPDrawHelpers@@SA?AVCPoint@@HH@Z 00454e70 f   ToolkitPro1501vc60S:XTPDrawHelpers.obj
 0001:00053eb0       ?RGBtoHSL@CXTPDrawHelpers@@SAKK@Z 00454eb0 f   ToolkitPro1501vc60S:XTPDrawHelpers.obj
 0001:00054050       ?HueToRGB@CXTPDrawHelpers@@CAHHHH@Z 00455050 f   ToolkitPro1501vc60S:XTPDrawHelpers.obj
 0001:00054120       ?HSLtoRGB@CXTPDrawHelpers@@SAKK@Z 00455120 f   ToolkitPro1501vc60S:XTPDrawHelpers.obj
 0001:00054250       ?FontExists@CXTPDrawHelpers@@SAHPBD@Z 00455250 f   ToolkitPro1501vc60S:XTPDrawHelpers.obj
 0001:00054330       ?GetVerticalFontName@CXTPDrawHelpers@@SA?AVCString@@H@Z 00455330 f   ToolkitPro1501vc60S:XTPDrawHelpers.obj
 0001:00054440       ?IsContextRTL@CXTPDrawHelpers@@SAHPAVCDC@@@Z 00455440 f   ToolkitPro1501vc60S:XTPDrawHelpers.obj
 0001:00054470       ?IsContextRTL@CXTPDrawHelpers@@SAHPAUHDC__@@@Z 00455470 f   ToolkitPro1501vc60S:XTPDrawHelpers.obj
 0001:000544c0       ?SetContextRTL@CXTPDrawHelpers@@SAXPAVCDC@@H@Z 004554c0 f   ToolkitPro1501vc60S:XTPDrawHelpers.obj
 0001:000544e0       ?SetContextRTL@CXTPDrawHelpers@@SAXPAUHDC__@@H@Z 004554e0 f   ToolkitPro1501vc60S:XTPDrawHelpers.obj
 0001:00054530       ?KeyToLayout@CXTPDrawHelpers@@SAXPAVCWnd@@AAI@Z 00455530 f   ToolkitPro1501vc60S:XTPDrawHelpers.obj
 0001:00054580       ?Triangle@CXTPDrawHelpers@@SAXPAVCDC@@VCPoint@@11K@Z 00455580 f   ToolkitPro1501vc60S:XTPDrawHelpers.obj
 0001:00054650       ?IsLowResolution@CXTPDrawHelpers@@SAHPAUHDC__@@@Z 00455650 f   ToolkitPro1501vc60S:XTPDrawHelpers.obj
 0001:00054670       ?IsTopParentActive@CXTPDrawHelpers@@SAHPAUHWND__@@@Z 00455670 f   ToolkitPro1501vc60S:XTPDrawHelpers.obj
 0001:000546b0       ?ScreenToWindow@CXTPDrawHelpers@@SAXPAVCWnd@@PAUtagPOINT@@@Z 004556b0 f   ToolkitPro1501vc60S:XTPDrawHelpers.obj
 0001:00054720       ?RegisterWndClass@CXTPDrawHelpers@@SAHPAUHINSTANCE__@@PBDIPAUHICON__@@PAUHBRUSH__@@@Z 00455720 f   ToolkitPro1501vc60S:XTPDrawHelpers.obj
 0001:000547a0       ?GetWindowCaption@CXTPDrawHelpers@@SAXPAUHWND__@@AAVCString@@@Z 004557a0 f   ToolkitPro1501vc60S:XTPDrawHelpers.obj
 0001:000547e0       ?GetIconLogFont@CXTPDrawHelpers@@SAHPAUtagLOGFONTA@@@Z 004557e0 f   ToolkitPro1501vc60S:XTPDrawHelpers.obj
 0001:00054850       ??_ECPen@@UAEPAXI@Z        00455850 f i ToolkitPro1501vc60S:XTPDrawHelpers.obj
 0001:00054850       ??_GCPen@@UAEPAXI@Z        00455850 f i ToolkitPro1501vc60S:XTPDrawHelpers.obj
 0001:00054870       ??1CPen@@UAE@XZ            00455870 f i ToolkitPro1501vc60S:XTPDrawHelpers.obj
 0001:000548b0       ??_ECRgn@@UAEPAXI@Z        004558b0 f i ToolkitPro1501vc60S:XTPDrawHelpers.obj
 0001:000548b0       ??_GCRgn@@UAEPAXI@Z        004558b0 f i ToolkitPro1501vc60S:XTPDrawHelpers.obj
 0001:000548d0       ??1CRgn@@UAE@XZ            004558d0 f i ToolkitPro1501vc60S:XTPDrawHelpers.obj
 0001:00054910       ?PtVisible@CDC@@UBEHHH@Z   00455910 f i ToolkitPro1501vc60S:XTPDrawHelpers.obj
 0001:00054930       ?RectVisible@CDC@@UBEHPBUtagRECT@@@Z 00455930 f i ToolkitPro1501vc60S:XTPDrawHelpers.obj
 0001:00054950       ?TextOutA@CDC@@UAEHHHPBDH@Z 00455950 f i ToolkitPro1501vc60S:XTPDrawHelpers.obj
 0001:00054980       ?ExtTextOutA@CDC@@UAEHHHIPBUtagRECT@@PBDIPAH@Z 00455980 f i ToolkitPro1501vc60S:XTPDrawHelpers.obj
 0001:000549b0       ?TabbedTextOutA@CDC@@UAE?AVCSize@@HHPBDHHPAHH@Z 004559b0 f i ToolkitPro1501vc60S:XTPDrawHelpers.obj
 0001:00054a00       ?DrawTextA@CDC@@UAEHPBDHPAUtagRECT@@I@Z 00455a00 f i ToolkitPro1501vc60S:XTPDrawHelpers.obj
 0001:00054a30       ?GrayStringA@CDC@@UAEHPAVCBrush@@P6GHPAUHDC__@@JH@ZJHHHHH@Z 00455a30 f i ToolkitPro1501vc60S:XTPDrawHelpers.obj
 0001:00054a70       ?Escape@CDC@@UAEHHHPBDPAX@Z 00455a70 f i ToolkitPro1501vc60S:XTPDrawHelpers.obj
 0001:00054aa0       ??0CXTPEdit@@QAE@XZ        00455aa0 f   ToolkitPro1501vc60S:XTPEdit.obj
 0001:00054bb0       ??_ECXTPEdit@@UAEPAXI@Z    00455bb0 f i ToolkitPro1501vc60S:XTPEdit.obj
 0001:00054bb0       ??_GCXTPEdit@@UAEPAXI@Z    00455bb0 f i ToolkitPro1501vc60S:XTPEdit.obj
 0001:00054bd0       ??1?$CXTPMaskEditT@VCEdit@@@@UAE@XZ 00455bd0 f i ToolkitPro1501vc60S:XTPEdit.obj
 0001:00054c60       ??1CXTPEdit@@UAE@XZ        00455c60 f   ToolkitPro1501vc60S:XTPEdit.obj
 0001:00054d60       ?GetRuntimeClass@CXTPEdit@@UBEPAUCRuntimeClass@@XZ 00455d60 f   ToolkitPro1501vc60S:XTPEdit.obj
 0001:00054d70       ?GetMessageMap@CXTPEdit@@MBEPBUAFX_MSGMAP@@XZ 00455d70 f   ToolkitPro1501vc60S:XTPEdit.obj
 0001:00054d80       ?SetEditMask@CXTPEdit@@UAEHPBD00@Z 00455d80 f   ToolkitPro1501vc60S:XTPEdit.obj
 0001:00054e40       ?Init@CXTPEdit@@IAEXXZ     00455e40 f   ToolkitPro1501vc60S:XTPEdit.obj
 0001:00054ea0       ?PreSubclassWindow@CXTPEdit@@MAEXXZ 00455ea0 f   ToolkitPro1501vc60S:XTPEdit.obj
 0001:00054ec0       ?OnCreate@CXTPEdit@@IAEHPAUtagCREATESTRUCTA@@@Z 00455ec0 f   ToolkitPro1501vc60S:XTPEdit.obj
 0001:00054ee0       ?PreCreateWindow@CXTPEdit@@MAEHAAUtagCREATESTRUCTA@@@Z 00455ee0 f   ToolkitPro1501vc60S:XTPEdit.obj
 0001:00054f10       ?OnContextMenu@CXTPEdit@@IAEXPAVCWnd@@VCPoint@@@Z 00455f10 f   ToolkitPro1501vc60S:XTPEdit.obj
 0001:00055000       ?OnEditUndo@CXTPEdit@@IAEXXZ 00456000 f   ToolkitPro1501vc60S:XTPEdit.obj
 0001:000550c0       ?OnUpdateEditUndo@CXTPEdit@@IAEXPAVCCmdUI@@@Z 004560c0 f   ToolkitPro1501vc60S:XTPEdit.obj
 0001:000550e0       ?OnEditCut@CXTPEdit@@IAEXXZ 004560e0 f   ToolkitPro1501vc60S:XTPEdit.obj
 0001:00055220       ?OnEditCopy@CXTPEdit@@IAEXXZ 00456220 f   ToolkitPro1501vc60S:XTPEdit.obj
 0001:00055230       ?OnUpdateEditCopy@CXTPEdit@@IAEXPAVCCmdUI@@@Z 00456230 f   ToolkitPro1501vc60S:XTPEdit.obj
 0001:00055250       ?OnEditPaste@CXTPEdit@@IAEXXZ 00456250 f   ToolkitPro1501vc60S:XTPEdit.obj
 0001:00055420       ?OnUpdateEditPaste@CXTPEdit@@IAEXPAVCCmdUI@@@Z 00456420 f   ToolkitPro1501vc60S:XTPEdit.obj
 0001:00055440       ?OnEditClear@CXTPEdit@@IAEXXZ 00456440 f   ToolkitPro1501vc60S:XTPEdit.obj
 0001:000555a0       ?OnUpdateEditClear@CXTPEdit@@IAEXPAVCCmdUI@@@Z 004565a0 f   ToolkitPro1501vc60S:XTPEdit.obj
 0001:000555a0       ?OnUpdateEditCut@CXTPEdit@@IAEXPAVCCmdUI@@@Z 004565a0 f   ToolkitPro1501vc60S:XTPEdit.obj
 0001:000555e0       ?OnEditSelectAll@CXTPEdit@@IAEXXZ 004565e0 f   ToolkitPro1501vc60S:XTPEdit.obj
 0001:00055610       ?OnUpdateEditSelectAll@CXTPEdit@@IAEXPAVCCmdUI@@@Z 00456610 f   ToolkitPro1501vc60S:XTPEdit.obj
 0001:00055630       ?CanPaste@CXTPEdit@@UAEHXZ 00456630 f   ToolkitPro1501vc60S:XTPEdit.obj
 0001:00055670       ?HasSelection@CXTPEdit@@QBEHXZ 00456670 f   ToolkitPro1501vc60S:XTPEdit.obj
 0001:000556a0       ?IsPatternValid@CXTPEdit@@QAEHXZ 004566a0 f   ToolkitPro1501vc60S:XTPEdit.obj
 0001:00055980       ??1_bstr_t@@QAE@XZ         00456980 f i ToolkitPro1501vc60S:XTPEdit.obj
 0001:00055980       ?_Free@_bstr_t@@AAEXXZ     00456980 f i ToolkitPro1501vc60S:XTPEdit.obj
 0001:000559d0       ??0Data_t@_bstr_t@@QAE@PBG@Z 004569d0 f i ToolkitPro1501vc60S:XTPEdit.obj
 0001:00055a10       ?OnPaint@CXTPEdit@@IAEXXZ  00456a10 f   ToolkitPro1501vc60S:XTPEdit.obj
 0001:00055dc0       ?OnInitMenuPopup@CXTPEdit@@IAEXPAVCMenu@@IH@Z 00456dc0 f   ToolkitPro1501vc60S:XTPEdit.obj
 0001:00055e90       ?Initialize@CXTPEdit@@UAE_NPAVCWnd@@@Z 00456e90 f   ToolkitPro1501vc60S:XTPEdit.obj
 0001:00055ed0       ?SetTheme@CXTPEdit@@QAEXW4XTPControlTheme@@@Z 00456ed0 f   ToolkitPro1501vc60S:XTPEdit.obj
 0001:00055f00       ?RefreshMetrics@CXTPEdit@@QAEXXZ 00456f00 f   ToolkitPro1501vc60S:XTPEdit.obj
 0001:00056070       ?OnNcPaint@CXTPEdit@@IAEXXZ 00457070 f   ToolkitPro1501vc60S:XTPEdit.obj
 0001:000561b0       ?FillSolidRect@CXTPComboBox@@IAEXPAUHDC__@@HHHHPAUHBRUSH__@@@Z 004571b0 f   ToolkitPro1501vc60S:XTPEdit.obj
 0001:000561b0       ?FillSolidRect@CXTPEdit@@AAEXPAUHDC__@@HHHHPAUHBRUSH__@@@Z 004571b0 f   ToolkitPro1501vc60S:XTPEdit.obj
 0001:00056200       ?DrawFrame@CXTPEdit@@AAEXPAUHDC__@@PAUtagRECT@@HPAUHBRUSH__@@@Z 00457200 f   ToolkitPro1501vc60S:XTPEdit.obj
 0001:00056200       ?DrawFrame@CXTPComboBox@@IAEXPAUHDC__@@PAUtagRECT@@HPAUHBRUSH__@@@Z 00457200 f   ToolkitPro1501vc60S:XTPEdit.obj
 0001:00056290       ?DrawNcBorders@CXTPEdit@@MAEXPAVCDC@@VCRect@@@Z 00457290 f   ToolkitPro1501vc60S:XTPEdit.obj
 0001:00056530       ?OnNcCalcSize@CXTPEdit@@IAEXHPAUtagNCCALCSIZE_PARAMS@@@Z 00457530 f   ToolkitPro1501vc60S:XTPEdit.obj
 0001:00056570       ?OnMouseLeave@CXTPEdit@@IAEXXZ 00457570 f   ToolkitPro1501vc60S:XTPEdit.obj
 0001:00056580       ?OnMouseMove@CXTPEdit@@IAEXIVCPoint@@@Z 00457580 f   ToolkitPro1501vc60S:XTPEdit.obj
 0001:00056610       ?OnKillFocus@CXTPEdit@@IAEXPAVCWnd@@@Z 00457610 f   ToolkitPro1501vc60S:XTPEdit.obj
 0001:00056630       ?OnSetFocus@CXTPEdit@@IAEXPAVCWnd@@@Z 00457630 f   ToolkitPro1501vc60S:XTPEdit.obj
 0001:00056730       ?RedrawEdit@CXTPEdit@@AAEXXZ 00457730 f   ToolkitPro1501vc60S:XTPEdit.obj
 0001:00056750       ?RedrawFocusedFrame@CXTPEdit@@IAEXXZ 00457750 f   ToolkitPro1501vc60S:XTPEdit.obj
 0001:00056780       ?GetClientBrush@CXTPEdit@@AAEPAUHBRUSH__@@PAVCDC@@@Z 00457780 f   ToolkitPro1501vc60S:XTPEdit.obj
 0001:000567f0       ?OnChange@CXTPEdit@@IAEHXZ 004577f0 f   ToolkitPro1501vc60S:XTPEdit.obj
 0001:00056810       ?AdjustBuddyRect@CXTPEdit@@QAEXPAVCWnd@@AAVCRect@@H@Z 00457810 f   ToolkitPro1501vc60S:XTPEdit.obj
 0001:000568e0       ?DrawBuddyBorders@CXTPEdit@@QAEXPAVCWnd@@PAVCDC@@VCRect@@H@Z 004578e0 f   ToolkitPro1501vc60S:XTPEdit.obj
 0001:00056ab0       ?OnSysColorChange@CXTPEdit@@IAEXXZ 00457ab0 f   ToolkitPro1501vc60S:XTPEdit.obj
 0001:00056af0       ?_Release@?$_com_ptr_t@V?$_com_IIID@UIMatch@XTPREGEXP@@$1?_GUID_3f4daca1_160d_11d2_a8e9_00104b365c9f@@3U__s_GUID@@A@@@@AAEXXZ 00457af0 f i ToolkitPro1501vc60S:XTPEdit.obj
 0001:00056af0       ??1?$_com_ptr_t@V?$_com_IIID@UIMatch@XTPREGEXP@@$1?_GUID_3f4daca1_160d_11d2_a8e9_00104b365c9f@@3U__s_GUID@@A@@@@QAE@XZ 00457af0 f i ToolkitPro1501vc60S:XTPEdit.obj
 0001:00056af0       ??1?$_com_ptr_t@V?$_com_IIID@UIRegExp@XTPREGEXP@@$1?_GUID_3f4daca0_160d_11d2_a8e9_00104b365c9f@@3U__s_GUID@@A@@@@QAE@XZ 00457af0 f i ToolkitPro1501vc60S:XTPEdit.obj
 0001:00056b00       ??C?$_com_ptr_t@V?$_com_IIID@UIMatch@XTPREGEXP@@$1?_GUID_3f4daca1_160d_11d2_a8e9_00104b365c9f@@3U__s_GUID@@A@@@@QBEPAUIMatch@XTPREGEXP@@XZ 00457b00 f i ToolkitPro1501vc60S:XTPEdit.obj
 0001:00056b00       ??C?$_com_ptr_t@V?$_com_IIID@UIMatchCollection@XTPREGEXP@@$1?_GUID_3f4daca2_160d_11d2_a8e9_00104b365c9f@@3U__s_GUID@@A@@@@QBEPAUIMatchCollection@XTPREGEXP@@XZ 00457b00 f i ToolkitPro1501vc60S:XTPEdit.obj
 0001:00056b00       ??C?$_com_ptr_t@V?$_com_IIID@UIRegExp@XTPREGEXP@@$1?_GUID_3f4daca0_160d_11d2_a8e9_00104b365c9f@@3U__s_GUID@@A@@@@QBEPAUIRegExp@XTPREGEXP@@XZ 00457b00 f i ToolkitPro1501vc60S:XTPEdit.obj
 0001:00056b20       ??8?$_com_ptr_t@V?$_com_IIID@UIRegExp@XTPREGEXP@@$1?_GUID_3f4daca0_160d_11d2_a8e9_00104b365c9f@@3U__s_GUID@@A@@@@QAE_NH@Z 00457b20 f i ToolkitPro1501vc60S:XTPEdit.obj
 0001:00056b20       ??8?$_com_ptr_t@V?$_com_IIID@UIMatch@XTPREGEXP@@$1?_GUID_3f4daca1_160d_11d2_a8e9_00104b365c9f@@3U__s_GUID@@A@@@@QAE_NH@Z 00457b20 f i ToolkitPro1501vc60S:XTPEdit.obj
 0001:00056b20       ??8?$_com_ptr_t@V?$_com_IIID@UIMatchCollection@XTPREGEXP@@$1?_GUID_3f4daca2_160d_11d2_a8e9_00104b365c9f@@3U__s_GUID@@A@@@@QAE_NH@Z 00457b20 f i ToolkitPro1501vc60S:XTPEdit.obj
 0001:00056b50       ?CreateInstance@?$_com_ptr_t@V?$_com_IIID@UIRegExp@XTPREGEXP@@$1?_GUID_3f4daca0_160d_11d2_a8e9_00104b365c9f@@3U__s_GUID@@A@@@@QAEJABU_GUID@@PAUIUnknown@@K@Z 00457b50 f i ToolkitPro1501vc60S:XTPEdit.obj
 0001:00056be0       ??4?$_com_ptr_t@V?$_com_IIID@UIMatchCollection@XTPREGEXP@@$1?_GUID_3f4daca2_160d_11d2_a8e9_00104b365c9f@@3U__s_GUID@@A@@@@QAEAAV0@H@Z 00457be0 f i ToolkitPro1501vc60S:XTPEdit.obj
 0001:00056c10       ?MaskCut@?$CXTPMaskEditT@VCEdit@@@@QAEHXZ 00457c10 f i ToolkitPro1501vc60S:XTPEdit.obj
 0001:00056d50       ?MaskCopy@?$CXTPMaskEditT@VCEdit@@@@QAEHXZ 00457d50 f i ToolkitPro1501vc60S:XTPEdit.obj
 0001:00056f10       ?MaskPaste@?$CXTPMaskEditT@VCEdit@@@@QAEHXZ 00457f10 f i ToolkitPro1501vc60S:XTPEdit.obj
 0001:000570f0       ?MaskClear@?$CXTPMaskEditT@VCEdit@@@@QAEHXZ 004580f0 f i ToolkitPro1501vc60S:XTPEdit.obj
 0001:00057260       ?MaskUndo@?$CXTPMaskEditT@VCEdit@@@@QAEHXZ 00458260 f i ToolkitPro1501vc60S:XTPEdit.obj
 0001:00057320       ?SetEditMask@?$CXTPMaskEditT@VCEdit@@@@UAEHPBD00@Z 00458320 f i ToolkitPro1501vc60S:XTPEdit.obj
 0001:000573e0       ?CheckChar@?$CXTPMaskEditT@VCEdit@@@@UAEHAADH@Z 004583e0 f i ToolkitPro1501vc60S:XTPEdit.obj
 0001:00057470       ?ProcessMask@?$CXTPMaskEditT@VCEdit@@@@UAEHAADH@Z 00458470 f i ToolkitPro1501vc60S:XTPEdit.obj
 0001:00057720       ?PreTranslateMessage@?$CXTPMaskEditT@VCEdit@@@@UAEHPAUtagMSG@@@Z 00458720 f i ToolkitPro1501vc60S:XTPEdit.obj
 0001:00057ad0       ?OnKeyDown@?$CXTPMaskEditT@VCEdit@@@@IAEXIII@Z 00458ad0 f i ToolkitPro1501vc60S:XTPEdit.obj
 0001:00057fd0       ?OnChar@?$CXTPMaskEditT@VCEdit@@@@IAEXIII@Z 00458fd0 f i ToolkitPro1501vc60S:XTPEdit.obj
 0001:00058210       ?IsPrintChar@?$CXTPMaskEditT@VCEdit@@@@MAEHD@Z 00459210 f i ToolkitPro1501vc60S:XTPEdit.obj
 0001:00058250       ?IsAlphaChar@?$CXTPMaskEditT@VCEdit@@@@MAEHD@Z 00459250 f i ToolkitPro1501vc60S:XTPEdit.obj
 0001:000582b0       ?NotifyPosNotInRange@?$CXTPMaskEditT@VCEdit@@@@MAEXXZ 004592b0 f i ToolkitPro1501vc60S:XTPEdit.obj
 0001:000582c0       ?NotifyInvalidCharacter@?$CXTPMaskEditT@VCEdit@@@@MAEXDD@Z 004592c0 f i ToolkitPro1501vc60S:XTPEdit.obj
 0001:000582d0       ?OnCommand@?$CXTPMaskEditT@VCEdit@@@@MAEHIJ@Z 004592d0 f i ToolkitPro1501vc60S:XTPEdit.obj
 0001:000585d0       ??_G?$CXTPMaskEditT@VCEdit@@@@UAEPAXI@Z 004595d0 f i ToolkitPro1501vc60S:XTPEdit.obj
 0001:000585d0       ??_E?$CXTPMaskEditT@VCEdit@@@@UAEPAXI@Z 004595d0 f i ToolkitPro1501vc60S:XTPEdit.obj
 0001:000585f0       ??4?$_com_ptr_t@V?$_com_IIID@UIMatchCollection@XTPREGEXP@@$1?_GUID_3f4daca2_160d_11d2_a8e9_00104b365c9f@@3U__s_GUID@@A@@@@QAEAAV0@PAUIMatchCollection@XTPREGEXP@@@Z 004595f0 f i ToolkitPro1501vc60S:XTPEdit.obj
 0001:00058620       ?CanUseMask@?$CXTPMaskEditT@VCEdit@@@@QBEHXZ 00459620 f i ToolkitPro1501vc60S:XTPEdit.obj
 0001:00058650       ?MaskReplaceSel@?$CXTPMaskEditT@VCEdit@@@@QAEXPBD@Z 00459650 f i ToolkitPro1501vc60S:XTPEdit.obj
 0001:00058770       ?MaskDeleteSel@?$CXTPMaskEditT@VCEdit@@@@QAEXXZ 00459770 f i ToolkitPro1501vc60S:XTPEdit.obj
 0001:00058910       ?SetMaskedText@?$CXTPMaskEditT@VCEdit@@@@QAEXPBDHH@Z 00459910 f i ToolkitPro1501vc60S:XTPEdit.obj
 0001:00058bb0       ?ConvertUnicodeAlpha@?$CXTPMaskEditT@VCEdit@@@@QBEDDH@Z 00459bb0 f i ToolkitPro1501vc60S:XTPEdit.obj
 0001:00058c30       ?GetMaskedText@?$CXTPMaskEditT@VCEdit@@@@QBE?AVCString@@HH@Z 00459c30 f i ToolkitPro1501vc60S:XTPEdit.obj
 0001:00058d00       ?ProcessChar@?$CXTPMaskEditT@VCEdit@@@@IAEXD@Z 00459d00 f i ToolkitPro1501vc60S:XTPEdit.obj
 0001:00058e40       ?CorrectPosition@?$CXTPMaskEditT@VCEdit@@@@IAEHAAHH@Z 00459e40 f i ToolkitPro1501vc60S:XTPEdit.obj
 0001:00058f20       ?GetMaskState@?$CXTPMaskEditT@VCEdit@@@@IAEXH@Z 00459f20 f i ToolkitPro1501vc60S:XTPEdit.obj
 0001:00059060       ?MaskGetSel@?$CXTPMaskEditT@VCEdit@@@@IAEXXZ 0045a060 f i ToolkitPro1501vc60S:XTPEdit.obj
 0001:00059080       ?SetMaskState@?$CXTPMaskEditT@VCEdit@@@@IAEXH@Z 0045a080 f i ToolkitPro1501vc60S:XTPEdit.obj
 0001:000591d0       ?InsertCharAt@?$CXTPMaskEditT@VCEdit@@@@QAEXHD@Z 0045a1d0 f i ToolkitPro1501vc60S:XTPEdit.obj
 0001:000593b0       ?IsPromptPos@?$CXTPMaskEditT@VCEdit@@@@IBEHABVCString@@H@Z 0045a3b0 f i ToolkitPro1501vc60S:XTPEdit.obj
 0001:000593e0       ?CorrectWindowText@?$CXTPMaskEditT@VCEdit@@@@IAEXXZ 0045a3e0 f i ToolkitPro1501vc60S:XTPEdit.obj
 0001:00059480       ??4?$_com_ptr_t@V?$_com_IIID@UIMatchCollection@XTPREGEXP@@$1?_GUID_3f4daca2_160d_11d2_a8e9_00104b365c9f@@3U__s_GUID@@A@@@@QAEAAV0@ABQAUIDispatch@@@Z 0045a480 f i ToolkitPro1501vc60S:XTPEdit.obj
 0001:00059500       ??0?$_com_ptr_t@V?$_com_IIID@UIMatch@XTPREGEXP@@$1?_GUID_3f4daca1_160d_11d2_a8e9_00104b365c9f@@3U__s_GUID@@A@@@@QAE@ABQAUIDispatch@@@Z 0045a500 f i ToolkitPro1501vc60S:XTPEdit.obj
 0001:000595c0       ?CreateObject@CXTThemeManagerStyleFactory@@SGPAVCObject@@XZ 0045a5c0 f   ToolkitPro1501vc60S:XTThemeManager.obj
 0001:00059620       ?GetRuntimeClass@CXTThemeManagerStyleFactory@@UBEPAUCRuntimeClass@@XZ 0045a620 f   ToolkitPro1501vc60S:XTThemeManager.obj
 0001:00059630       ??0CXTThemeManagerStyleFactory@@QAE@XZ 0045a630 f   ToolkitPro1501vc60S:XTThemeManager.obj
 0001:00059690       ??_ECXTThemeManagerStyleFactory@@UAEPAXI@Z 0045a690 f i ToolkitPro1501vc60S:XTThemeManager.obj
 0001:00059690       ??_GCXTThemeManagerStyleFactory@@UAEPAXI@Z 0045a690 f i ToolkitPro1501vc60S:XTThemeManager.obj
 0001:000596b0       ??1CXTThemeManagerStyleFactory@@UAE@XZ 0045a6b0 f   ToolkitPro1501vc60S:XTThemeManager.obj
 0001:00059720       ?SetTheme@CXTThemeManagerStyleFactory@@QAEXPAVCXTThemeManagerStyle@@@Z 0045a720 f   ToolkitPro1501vc60S:XTThemeManager.obj
 0001:00059770       ?SetTheme@CXTThemeManagerStyleFactory@@QAEXW4XTThemeStyle@@@Z 0045a770 f   ToolkitPro1501vc60S:XTThemeManager.obj
 0001:00059790       ?RefreshMetrics@CXTThemeManagerStyleFactory@@UAEXXZ 0045a790 f   ToolkitPro1501vc60S:XTThemeManager.obj
 0001:000597a0       ??0CXTThemeManager@@QAE@XZ 0045a7a0 f   ToolkitPro1501vc60S:XTThemeManager.obj
 0001:00059810       ??_GCXTThemeManager@@UAEPAXI@Z 0045a810 f i ToolkitPro1501vc60S:XTThemeManager.obj
 0001:00059810       ??_ECXTThemeManager@@UAEPAXI@Z 0045a810 f i ToolkitPro1501vc60S:XTThemeManager.obj
 0001:00059830       ??1CXTThemeManager@@UAE@XZ 0045a830 f   ToolkitPro1501vc60S:XTThemeManager.obj
 0001:000598d0       ?SetTheme@CXTThemeManager@@QAEXW4XTThemeStyle@@@Z 0045a8d0 f   ToolkitPro1501vc60S:XTThemeManager.obj
 0001:00059940       ?XTThemeManager@@YAPAVCXTThemeManager@@XZ 0045a940 f   ToolkitPro1501vc60S:XTThemeManager.obj
 0001:00059950       ?CreateObject@?$CProcessLocal@VCXTThemeManager@@@@SGPAVCNoTrackObject@@XZ 0045a950 f i ToolkitPro1501vc60S:XTThemeManager.obj
 0001:000599b0       ?GetRuntimeClass@CXTPCustomizeSheet@@UBEPAUCRuntimeClass@@XZ 0045a9b0 f   ToolkitPro1501vc60S:XTPCustomizeSheet.obj
 0001:000599c0       ??0CXTPCustomizeSheet@@QAE@PAVCXTPCommandBars@@I@Z 0045a9c0 f   ToolkitPro1501vc60S:XTPCustomizeSheet.obj
 0001:00059be0       ??_GCXTPCustomizeSheet@@UAEPAXI@Z 0045abe0 f i ToolkitPro1501vc60S:XTPCustomizeSheet.obj
 0001:00059be0       ??_ECXTPCustomizeSheet@@UAEPAXI@Z 0045abe0 f i ToolkitPro1501vc60S:XTPCustomizeSheet.obj
 0001:00059c00       ??1CXTPCustomizeSheet@@UAE@XZ 0045ac00 f   ToolkitPro1501vc60S:XTPCustomizeSheet.obj
 0001:00059c90       ?CreateContextMenu@CXTPCustomizeSheet@@AAEXXZ 0045ac90 f   ToolkitPro1501vc60S:XTPCustomizeSheet.obj
 0001:00059ff0       ?GetCustomizeMinWidth@CXTPControlEdit@@MBEHXZ 0045aff0 f i ToolkitPro1501vc60S:XTPCustomizeSheet.obj
 0001:0005a000       ?OnThemeChanged@CXTPControlEdit@@MAEXXZ 0045b000 f i ToolkitPro1501vc60S:XTPCustomizeSheet.obj
 0001:0005a010       ?OnExecute@CCustomizeButton@CXTPCustomizeSheet@@EAEXXZ 0045b010 f i ToolkitPro1501vc60S:XTPCustomizeSheet.obj
 0001:0005a070       ?OnSetSelected@CCustomizeEdit@CXTPCustomizeSheet@@EAEHH@Z 0045b070 f i ToolkitPro1501vc60S:XTPCustomizeSheet.obj
 0001:0005a0f0       ?OnExecute@CCustomizeEdit@CXTPCustomizeSheet@@EAEXXZ 0045b0f0 f i ToolkitPro1501vc60S:XTPCustomizeSheet.obj
 0001:0005a150       ??_GCCustomizeEdit@CXTPCustomizeSheet@@UAEPAXI@Z 0045b150 f i ToolkitPro1501vc60S:XTPCustomizeSheet.obj
 0001:0005a150       ??_ECCustomizeEdit@CXTPCustomizeSheet@@UAEPAXI@Z 0045b150 f i ToolkitPro1501vc60S:XTPCustomizeSheet.obj
 0001:0005a170       ??1CCustomizeEdit@CXTPCustomizeSheet@@UAE@XZ 0045b170 f i ToolkitPro1501vc60S:XTPCustomizeSheet.obj
 0001:0005a180       ?AddPage@CXTPCustomizeSheet@@QAEXPAVCXTPPropertyPage@@@Z 0045b180 f   ToolkitPro1501vc60S:XTPCustomizeSheet.obj
 0001:0005a1b0       ?GetMessageMap@CXTPCustomizeSheet@@MBEPBUAFX_MSGMAP@@XZ 0045b1b0 f   ToolkitPro1501vc60S:XTPCustomizeSheet.obj
 0001:0005a1c0       ?CreateClient@CXTPCustomizeSheet@@EAEHXZ 0045b1c0 f   ToolkitPro1501vc60S:XTPCustomizeSheet.obj
 0001:0005a1d0       ?OnInitDialog@CXTPCustomizeSheet@@MAEHXZ 0045b1d0 f   ToolkitPro1501vc60S:XTPCustomizeSheet.obj
 0001:0005a290       ?ContextMenu@CXTPCustomizeSheet@@QAEXVCPoint@@@Z 0045b290 f   ToolkitPro1501vc60S:XTPCustomizeSheet.obj
 0001:0005a2e0       ?DoModal@CXTPCustomizeSheet@@UAEHXZ 0045b2e0 f   ToolkitPro1501vc60S:XTPCustomizeSheet.obj
 0001:0005a5f0       ??0CXTPCustomizeHook@@QAE@PAVCXTPCustomizeSheet@@P81@AEHIJ@Z@Z 0045b5f0 f i ToolkitPro1501vc60S:XTPCustomizeSheet.obj
 0001:0005a610       ?Unhook@CXTPCustomizeHook@@QAEXXZ 0045b610 f i ToolkitPro1501vc60S:XTPCustomizeSheet.obj
 0001:0005a610       ??1CXTPCustomizeHook@@QAE@XZ 0045b610 f i ToolkitPro1501vc60S:XTPCustomizeSheet.obj
 0001:0005a630       ??1CXTPCustomizeHooks@@QAE@XZ 0045b630 f i ToolkitPro1501vc60S:XTPCustomizeSheet.obj
 0001:0005a6a0       ?MouseProc@CXTPCustomizeHooks@@SGJHIJ@Z 0045b6a0 f i ToolkitPro1501vc60S:XTPCustomizeSheet.obj
 0001:0005a6f0       ?KeyProc@CXTPCustomizeHooks@@SGJHIJ@Z 0045b6f0 f i ToolkitPro1501vc60S:XTPCustomizeSheet.obj
 0001:0005a740       ?MessageProc@CXTPCustomizeHooks@@SGJHIJ@Z 0045b740 f i ToolkitPro1501vc60S:XTPCustomizeSheet.obj
 0001:0005a790       ?FilterMouse@CXTPCustomizeSheet@@AAEHIJ@Z 0045b790 f   ToolkitPro1501vc60S:XTPCustomizeSheet.obj
 0001:0005a9b0       ?FilterKey@CXTPCustomizeSheet@@AAEHIJ@Z 0045b9b0 f   ToolkitPro1501vc60S:XTPCustomizeSheet.obj
 0001:0005aa50       ?FilterMessage@CXTPCustomizeSheet@@AAEHIJ@Z 0045ba50 f   ToolkitPro1501vc60S:XTPCustomizeSheet.obj
 0001:0005aaa0       ?GetDragControl@CXTPCustomizeSheet@@QBEPAVCXTPControl@@XZ 0045baa0 f   ToolkitPro1501vc60S:XTPCustomizeSheet.obj
 0001:0005aac0       ?OnCustomizeDefaultStyle@CXTPCustomizeSheet@@IAEXXZ 0045bac0 f   ToolkitPro1501vc60S:XTPCustomizeSheet.obj
 0001:0005aaf0       ?OnCustomizeImageAndText@CXTPCustomizeSheet@@IAEXXZ 0045baf0 f   ToolkitPro1501vc60S:XTPCustomizeSheet.obj
 0001:0005ab20       ?OnCustomizeTextOnly@CXTPCustomizeSheet@@IAEXXZ 0045bb20 f   ToolkitPro1501vc60S:XTPCustomizeSheet.obj
 0001:0005ab50       ?OnCustomizeBeginGroup@CXTPCustomizeSheet@@IAEXXZ 0045bb50 f   ToolkitPro1501vc60S:XTPCustomizeSheet.obj
 0001:0005ab80       ?OnCustomizeDelete@CXTPCustomizeSheet@@IAEXXZ 0045bb80 f   ToolkitPro1501vc60S:XTPCustomizeSheet.obj
 0001:0005abc0       ?OnCustomizeEditImage@CXTPCustomizeSheet@@IAEXXZ 0045bbc0 f   ToolkitPro1501vc60S:XTPCustomizeSheet.obj
 0001:0005af50       ??1CDlgToolBar@CXTPImageEditorDlg@@UAE@XZ 0045bf50 f i ToolkitPro1501vc60S:XTPCustomizeSheet.obj
 0001:0005af60       ??1CXTPImageEditorDlg@@UAE@XZ 0045bf60 f i ToolkitPro1501vc60S:XTPCustomizeSheet.obj
 0001:0005b060       ??1CXTPImageEditorPicker@@UAE@XZ 0045c060 f i ToolkitPro1501vc60S:XTPCustomizeSheet.obj
 0001:0005b060       ??1CXTPImageEditorPreview@@UAE@XZ 0045c060 f i ToolkitPro1501vc60S:XTPCustomizeSheet.obj
 0001:0005b070       ?OnCustomizeCopyImage@CXTPCustomizeSheet@@IAEXXZ 0045c070 f   ToolkitPro1501vc60S:XTPCustomizeSheet.obj
 0001:0005b3d0       ?OnCustomizePasteImage@CXTPCustomizeSheet@@IAEXXZ 0045c3d0 f   ToolkitPro1501vc60S:XTPCustomizeSheet.obj
 0001:0005b5f0       ?OnCustomizeResetImage@CXTPCustomizeSheet@@IAEXXZ 0045c5f0 f   ToolkitPro1501vc60S:XTPCustomizeSheet.obj
 0001:0005b620       ?OnCustomizeReset@CXTPCustomizeSheet@@IAEXXZ 0045c620 f   ToolkitPro1501vc60S:XTPCustomizeSheet.obj
 0001:0005b640       ?OnInitCommandsPopup@CXTPCustomizeSheet@@IAEXPAVCXTPPopupBar@@@Z 0045c640 f   ToolkitPro1501vc60S:XTPCustomizeSheet.obj
 0001:0005b760       ?OnCmdMsg@CXTPCustomizeSheet@@MAEHIHPAXPAUAFX_CMDHANDLERINFO@@@Z 0045c760 f   ToolkitPro1501vc60S:XTPCustomizeSheet.obj
 0001:0005b7e0       ?OnCustomizeName@CXTPCustomizeSheet@@IAEJIJ@Z 0045c7e0 f   ToolkitPro1501vc60S:XTPCustomizeSheet.obj
 0001:0005b9d0       ?IsAllowChangeStyle@CXTPCustomizeSheet@@ABEHPAVCXTPControl@@@Z 0045c9d0 f   ToolkitPro1501vc60S:XTPCustomizeSheet.obj
 0001:0005ba60       ?OnUpdateCustomizeDefaultStyle@CXTPCustomizeSheet@@IAEXPAVCCmdUI@@@Z 0045ca60 f   ToolkitPro1501vc60S:XTPCustomizeSheet.obj
 0001:0005bad0       ?OnUpdateCustomizeImageAndText@CXTPCustomizeSheet@@IAEXPAVCCmdUI@@@Z 0045cad0 f   ToolkitPro1501vc60S:XTPCustomizeSheet.obj
 0001:0005bb20       ?OnUpdateCustomizeTextOnly@CXTPCustomizeSheet@@IAEXPAVCCmdUI@@@Z 0045cb20 f   ToolkitPro1501vc60S:XTPCustomizeSheet.obj
 0001:0005bb70       ?OnUpdateCustomizeCopyImage@CXTPCustomizeSheet@@IAEXPAVCCmdUI@@@Z 0045cb70 f   ToolkitPro1501vc60S:XTPCustomizeSheet.obj
 0001:0005bb70       ?OnUpdateCustomizeEditImage@CXTPCustomizeSheet@@IAEXPAVCCmdUI@@@Z 0045cb70 f   ToolkitPro1501vc60S:XTPCustomizeSheet.obj
 0001:0005bc00       ?OnUpdateCustomizePasteImage@CXTPCustomizeSheet@@IAEXPAVCCmdUI@@@Z 0045cc00 f   ToolkitPro1501vc60S:XTPCustomizeSheet.obj
 0001:0005bc60       ?OnUpdateCustomizeResetImage@CXTPCustomizeSheet@@IAEXPAVCCmdUI@@@Z 0045cc60 f   ToolkitPro1501vc60S:XTPCustomizeSheet.obj
 0001:0005bc90       ?OnUpdateCustomizeReset@CXTPCustomizeSheet@@IAEXPAVCCmdUI@@@Z 0045cc90 f   ToolkitPro1501vc60S:XTPCustomizeSheet.obj
 0001:0005bce0       ?OnUpdateCustomizeBeginGroup@CXTPCustomizeSheet@@IAEXPAVCCmdUI@@@Z 0045cce0 f   ToolkitPro1501vc60S:XTPCustomizeSheet.obj
 0001:0005bd20       ?OnUpdateCustomizeName@CXTPCustomizeSheet@@IAEXPAVCCmdUI@@@Z 0045cd20 f   ToolkitPro1501vc60S:XTPCustomizeSheet.obj
 0001:0005be10       ?OnGrabFocus@CXTPCustomizeSheet@@IAEXXZ 0045ce10 f   ToolkitPro1501vc60S:XTPCustomizeSheet.obj
 0001:0005be20       ?PreTranslateMessage@CXTPCustomizeSheet@@MAEHPAUtagMSG@@@Z 0045ce20 f   ToolkitPro1501vc60S:XTPCustomizeSheet.obj
 0001:0005be30       ?MessageBoxA@CXTPCustomizeSheet@@QAEHPBDI@Z 0045ce30 f   ToolkitPro1501vc60S:XTPCustomizeSheet.obj
 0001:0005bf20       ??1COleDataObject@@QAE@XZ  0045cf20 f i ToolkitPro1501vc60S:XTPCustomizeSheet.obj
 0001:0005bf30       ??_ECCustomizeEdit@CXTPCustomizeSheet@@WBM@AEPAXI@Z 0045cf30 f i ToolkitPro1501vc60S:XTPCustomizeSheet.obj
 0001:0005bf40       ??0CXTPGroupLine@@QAE@XZ   0045cf40 f   ToolkitPro1501vc60S:XTPCustomizeOptionsPage.obj
 0001:0005bfb0       ??_GCXTPGroupLine@@UAEPAXI@Z 0045cfb0 f i ToolkitPro1501vc60S:XTPCustomizeOptionsPage.obj
 0001:0005bfb0       ??_ECXTPGroupLine@@UAEPAXI@Z 0045cfb0 f i ToolkitPro1501vc60S:XTPCustomizeOptionsPage.obj
 0001:0005bfd0       ??1CXTPGroupLine@@UAE@XZ   0045cfd0 f i ToolkitPro1501vc60S:XTPCustomizeOptionsPage.obj
 0001:0005c020       ?GetMessageMap@CXTPGroupLine@@MBEPBUAFX_MSGMAP@@XZ 0045d020 f   ToolkitPro1501vc60S:XTPCustomizeOptionsPage.obj
 0001:0005c030       ?OnPaint@CXTPGroupLine@@IAEXXZ 0045d030 f   ToolkitPro1501vc60S:XTPCustomizeOptionsPage.obj
 0001:0005c2f0       ??0CXTPCustomizeOptionsPage@@QAE@PAVCXTPCustomizeSheet@@@Z 0045d2f0 f   ToolkitPro1501vc60S:XTPCustomizeOptionsPage.obj
 0001:0005c3d0       ??_ECXTPCustomizeOptionsPage@@UAEPAXI@Z 0045d3d0 f i ToolkitPro1501vc60S:XTPCustomizeOptionsPage.obj
 0001:0005c3d0       ??_GCXTPCustomizeOptionsPage@@UAEPAXI@Z 0045d3d0 f i ToolkitPro1501vc60S:XTPCustomizeOptionsPage.obj
 0001:0005c3f0       ??1CXTPCustomizeOptionsPage@@UAE@XZ 0045d3f0 f   ToolkitPro1501vc60S:XTPCustomizeOptionsPage.obj
 0001:0005c4a0       ?GetCommandBars@CXTPCustomizeOptionsPage@@QBEPAVCXTPCommandBars@@XZ 0045d4a0 f   ToolkitPro1501vc60S:XTPCustomizeOptionsPage.obj
 0001:0005c4c0       ?DoDataExchange@CXTPCustomizeOptionsPage@@MAEXPAVCDataExchange@@@Z 0045d4c0 f   ToolkitPro1501vc60S:XTPCustomizeOptionsPage.obj
 0001:0005c540       ?GetMessageMap@CXTPCustomizeOptionsPage@@MBEPBUAFX_MSGMAP@@XZ 0045d540 f   ToolkitPro1501vc60S:XTPCustomizeOptionsPage.obj
 0001:0005c550       ?AddComboString@CXTPCustomizeOptionsPage@@IAEXI@Z 0045d550 f   ToolkitPro1501vc60S:XTPCustomizeOptionsPage.obj
 0001:0005c5d0       ?OnInitDialog@CXTPCustomizeOptionsPage@@MAEHXZ 0045d5d0 f   ToolkitPro1501vc60S:XTPCustomizeOptionsPage.obj
 0001:0005c750       ?OnCheckFullMenus@CXTPCustomizeOptionsPage@@IAEXXZ 0045d750 f   ToolkitPro1501vc60S:XTPCustomizeOptionsPage.obj
 0001:0005c790       ?OnAnimationChanged@CXTPCustomizeOptionsPage@@IAEXXZ 0045d790 f   ToolkitPro1501vc60S:XTPCustomizeOptionsPage.obj
 0001:0005c7c0       ?OnCheckAfterdelay@CXTPCustomizeOptionsPage@@IAEXXZ 0045d7c0 f   ToolkitPro1501vc60S:XTPCustomizeOptionsPage.obj
 0001:0005c7e0       ?OnCheckLargeicons@CXTPCustomizeOptionsPage@@IAEXXZ 0045d7e0 f   ToolkitPro1501vc60S:XTPCustomizeOptionsPage.obj
 0001:0005c810       ?OnCheckScreenttips@CXTPCustomizeOptionsPage@@IAEXXZ 0045d810 f   ToolkitPro1501vc60S:XTPCustomizeOptionsPage.obj
 0001:0005c850       ?OnCheckShortcuts@CXTPCustomizeOptionsPage@@IAEXXZ 0045d850 f   ToolkitPro1501vc60S:XTPCustomizeOptionsPage.obj
 0001:0005c870       ?OnResetData@CXTPCustomizeOptionsPage@@IAEXXZ 0045d870 f   ToolkitPro1501vc60S:XTPCustomizeOptionsPage.obj
 0001:0005c910       ??_ECXTPCustomizeOptionsPage@@WIM@AEPAXI@Z 0045d910 f i ToolkitPro1501vc60S:XTPCustomizeOptionsPage.obj
 0001:0005c920       ??0XTP_COMMANDBARS_CATEGORYINFO@@QAE@PBDPAVCXTPCommandBars@@@Z 0045d920 f   ToolkitPro1501vc60S:XTPCustomizeCommandsPage.obj
 0001:0005c9b0       ??1XTP_COMMANDBARS_CATEGORYINFO@@QAE@XZ 0045d9b0 f   ToolkitPro1501vc60S:XTPCustomizeCommandsPage.obj
 0001:0005ca00       ?DrawItem@CXTPCustomizeCommandsListBox@@MAEXPAUtagDRAWITEMSTRUCT@@@Z 0045da00 f   ToolkitPro1501vc60S:XTPCustomizeCommandsPage.obj
 0001:0005ca80       ?GetMessageMap@CXTPCustomizeCommandsListBox@@MBEPBUAFX_MSGMAP@@XZ 0045da80 f   ToolkitPro1501vc60S:XTPCustomizeCommandsPage.obj
 0001:0005ca90       ?WindowProc@CXTPCustomizeCommandsListBox@@MAEJIIJ@Z 0045da90 f   ToolkitPro1501vc60S:XTPCustomizeCommandsPage.obj
 0001:0005cc50       ?OnSetFocus@CXTPCustomizeCommandsListBox@@IAEXPAVCWnd@@@Z 0045dc50 f   ToolkitPro1501vc60S:XTPCustomizeCommandsPage.obj
 0001:0005cca0       ?OnLButtonDown@CXTPCustomizeCommandsListBox@@IAEXIVCPoint@@@Z 0045dca0 f   ToolkitPro1501vc60S:XTPCustomizeCommandsPage.obj
 0001:0005cdf0       ?CreateObject@CXTPCustomizeCommandsPage@@SGPAVCObject@@XZ 0045ddf0 f   ToolkitPro1501vc60S:XTPCustomizeCommandsPage.obj
 0001:0005ce50       ?GetRuntimeClass@CXTPCustomizeCommandsPage@@UBEPAUCRuntimeClass@@XZ 0045de50 f   ToolkitPro1501vc60S:XTPCustomizeCommandsPage.obj
 0001:0005ce60       ??0CXTPCustomizeCommandsPage@@QAE@PAVCXTPCustomizeSheet@@@Z 0045de60 f   ToolkitPro1501vc60S:XTPCustomizeCommandsPage.obj
 0001:0005cf20       ??_GCXTPCustomizeCommandsPage@@UAEPAXI@Z 0045df20 f i ToolkitPro1501vc60S:XTPCustomizeCommandsPage.obj
 0001:0005cf20       ??_ECXTPCustomizeCommandsPage@@UAEPAXI@Z 0045df20 f i ToolkitPro1501vc60S:XTPCustomizeCommandsPage.obj
 0001:0005cf40       ??1CXTPCustomizeCommandsPage@@UAE@XZ 0045df40 f   ToolkitPro1501vc60S:XTPCustomizeCommandsPage.obj
 0001:0005d020       ?DoDataExchange@CXTPCustomizeCommandsPage@@MAEXPAVCDataExchange@@@Z 0045e020 f   ToolkitPro1501vc60S:XTPCustomizeCommandsPage.obj
 0001:0005d060       ?FindCategory@CXTPCustomizeCommandsPage@@QBEPAUXTP_COMMANDBARS_CATEGORYINFO@@PBD@Z 0045e060 f   ToolkitPro1501vc60S:XTPCustomizeCommandsPage.obj
 0001:0005d0b0       ?GetCategoryInfo@CXTPCustomizeCommandsPage@@QBEPAUXTP_COMMANDBARS_CATEGORYINFO@@H@Z 0045e0b0 f   ToolkitPro1501vc60S:XTPCustomizeCommandsPage.obj
 0001:0005d0e0       ?AddCategory@CXTPCustomizeCommandsPage@@QAEHPBDPAVCMenu@@H@Z 0045e0e0 f   ToolkitPro1501vc60S:XTPCustomizeCommandsPage.obj
 0001:0005d1a0       ?AddCategories@CXTPCustomizeCommandsPage@@QAEHIH@Z 0045e1a0 f   ToolkitPro1501vc60S:XTPCustomizeCommandsPage.obj
 0001:0005d320       ?InsertBuiltInMenus@CXTPCustomizeCommandsPage@@QAEHIIH@Z 0045e320 f   ToolkitPro1501vc60S:XTPCustomizeCommandsPage.obj
 0001:0005d4f0       ?InsertNewMenuCategory@CXTPCustomizeCommandsPage@@QAEXIH@Z 0045e4f0 f   ToolkitPro1501vc60S:XTPCustomizeCommandsPage.obj
 0001:0005d640       ?InsertCategory@CXTPCustomizeCommandsPage@@QAEPAVCXTPControls@@PBDH@Z 0045e640 f   ToolkitPro1501vc60S:XTPCustomizeCommandsPage.obj
 0001:0005d890       ?InsertAllCommandsCategory@CXTPCustomizeCommandsPage@@QAEXIHH@Z 0045e890 f   ToolkitPro1501vc60S:XTPCustomizeCommandsPage.obj
 0001:0005db50       ?GetMessageMap@CXTPCustomizeCommandsPage@@MBEPBUAFX_MSGMAP@@XZ 0045eb50 f   ToolkitPro1501vc60S:XTPCustomizeCommandsPage.obj
 0001:0005db60       ?OnInitDialog@CXTPCustomizeCommandsPage@@MAEHXZ 0045eb60 f   ToolkitPro1501vc60S:XTPCustomizeCommandsPage.obj
 0001:0005dd30       ?OnDestroy@CXTPCustomizeCommandsPage@@IAEXXZ 0045ed30 f   ToolkitPro1501vc60S:XTPCustomizeCommandsPage.obj
 0001:0005dd60       ?OnCategoriesSelectionChanged@CXTPCustomizeCommandsPage@@IAEXXZ 0045ed60 f   ToolkitPro1501vc60S:XTPCustomizeCommandsPage.obj
 0001:0005de20       ??1?$CArray@PAUXTP_COMMANDBARS_CATEGORYINFO@@PAU1@@@UAE@XZ 0045ee20 f i ToolkitPro1501vc60S:XTPCustomizeCommandsPage.obj
 0001:0005de70       ??_E?$CArray@PAUXTP_COMMANDBARS_CATEGORYINFO@@PAU1@@@UAEPAXI@Z 0045ee70 f i ToolkitPro1501vc60S:XTPCustomizeCommandsPage.obj
 0001:0005de70       ??_G?$CArray@PAUXTP_COMMANDBARS_CATEGORYINFO@@PAU1@@@UAEPAXI@Z 0045ee70 f i ToolkitPro1501vc60S:XTPCustomizeCommandsPage.obj
 0001:0005de90       ?ConstructElements@@YGXPAPAVCXTPControl@@H@Z 0045ee90 f i ToolkitPro1501vc60S:XTPCustomizeCommandsPage.obj
 0001:0005de90       ?ConstructElements@@YGXPAPAVCXTPToolBar@@H@Z 0045ee90 f i ToolkitPro1501vc60S:XTPCustomizeCommandsPage.obj
 0001:0005de90       ?ConstructElements@@YGXPAMH@Z 0045ee90 f i ToolkitPro1501vc60S:XTPCustomizeCommandsPage.obj
 0001:0005de90       ?ConstructElements@@YGXPAPAUXTP_IMAGERESOURCE_INFO@@H@Z 0045ee90 f i ToolkitPro1501vc60S:XTPCustomizeCommandsPage.obj
 0001:0005de90       ?ConstructElements@@YGXPAPAUHKL__@@H@Z 0045ee90 f i ToolkitPro1501vc60S:XTPCustomizeCommandsPage.obj
 0001:0005de90       ?ConstructElements@@YGXPAPAVCXTPRibbonGroup@@H@Z 0045ee90 f i ToolkitPro1501vc60S:XTPCustomizeCommandsPage.obj
 0001:0005de90       ?ConstructElements@@YGXPAPAVCXTPMarkupObject@@H@Z 0045ee90 f i ToolkitPro1501vc60S:XTPCustomizeCommandsPage.obj
 0001:0005de90       ?ConstructElements@@YGXPAPAVCXTPControlAction@@H@Z 0045ee90 f i ToolkitPro1501vc60S:XTPCustomizeCommandsPage.obj
 0001:0005de90       ?ConstructElements@@YGXPAPAVCShadowWnd@CXTPShadowManager@@H@Z 0045ee90 f i ToolkitPro1501vc60S:XTPCustomizeCommandsPage.obj
 0001:0005de90       ?ConstructElements@@YGXPAPAVCXTPImageManagerIconSet@@H@Z 0045ee90 f i ToolkitPro1501vc60S:XTPCustomizeCommandsPage.obj
 0001:0005de90       ?ConstructElements@@YGXPAPAVCXTPDockingPaneBase@@H@Z 0045ee90 f i ToolkitPro1501vc60S:XTPCustomizeCommandsPage.obj
 0001:0005de90       ?ConstructElements@@YGXPAHH@Z 0045ee90 f i ToolkitPro1501vc60S:XTPCustomizeCommandsPage.obj
 0001:0005de90       ?ConstructElements@@YGXPAPAUXTP_COMMANDBARS_CATEGORYINFO@@H@Z 0045ee90 f i ToolkitPro1501vc60S:XTPCustomizeCommandsPage.obj
 0001:0005de90       ?ConstructElements@@YGXPAV?$XTP_MAPHANDLER_T@$03@@H@Z 0045ee90 f i ToolkitPro1501vc60S:XTPCustomizeCommandsPage.obj
 0001:0005deb0       ??_ECXTPCustomizeCommandsPage@@WIM@AEPAXI@Z 0045eeb0 f i ToolkitPro1501vc60S:XTPCustomizeCommandsPage.obj
 0001:0005dec0       ??_GCListBox@@UAEPAXI@Z    0045eec0 f i ToolkitPro1501vc60S:XTPCustomizeCommandsPage.obj
 0001:0005dec0       ??_ECListBox@@UAEPAXI@Z    0045eec0 f i ToolkitPro1501vc60S:XTPCustomizeCommandsPage.obj
 0001:0005dee0       ??0CXTPHyperLink@@QAE@XZ   0045eee0 f   ToolkitPro1501vc60S:XTPHyperLink.obj
 0001:0005dfc0       ?SetColors@CXTPHyperLink@@UAEXKKK@Z 0045efc0 f i ToolkitPro1501vc60S:XTPHyperLink.obj
 0001:0005dff0       ?GetLinkColor@CXTPHyperLink@@UBEKXZ 0045eff0 f i ToolkitPro1501vc60S:XTPHyperLink.obj
 0001:0005e000       ?GetHoverColor@CXTPHyperLink@@UBEKXZ 0045f000 f i ToolkitPro1501vc60S:XTPHyperLink.obj
 0001:0005e010       ?SetVisited@CXTPHyperLink@@UAEX_N@Z 0045f010 f i ToolkitPro1501vc60S:XTPHyperLink.obj
 0001:0005e030       ?GetVisited@CXTPHyperLink@@UBE_NXZ 0045f030 f i ToolkitPro1501vc60S:XTPHyperLink.obj
 0001:0005e040       ?SetLinkCursor@CXTPHyperLink@@UAEXPAUHICON__@@@Z 0045f040 f i ToolkitPro1501vc60S:XTPHyperLink.obj
 0001:0005e050       ?SetUnderline@CXTPHyperLink@@UAEX_N@Z 0045f050 f i ToolkitPro1501vc60S:XTPHyperLink.obj
 0001:0005e070       ?GetUnderline@CXTPHyperLink@@UBE_NXZ 0045f070 f i ToolkitPro1501vc60S:XTPHyperLink.obj
 0001:0005e080       ?IsTextControl@CXTPHyperLink@@UAE_NXZ 0045f080 f i ToolkitPro1501vc60S:XTPHyperLink.obj
 0001:0005e0a0       ?SetBackColor@CXTPHyperLink@@UAEXK@Z 0045f0a0 f i ToolkitPro1501vc60S:XTPHyperLink.obj
 0001:0005e0c0       ?GetBackColor@CXTPHyperLink@@UBEKXZ 0045f0c0 f i ToolkitPro1501vc60S:XTPHyperLink.obj
 0001:0005e0e0       ??_ECXTPHyperLink@@UAEPAXI@Z 0045f0e0 f i ToolkitPro1501vc60S:XTPHyperLink.obj
 0001:0005e0e0       ??_GCXTPHyperLink@@UAEPAXI@Z 0045f0e0 f i ToolkitPro1501vc60S:XTPHyperLink.obj
 0001:0005e100       ??1CXTPHyperLink@@UAE@XZ   0045f100 f   ToolkitPro1501vc60S:XTPHyperLink.obj
 0001:0005e190       ?GetRuntimeClass@CXTPHyperLink@@UBEPAUCRuntimeClass@@XZ 0045f190 f   ToolkitPro1501vc60S:XTPHyperLink.obj
 0001:0005e1a0       ?GetMessageMap@CXTPHyperLink@@MBEPBUAFX_MSGMAP@@XZ 0045f1a0 f   ToolkitPro1501vc60S:XTPHyperLink.obj
 0001:0005e1b0       ?OnSetCursor@CXTPHyperLink@@IAEHPAVCWnd@@II@Z 0045f1b0 f   ToolkitPro1501vc60S:XTPHyperLink.obj
 0001:0005e1f0       ?CreateFontA@CXTPHyperLink@@MAEHAAVCFont@@H@Z 0045f1f0 f   ToolkitPro1501vc60S:XTPHyperLink.obj
 0001:0005e2c0       ?InitFont@CXTPHyperLink@@MAE_NXZ 0045f2c0 f   ToolkitPro1501vc60S:XTPHyperLink.obj
 0001:0005e330       ?SetURL@CXTPHyperLink@@UAEXPBD@Z 0045f330 f   ToolkitPro1501vc60S:XTPHyperLink.obj
 0001:0005e3d0       ?Init@CXTPHyperLink@@MAE_NXZ 0045f3d0 f   ToolkitPro1501vc60S:XTPHyperLink.obj
 0001:0005e440       ?PreSubclassWindow@CXTPHyperLink@@MAEXXZ 0045f440 f   ToolkitPro1501vc60S:XTPHyperLink.obj
 0001:0005e460       ?OnCreate@CXTPHyperLink@@IAEHPAUtagCREATESTRUCTA@@@Z 0045f460 f   ToolkitPro1501vc60S:XTPHyperLink.obj
 0001:0005e490       ?PreCreateWindow@CXTPHyperLink@@MAEHAAUtagCREATESTRUCTA@@@Z 0045f490 f   ToolkitPro1501vc60S:XTPHyperLink.obj
 0001:0005e4c0       ?ReportError@CXTPHyperLink@@UAEXH@Z 0045f4c0 f   ToolkitPro1501vc60S:XTPHyperLink.obj
 0001:0005e730       ?GotoURL@CXTPHyperLink@@UAE_NPBDH00@Z 0045f730 f   ToolkitPro1501vc60S:XTPHyperLink.obj
 0001:0005e780       ?CtlColor@CXTPHyperLink@@IAEPAUHBRUSH__@@PAVCDC@@I@Z 0045f780 f   ToolkitPro1501vc60S:XTPHyperLink.obj
 0001:0005e820       ?OnMouseMove@CXTPHyperLink@@IAEXIVCPoint@@@Z 0045f820 f   ToolkitPro1501vc60S:XTPHyperLink.obj
 0001:0005e860       ?OnTimer@CXTPHyperLink@@IAEXI@Z 0045f860 f   ToolkitPro1501vc60S:XTPHyperLink.obj
 0001:0005e8c0       ?PreTranslateMessage@CXTPHyperLink@@MAEHPAUtagMSG@@@Z 0045f8c0 f   ToolkitPro1501vc60S:XTPHyperLink.obj
 0001:0005e910       ?OnEraseBkgnd@CXTPHyperLink@@IAEHPAVCDC@@@Z 0045f910 f   ToolkitPro1501vc60S:XTPHyperLink.obj
 0001:0005e930       ?OnPaint@CXTPHyperLink@@IAEXXZ 0045f930 f   ToolkitPro1501vc60S:XTPHyperLink.obj
 0001:0005ea30       ?OnWindowPosChanged@CXTPHyperLink@@IAEXPAUtagWINDOWPOS@@@Z 0045fa30 f   ToolkitPro1501vc60S:XTPHyperLink.obj
 0001:0005ea50       ?OnClicked@CXTPHyperLink@@IAEHXZ 0045fa50 f   ToolkitPro1501vc60S:XTPHyperLink.obj
 0001:0005ead0       ?IsLinkHot@CXTPHyperLink@@UAE_NXZ 0045fad0 f   ToolkitPro1501vc60S:XTPHyperLink.obj
 0001:0005ec90       ?OnKeyDown@CXTPHyperLink@@IAEXIII@Z 0045fc90 f   ToolkitPro1501vc60S:XTPHyperLink.obj
 0001:0005ecd0       ?OnGetDlgCode@CXTPHyperLink@@IAEIXZ 0045fcd0 f   ToolkitPro1501vc60S:XTPHyperLink.obj
 0001:0005ed20       ??0CXTPShortcutManagerAccel@@QAE@XZ 0045fd20 f   ToolkitPro1501vc60S:XTPShortcutManager.obj
 0001:0005ed50       ??0CXTPShortcutManagerAccel@@QAE@PAUtagACCEL@@@Z 0045fd50 f   ToolkitPro1501vc60S:XTPShortcutManager.obj
 0001:0005ed90       ??0CXTPShortcutManagerAccel@@QAE@ABUXTP_SHORTCUTMANAGER_ACCEL@@@Z 0045fd90 f   ToolkitPro1501vc60S:XTPShortcutManager.obj
 0001:0005edc0       ??0CXTPShortcutManagerAccelTable@@QAE@PAVCXTPShortcutManager@@@Z 0045fdc0 f   ToolkitPro1501vc60S:XTPShortcutManager.obj
 0001:0005ede0       ??1CXTPShortcutManagerAccelTable@@QAE@XZ 0045fde0 f   ToolkitPro1501vc60S:XTPShortcutManager.obj
 0001:0005ee40       ?RemoveAll@CXTPShortcutManagerAccelTable@@QAEXXZ 0045fe40 f   ToolkitPro1501vc60S:XTPShortcutManager.obj
 0001:0005ee90       ?Add@CXTPShortcutManagerAccelTable@@QAEXABUXTP_SHORTCUTMANAGER_ACCEL@@@Z 0045fe90 f   ToolkitPro1501vc60S:XTPShortcutManager.obj
 0001:0005f050       ?CopyAccelTable@CXTPShortcutManagerAccelTable@@QAEXPAUtagACCEL@@H@Z 00460050 f   ToolkitPro1501vc60S:XTPShortcutManager.obj
 0001:0005f0d0       ?CopyAccels@CXTPShortcutManagerAccelTable@@QBEPAUXTP_SHORTCUTMANAGER_ACCEL@@XZ 004600d0 f   ToolkitPro1501vc60S:XTPShortcutManager.obj
 0001:0005f140       ?GetAt@CXTPShortcutManagerAccelTable@@QBEPAVCXTPShortcutManagerAccel@@H@Z 00460140 f   ToolkitPro1501vc60S:XTPShortcutManager.obj
 0001:0005f160       ?CopyAccelTable@CXTPShortcutManagerAccelTable@@QAEXPAV1@@Z 00460160 f   ToolkitPro1501vc60S:XTPShortcutManager.obj
 0001:0005f1b0       ??0CKeyNameText@CXTPShortcutManager@@QAE@XZ 004601b0 f   ToolkitPro1501vc60S:XTPShortcutManager.obj
 0001:0005f230       ?Parse@CKeyNameText@CXTPShortcutManager@@QAEGPBD@Z 00460230 f   ToolkitPro1501vc60S:XTPShortcutManager.obj
 0001:0005f330       ?Translate@CKeyNameText@CXTPShortcutManager@@QAE?AVCString@@I@Z 00460330 f   ToolkitPro1501vc60S:XTPShortcutManager.obj
 0001:0005f400       ?SetAt@CKeyNameText@CXTPShortcutManager@@QAEXIPBD@Z 00460400 f   ToolkitPro1501vc60S:XTPShortcutManager.obj
 0001:0005f430       ??0CXTPShortcutManager@@QAE@PAVCXTPCommandBars@@@Z 00460430 f   ToolkitPro1501vc60S:XTPShortcutManager.obj
 0001:0005f4e0       ?GetDefaultAccelerator@CXTPShortcutManager@@UBEPAVCXTPShortcutManagerAccelTable@@XZ 004604e0 f i ToolkitPro1501vc60S:XTPShortcutManager.obj
 0001:0005f4f0       ??_GCXTPShortcutManager@@UAEPAXI@Z 004604f0 f i ToolkitPro1501vc60S:XTPShortcutManager.obj
 0001:0005f4f0       ??_ECXTPShortcutManager@@UAEPAXI@Z 004604f0 f i ToolkitPro1501vc60S:XTPShortcutManager.obj
 0001:0005f510       ??1CXTPShortcutManager@@UAE@XZ 00460510 f   ToolkitPro1501vc60S:XTPShortcutManager.obj
 0001:0005f620       ?Reset@CXTPShortcutManager@@UAEXXZ 00460620 f   ToolkitPro1501vc60S:XTPShortcutManager.obj
 0001:0005f640       ?Format@CXTPShortcutManager@@UAE?AVCString@@PAVCXTPShortcutManagerAccel@@PAH@Z 00460640 f   ToolkitPro1501vc60S:XTPShortcutManager.obj
 0001:0005f6f0       ?OnPreviewEditKey@CXTPShortcutManager@@UAEHPAVCXTPShortcutManagerAccel@@@Z 004606f0 f   ToolkitPro1501vc60S:XTPShortcutManager.obj
 0001:0005f720       ?DisableShortcuts@CXTPShortcutManager@@QAEXH@Z 00460720 f   ToolkitPro1501vc60S:XTPShortcutManager.obj
 0001:0005f740       ?IsAccelMessage@CXTPShortcutManager@@ABEHAAUSHORTCUTACCEL@XTP_SHORTCUTMANAGER_ACCEL@@HPAUtagMSG@@@Z 00460740 f   ToolkitPro1501vc60S:XTPShortcutManager.obj
 0001:0005f7c0       ?GetAccelKeyState@CXTPShortcutManager@@ABEHXZ 004607c0 f   ToolkitPro1501vc60S:XTPShortcutManager.obj
 0001:0005f830       ?TranslateAcceleratorA@CXTPShortcutManager@@QAEHPAUtagMSG@@@Z 00460830 f   ToolkitPro1501vc60S:XTPShortcutManager.obj
 0001:0005fbf0       ?FindDefaultFrameAccelerator@CXTPShortcutManager@@QAEHHAAVCString@@@Z 00460bf0 f   ToolkitPro1501vc60S:XTPShortcutManager.obj
 0001:0005fdb0       ?FindDefaultAccelerator@CXTPShortcutManager@@UAEHHAAVCString@@@Z 00460db0 f   ToolkitPro1501vc60S:XTPShortcutManager.obj
 0001:0005ff50       ??0CKeyHelper@CXTPShortcutManager@@QAE@PBVCXTPShortcutManagerAccel@@PAV1@@Z 00460f50 f   ToolkitPro1501vc60S:XTPShortcutManager.obj
 0001:0005ff70       ??_ECKeyHelper@CXTPShortcutManager@@UAEPAXI@Z 00460f70 f i ToolkitPro1501vc60S:XTPShortcutManager.obj
 0001:0005ff70       ??_GCKeyHelper@CXTPShortcutManager@@UAEPAXI@Z 00460f70 f i ToolkitPro1501vc60S:XTPShortcutManager.obj
 0001:0005ff90       ??1CKeyHelper@CXTPShortcutManager@@UAE@XZ 00460f90 f   ToolkitPro1501vc60S:XTPShortcutManager.obj
 0001:0005ffa0       ?Priority@CKeyHelper@CXTPShortcutManager@@QAEHXZ 00460fa0 f   ToolkitPro1501vc60S:XTPShortcutManager.obj
 0001:0005ffd0       ?Format@CKeyHelper@CXTPShortcutManager@@QBEXAAVCString@@@Z 00460fd0 f   ToolkitPro1501vc60S:XTPShortcutManager.obj
 0001:000600c0       ?Format@CKeyHelper@CXTPShortcutManager@@QBE?AVCString@@PBUSHORTCUTACCEL@XTP_SHORTCUTMANAGER_ACCEL@@@Z 004610c0 f   ToolkitPro1501vc60S:XTPShortcutManager.obj
 0001:00060240       ?AddVirtKeyStr@CKeyHelper@CXTPShortcutManager@@IBEXAAVCString@@IH@Z 00461240 f   ToolkitPro1501vc60S:XTPShortcutManager.obj
 0001:00060350       ?GetLocalKeyNameText@CKeyHelper@CXTPShortcutManager@@SA?AVCString@@I@Z 00461350 f   ToolkitPro1501vc60S:XTPShortcutManager.obj
 0001:00060490       ?FindAccelPos@CXTPShortcutManager@@SAHPBD@Z 00461490 f   ToolkitPro1501vc60S:XTPShortcutManager.obj
 0001:000604d0       ?CompareAccelKey@CXTPShortcutManager@@SAHDI@Z 004614d0 f   ToolkitPro1501vc60S:XTPShortcutManager.obj
 0001:00060740       ?GetKeyNameTextA@CXTPShortcutManager@@UAE?AVCString@@I@Z 00461740 f   ToolkitPro1501vc60S:XTPShortcutManager.obj
 0001:00060860       ?ToUpper@CXTPShortcutManager@@SADD@Z 00461860 f   ToolkitPro1501vc60S:XTPShortcutManager.obj
 0001:00060880       ?UpdateAcellTable@CXTPShortcutManager@@QAEXPAUtagACCEL@@H@Z 00461880 f   ToolkitPro1501vc60S:XTPShortcutManager.obj
 0001:000608a0       ?UpdateAcellTable@CXTPShortcutManager@@QAEXPAUXTP_SHORTCUTMANAGER_ACCEL@@H@Z 004618a0 f   ToolkitPro1501vc60S:XTPShortcutManager.obj
 0001:000608d0       ?SaveShortcuts@CXTPShortcutManager@@QAEXPBD@Z 004618d0 f   ToolkitPro1501vc60S:XTPShortcutManager.obj
 0001:00060940       ?LoadShortcuts@CXTPShortcutManager@@QAEXPBD@Z 00461940 f   ToolkitPro1501vc60S:XTPShortcutManager.obj
 0001:00060a30       ?ParseShortcutVirtKey@CXTPShortcutManager@@ABEHAAVCString@@H@Z 00461a30 f   ToolkitPro1501vc60S:XTPShortcutManager.obj
 0001:00060b60       ?ParseShortcut@CXTPShortcutManager@@ABEHVCString@@AAEAAG@Z 00461b60 f   ToolkitPro1501vc60S:XTPShortcutManager.obj
 0001:00060c70       ?ParseShortcut@CXTPShortcutManager@@QAEHVCString@@PAVCXTPShortcutManagerAccel@@@Z 00461c70 f   ToolkitPro1501vc60S:XTPShortcutManager.obj
 0001:00060dc0       ?DoPropExchange@CXTPShortcutManager@@UAEXPAVCXTPPropExchange@@@Z 00461dc0 f   ToolkitPro1501vc60S:XTPShortcutManager.obj
 0001:00061270       ??1CXTPPropExchangeEnumeratorPtr@@QAE@XZ 00462270 f i ToolkitPro1501vc60S:XTPShortcutManager.obj
 0001:00061280       ??1?$CArray@PAVCXTPShortcutManagerAccel@@PAV1@@@UAE@XZ 00462280 f i ToolkitPro1501vc60S:XTPShortcutManager.obj
 0001:000612d0       ?SetAt@?$CMap@GGVCString@@V1@@@QAEXGVCString@@@Z 004622d0 f i ToolkitPro1501vc60S:XTPShortcutManager.obj
 0001:00061410       ??1?$CMap@GGVCString@@V1@@@UAE@XZ 00462410 f i ToolkitPro1501vc60S:XTPShortcutManager.obj
 0001:000614b0       ?Serialize@?$CMap@GGVCString@@V1@@@UAEXAAVCArchive@@@Z 004624b0 f i ToolkitPro1501vc60S:XTPShortcutManager.obj
 0001:000615e0       ??1?$CArray@PAUHKL__@@AAPAU1@@@UAE@XZ 004625e0 f i ToolkitPro1501vc60S:XTPShortcutManager.obj
 0001:00061630       ??1?$CArray@UtagACCEL@@AAU1@@@UAE@XZ 00462630 f i ToolkitPro1501vc60S:XTPShortcutManager.obj
 0001:00061680       ?Serialize@?$CArray@UtagACCEL@@AAU1@@@UAEXAAVCArchive@@@Z 00462680 f i ToolkitPro1501vc60S:XTPShortcutManager.obj
 0001:00061830       ??_E?$CArray@PAVCXTPShortcutManagerAccel@@PAV1@@@UAEPAXI@Z 00462830 f i ToolkitPro1501vc60S:XTPShortcutManager.obj
 0001:00061830       ??_G?$CArray@PAVCXTPShortcutManagerAccel@@PAV1@@@UAEPAXI@Z 00462830 f i ToolkitPro1501vc60S:XTPShortcutManager.obj
 0001:00061850       ??_E?$CMap@GGVCString@@V1@@@UAEPAXI@Z 00462850 f i ToolkitPro1501vc60S:XTPShortcutManager.obj
 0001:00061850       ??_G?$CMap@GGVCString@@V1@@@UAEPAXI@Z 00462850 f i ToolkitPro1501vc60S:XTPShortcutManager.obj
 0001:00061870       ??_G?$CArray@PAUHKL__@@AAPAU1@@@UAEPAXI@Z 00462870 f i ToolkitPro1501vc60S:XTPShortcutManager.obj
 0001:00061870       ??_E?$CArray@PAUHKL__@@AAPAU1@@@UAEPAXI@Z 00462870 f i ToolkitPro1501vc60S:XTPShortcutManager.obj
 0001:00061890       ??_E?$CArray@UtagACCEL@@AAU1@@@UAEPAXI@Z 00462890 f i ToolkitPro1501vc60S:XTPShortcutManager.obj
 0001:00061890       ??_G?$CArray@UtagACCEL@@AAU1@@@UAEPAXI@Z 00462890 f i ToolkitPro1501vc60S:XTPShortcutManager.obj
 0001:000618b0       ?SetSize@?$CArray@UtagACCEL@@AAU1@@@QAEXHH@Z 004628b0 f i ToolkitPro1501vc60S:XTPShortcutManager.obj
 0001:00061a10       ??0CToolBarInfo@CXTPToolBar@@QAE@XZ 00462a10 f   ToolkitPro1501vc60S:XTPDockState.obj
 0001:00061a70       ?SaveState@CToolBarInfo@CXTPToolBar@@QAEHPBDH@Z 00462a70 f   ToolkitPro1501vc60S:XTPDockState.obj
 0001:00061c60       ?LoadState@CToolBarInfo@CXTPToolBar@@QAEHPBDHPAVCXTPDockState@@@Z 00462c60 f   ToolkitPro1501vc60S:XTPDockState.obj
 0001:00061ea0       ?ScalePoint@CXTPDockState@@QAEXAAVCPoint@@@Z 00462ea0 f   ToolkitPro1501vc60S:XTPDockState.obj
 0001:00061f30       ?ScaleRectPos@CXTPDockState@@QAEXAAVCRect@@@Z 00462f30 f   ToolkitPro1501vc60S:XTPDockState.obj
 0001:00061fe0       ??0CXTPDockState@@QAE@XZ   00462fe0 f   ToolkitPro1501vc60S:XTPDockState.obj
 0001:00062020       ??1CXTPDockState@@QAE@XZ   00463020 f   ToolkitPro1501vc60S:XTPDockState.obj
 0001:00062080       ?Clear@CXTPDockState@@AAEXXZ 00463080 f   ToolkitPro1501vc60S:XTPDockState.obj
 0001:000620d0       ?SaveState@CXTPDockState@@QAEXPBD@Z 004630d0 f   ToolkitPro1501vc60S:XTPDockState.obj
 0001:00062180       ?LoadState@CXTPDockState@@QAEXPBD@Z 00463180 f   ToolkitPro1501vc60S:XTPDockState.obj
 0001:000623a0       ?GetScreenSize@CXTPDockState@@AAE?AVCSize@@XZ 004633a0 f   ToolkitPro1501vc60S:XTPDockState.obj
 0001:000623c0       ?SetScreenSize@CXTPDockState@@AAEXAAVCSize@@@Z 004633c0 f   ToolkitPro1501vc60S:XTPDockState.obj
 0001:00062410       ?GetBarInfo@CXTPToolBar@@QAEXPAVCToolBarInfo@1@@Z 00463410 f   ToolkitPro1501vc60S:XTPDockState.obj
 0001:00062520       ?SetBarInfo@CXTPToolBar@@QAEXPAVCToolBarInfo@1@@Z 00463520 f   ToolkitPro1501vc60S:XTPDockState.obj
 0001:00062610       ?GetIsolatedFileName@CXTPCommandBars@@IAE?AVCString@@ABV2@@Z 00463610 f   ToolkitPro1501vc60S:XTPDockState.obj
 0001:00062820       ?GetControlsFileName@CXTPCommandBars@@IAEHAAVCString@@PBD@Z 00463820 f   ToolkitPro1501vc60S:XTPDockState.obj
 0001:00062940       ?SaveBarState@CXTPCommandBars@@QAEXPBDH@Z 00463940 f   ToolkitPro1501vc60S:XTPDockState.obj
 0001:00062cd0       ??_GCXTPCommandBarList@@UAEPAXI@Z 00463cd0 f i ToolkitPro1501vc60S:XTPDockState.obj
 0001:00062cd0       ??_ECXTPCommandBarList@@UAEPAXI@Z 00463cd0 f i ToolkitPro1501vc60S:XTPDockState.obj
 0001:00062cf0       ?_LoadControlsPart@CXTPCommandBars@@IAEXAAVCFile@@PAUXTP_COMMANDBARS_PROPEXCHANGE_PARAM@@@Z 00463cf0 f   ToolkitPro1501vc60S:XTPDockState.obj
 0001:00062e20       ?LoadBarState@CXTPCommandBars@@QAEXPBDH@Z 00463e20 f   ToolkitPro1501vc60S:XTPDockState.obj
 0001:00063110       ?GetStatusBar@CXTPCommandBars@@QBEPAVCXTPStatusBar@@XZ 00464110 f   ToolkitPro1501vc60S:XTPDockState.obj
 0001:00063130       ?SaveDockBarsState@CXTPCommandBars@@IAEXPBD@Z 00464130 f   ToolkitPro1501vc60S:XTPDockState.obj
 0001:00063290       ?LoadDockBarsState@CXTPCommandBars@@IAEXPBD@Z 00464290 f   ToolkitPro1501vc60S:XTPDockState.obj
 0001:000635e0       ?GetDockState@CXTPCommandBars@@IAEXAAVCXTPDockState@@@Z 004645e0 f   ToolkitPro1501vc60S:XTPDockState.obj
 0001:000637b0       ?SetDockState@CXTPCommandBars@@IAEXAAVCXTPDockState@@@Z 004647b0 f   ToolkitPro1501vc60S:XTPDockState.obj
 0001:00063820       ?GenerateCommandBarList@CXTPCommandBars@@MAEXPAVCXTPCommandBarList@@PAUXTP_COMMANDBARS_PROPEXCHANGE_PARAM@@@Z 00464820 f   ToolkitPro1501vc60S:XTPDockState.obj
 0001:000638f0       ?GenerateCommandBarList@CXTPCommandBar@@MAEXAAKPAVCXTPCommandBarList@@PAUXTP_COMMANDBARS_PROPEXCHANGE_PARAM@@@Z 004648f0 f   ToolkitPro1501vc60S:XTPDockState.obj
 0001:00063960       ?GenerateCommandBarList@CXTPMenuBar@@MAEXAAKPAVCXTPCommandBarList@@PAUXTP_COMMANDBARS_PROPEXCHANGE_PARAM@@@Z 00464960 f   ToolkitPro1501vc60S:XTPDockState.obj
 0001:000639d0       ?GenerateCommandBarList@CXTPControl@@MAEXAAKPAVCXTPCommandBarList@@PAUXTP_COMMANDBARS_PROPEXCHANGE_PARAM@@@Z 004649d0 f   ToolkitPro1501vc60S:XTPDockState.obj
 0001:00063a00       ?GenerateCommandBarList@CXTPControls@@IAEXAAKPAVCXTPCommandBarList@@PAUXTP_COMMANDBARS_PROPEXCHANGE_PARAM@@@Z 00464a00 f   ToolkitPro1501vc60S:XTPDockState.obj
 0001:00063a70       ?SaveCommandBarList@CXTPCommandBars@@MAEHPAVCXTPPropExchange@@PAVCXTPCommandBarList@@@Z 00464a70 f   ToolkitPro1501vc60S:XTPDockState.obj
 0001:00063ba0       ?LoadCommandBarList@CXTPCommandBars@@MAEHPAVCXTPPropExchange@@PAVCXTPCommandBarList@@@Z 00464ba0 f   ToolkitPro1501vc60S:XTPDockState.obj
 0001:00063d10       ?MergeToolBar@CXTPToolBar@@MAEXPAVCXTPCommandBar@@H@Z 00464d10 f   ToolkitPro1501vc60S:XTPDockState.obj
 0001:00063eb0       ?RestoreCommandBarList@CXTPCommandBars@@MAEXPAVCXTPCommandBarList@@H@Z 00464eb0 f   ToolkitPro1501vc60S:XTPDockState.obj
 0001:00064070       ?RestoreCommandBarList@CXTPCommandBar@@MAEXPAVCXTPCommandBarList@@@Z 00465070 f   ToolkitPro1501vc60S:XTPDockState.obj
 0001:00064090       ?RestoreCommandBarList@CXTPMenuBar@@MAEXPAVCXTPCommandBarList@@@Z 00465090 f   ToolkitPro1501vc60S:XTPDockState.obj
 0001:000640f0       ?RestoreCommandBarList@CXTPControlPopup@@MAEXPAVCXTPCommandBarList@@@Z 004650f0 f   ToolkitPro1501vc60S:XTPDockState.obj
 0001:00064140       ?RestoreCommandBarList@CXTPControls@@IAEXPAVCXTPCommandBarList@@@Z 00465140 f   ToolkitPro1501vc60S:XTPDockState.obj
 0001:00064190       ?DoPropExchange@CXTPCommandBar@@UAEXPAVCXTPPropExchange@@@Z 00465190 f   ToolkitPro1501vc60S:XTPDockState.obj
 0001:00064360       ?DoPropExchange@CXTPToolBar@@MAEXPAVCXTPPropExchange@@@Z 00465360 f   ToolkitPro1501vc60S:XTPDockState.obj
 0001:00064420       ?DoPropExchange@CXTPMenuBar@@MAEXPAVCXTPPropExchange@@@Z 00465420 f   ToolkitPro1501vc60S:XTPDockState.obj
 0001:00064700       ?DoPropExchange@CXTPPopupBar@@MAEXPAVCXTPPropExchange@@@Z 00465700 f   ToolkitPro1501vc60S:XTPDockState.obj
 0001:00064810       ?ShouldSerializeControl@CXTPControls@@UAEHPAVCXTPControl@@@Z 00465810 f   ToolkitPro1501vc60S:XTPDockState.obj
 0001:00064830       ?DoPropExchange@CXTPControls@@UAEXPAVCXTPPropExchange@@@Z 00465830 f   ToolkitPro1501vc60S:XTPDockState.obj
 0001:00064c30       ?DoPropExchange@CXTPControl@@UAEXPAVCXTPPropExchange@@@Z 00465c30 f   ToolkitPro1501vc60S:XTPDockState.obj
 0001:00064ff0       ?DoPropExchange@CXTPControlButton@@UAEXPAVCXTPPropExchange@@@Z 00465ff0 f   ToolkitPro1501vc60S:XTPDockState.obj
 0001:00065020       ?DoPropExchange@CXTPControlPopup@@UAEXPAVCXTPPropExchange@@@Z 00466020 f   ToolkitPro1501vc60S:XTPDockState.obj
 0001:000650b0       ?DoPropExchange@CXTPControlComboBox@@UAEXPAVCXTPPropExchange@@@Z 004660b0 f   ToolkitPro1501vc60S:XTPDockState.obj
 0001:000651e0       ?DoPropExchange@CXTPControlEdit@@UAEXPAVCXTPPropExchange@@@Z 004661e0 f   ToolkitPro1501vc60S:XTPDockState.obj
 0001:00065320       ??1?$CArray@PAVCToolBarInfo@CXTPToolBar@@PAV12@@@UAE@XZ 00466320 f i ToolkitPro1501vc60S:XTPDockState.obj
 0001:00065370       ?Serialize@?$CArray@PAVCXTPMarkupObject@@PAV1@@@UAEXAAVCArchive@@@Z 00466370 f i ToolkitPro1501vc60S:XTPDockState.obj
 0001:00065370       ?Serialize@?$CArray@PAUCItem@CXTPDockingPaneWindowSelect@@PAU12@@@UAEXAAVCArchive@@@Z 00466370 f i ToolkitPro1501vc60S:XTPDockState.obj
 0001:00065370       ?Serialize@?$CArray@PAVCButton@@PAV1@@@UAEXAAVCArchive@@@Z 00466370 f i ToolkitPro1501vc60S:XTPDockState.obj
 0001:00065370       ?Serialize@?$CArray@PAUXTP_IMAGERESOURCE_INFO@@PAU1@@@UAEXAAVCArchive@@@Z 00466370 f i ToolkitPro1501vc60S:XTPDockState.obj
 0001:00065370       ?Serialize@?$CArray@PAVCToolBarInfo@CXTPToolBar@@PAV12@@@UAEXAAVCArchive@@@Z 00466370 f i ToolkitPro1501vc60S:XTPDockState.obj
 0001:00065370       ?Serialize@?$CArray@PAUXTP_COMMANDBARS_CATEGORYINFO@@PAU1@@@UAEXAAVCArchive@@@Z 00466370 f i ToolkitPro1501vc60S:XTPDockState.obj
 0001:00065370       ?Serialize@?$CArray@PAVCAutoHidePanelTabManager@CXTPDockingPaneAutoHidePanel@@PAV12@@@UAEXAAVCArchive@@@Z 00466370 f i ToolkitPro1501vc60S:XTPDockState.obj
 0001:00065370       ?Serialize@?$CArray@PAVCXTPResizeItem@@AAPAV1@@@UAEXAAVCArchive@@@Z 00466370 f i ToolkitPro1501vc60S:XTPDockState.obj
 0001:00065370       ?Serialize@?$CArray@PAVCXTPStatusBarPane@@PAV1@@@UAEXAAVCArchive@@@Z 00466370 f i ToolkitPro1501vc60S:XTPDockState.obj
 0001:00065370       ?Serialize@?$CArray@PAVCXTPDockingPaneCaptionButton@@PAV1@@@UAEXAAVCArchive@@@Z 00466370 f i ToolkitPro1501vc60S:XTPDockState.obj
 0001:00065370       ?Serialize@?$CArray@PAUHWND__@@PAU1@@@UAEXAAVCArchive@@@Z 00466370 f i ToolkitPro1501vc60S:XTPDockState.obj
 0001:00065370       ?Serialize@?$CArray@PAVCXTPTabManagerNavigateButton@@PAV1@@@UAEXAAVCArchive@@@Z 00466370 f i ToolkitPro1501vc60S:XTPDockState.obj
 0001:00065370       ?Serialize@?$CArray@PAVCXTPToolBar@@PAV1@@@UAEXAAVCArchive@@@Z 00466370 f i ToolkitPro1501vc60S:XTPDockState.obj
 0001:00065370       ?Serialize@?$CArray@PAVCXTPShortcutManagerAccel@@PAV1@@@UAEXAAVCArchive@@@Z 00466370 f i ToolkitPro1501vc60S:XTPDockState.obj
 0001:00065370       ?Serialize@?$CArray@PAVCXTPRibbonTabContextHeader@@PAV1@@@UAEXAAVCArchive@@@Z 00466370 f i ToolkitPro1501vc60S:XTPDockState.obj
 0001:00065370       ?Serialize@?$CArray@PAVCXTPHookManagerHookAble@@PAV1@@@UAEXAAVCArchive@@@Z 00466370 f i ToolkitPro1501vc60S:XTPDockState.obj
 0001:00065370       ?Serialize@?$CArray@PAVCXTPTabManagerAtom@@PAV1@@@UAEXAAVCArchive@@@Z 00466370 f i ToolkitPro1501vc60S:XTPDockState.obj
 0001:00065370       ?Serialize@?$CArray@PAVCXTPTabManagerItem@@PAV1@@@UAEXAAVCArchive@@@Z 00466370 f i ToolkitPro1501vc60S:XTPDockState.obj
 0001:00065370       ?Serialize@?$CArray@PAUCONNECTION_DESCRIPTOR@CXTPNotifyConnection@@PAU12@@@UAEXAAVCArchive@@@Z 00466370 f i ToolkitPro1501vc60S:XTPDockState.obj
 0001:00065370       ?Serialize@?$CArray@PAVCXTPCommandBar@@PAV1@@@UAEXAAVCArchive@@@Z 00466370 f i ToolkitPro1501vc60S:XTPDockState.obj
 0001:00065370       ?Serialize@?$CArray@PAVCXTPRibbonGroup@@PAV1@@@UAEXAAVCArchive@@@Z 00466370 f i ToolkitPro1501vc60S:XTPDockState.obj
 0001:00065370       ?Serialize@?$CArray@PAVCXTPPropertyPage@@PAV1@@@UAEXAAVCArchive@@@Z 00466370 f i ToolkitPro1501vc60S:XTPDockState.obj
 0001:00065370       ?Serialize@?$CArray@PAUHKL__@@AAPAU1@@@UAEXAAVCArchive@@@Z 00466370 f i ToolkitPro1501vc60S:XTPDockState.obj
 0001:00065370       ?Serialize@?$CArray@MAAM@@UAEXAAVCArchive@@@Z 00466370 f i ToolkitPro1501vc60S:XTPDockState.obj
 0001:00065370       ?Serialize@?$CArray@PAVCXTPControl@@PAV1@@@UAEXAAVCArchive@@@Z 00466370 f i ToolkitPro1501vc60S:XTPDockState.obj
 0001:00065370       ?Serialize@?$CArray@PAUTOOLITEM@CXTPToolTipContextToolTip@@PAU12@@@UAEXAAVCArchive@@@Z 00466370 f i ToolkitPro1501vc60S:XTPDockState.obj
 0001:00065370       ?Serialize@?$CArray@PAVCXTPControlAction@@PAV1@@@UAEXAAVCArchive@@@Z 00466370 f i ToolkitPro1501vc60S:XTPDockState.obj
 0001:00065370       ?Serialize@?$CArray@PAVCXTPImageManagerImageList@@PAV1@@@UAEXAAVCArchive@@@Z 00466370 f i ToolkitPro1501vc60S:XTPDockState.obj
 0001:00065370       ?Serialize@?$CArray@PAVCXTPDockingPaneSidePanel@@PAV1@@@UAEXAAVCArchive@@@Z 00466370 f i ToolkitPro1501vc60S:XTPDockState.obj
 0001:00065370       ?Serialize@?$CArray@PAVCXTPCommandBarKeyboardTip@@PAV1@@@UAEXAAVCArchive@@@Z 00466370 f i ToolkitPro1501vc60S:XTPDockState.obj
 0001:00065370       ?Serialize@?$CArray@PAUCAnimateInfo@CXTPCommandBarAnimation@@PAU12@@@UAEXAAVCArchive@@@Z 00466370 f i ToolkitPro1501vc60S:XTPDockState.obj
 0001:00065500       ??_G?$CArray@PAVCToolBarInfo@CXTPToolBar@@PAV12@@@UAEPAXI@Z 00466500 f i ToolkitPro1501vc60S:XTPDockState.obj
 0001:00065500       ??_E?$CArray@PAVCToolBarInfo@CXTPToolBar@@PAV12@@@UAEPAXI@Z 00466500 f i ToolkitPro1501vc60S:XTPDockState.obj
 0001:00065520       ??0CRichEditContext@CXTPCommandBarEditCtrl@@QAE@XZ 00466520 f   ToolkitPro1501vc60S:XTPControlComboBox.obj
 0001:000655c0       ??1CRichEditContext@CXTPCommandBarEditCtrl@@QAE@XZ 004665c0 f   ToolkitPro1501vc60S:XTPControlComboBox.obj
 0001:000655d0       ?GetRichEditContext@CXTPCommandBarEditCtrl@@IAEAAVCRichEditContext@1@XZ 004665d0 f   ToolkitPro1501vc60S:XTPControlComboBox.obj
 0001:00065620       ?CreateObject@CXTPCommandBarEditCtrl@@SGPAVCObject@@XZ 00466620 f   ToolkitPro1501vc60S:XTPControlComboBox.obj
 0001:00065680       ?GetRuntimeClass@CXTPCommandBarEditCtrl@@UBEPAUCRuntimeClass@@XZ 00466680 f   ToolkitPro1501vc60S:XTPControlComboBox.obj
 0001:00065690       ??0CXTPCommandBarEditCtrl@@QAE@XZ 00466690 f   ToolkitPro1501vc60S:XTPControlComboBox.obj
 0001:000656b0       ?IsCommandEnabled@CXTPCommandBarEditCtrl@@IAEHI@Z 004666b0 f   ToolkitPro1501vc60S:XTPControlComboBox.obj
 0001:00065750       ?OnCmdMsg@CXTPCommandBarEditCtrl@@UAEHIHPAXPAUAFX_CMDHANDLERINFO@@@Z 00466750 f   ToolkitPro1501vc60S:XTPControlComboBox.obj
 0001:000657a0       ?OnCommand@CXTPCommandBarEditCtrl@@UAEHIJ@Z 004667a0 f   ToolkitPro1501vc60S:XTPControlComboBox.obj
 0001:00065820       ?ShowContextMenu@CXTPCommandBarEditCtrl@@UAEHPAVCXTPControl@@VCPoint@@@Z 00466820 f   ToolkitPro1501vc60S:XTPControlComboBox.obj
 0001:00065a50       ?CreateEdit@CXTPCommandBarEditCtrl@@UAEHKPAVCWnd@@@Z 00466a50 f   ToolkitPro1501vc60S:XTPControlComboBox.obj
 0001:00065b00       ?IsDialogCode@CXTPCommandBarEditCtrl@@QAEHIJ@Z 00466b00 f   ToolkitPro1501vc60S:XTPControlComboBox.obj
 0001:00065b80       ?SetWindowTextEx@CXTPCommandBarEditCtrl@@QAEXPBD@Z 00466b80 f   ToolkitPro1501vc60S:XTPControlComboBox.obj
 0001:00065bb0       ?GetWindowTextEx@CXTPCommandBarEditCtrl@@QAEXAAVCString@@@Z 00466bb0 f   ToolkitPro1501vc60S:XTPControlComboBox.obj
 0001:00065bc0       ?GetMessageMap@CXTPCommandBarEditCtrl@@MBEPBUAFX_MSGMAP@@XZ 00466bc0 f   ToolkitPro1501vc60S:XTPControlComboBox.obj
 0001:00065bd0       ?OnImeStartComposition@CXTPCommandBarEditCtrl@@IAEXXZ 00466bd0 f   ToolkitPro1501vc60S:XTPControlComboBox.obj
 0001:00065bf0       ?OnImeEndComposition@CXTPCommandBarEditCtrl@@IAEXXZ 00466bf0 f   ToolkitPro1501vc60S:XTPControlComboBox.obj
 0001:00065c10       ?OnKillFocus@CXTPCommandBarEditCtrl@@IAEXPAVCWnd@@@Z 00466c10 f   ToolkitPro1501vc60S:XTPControlComboBox.obj
 0001:00065c30       ?OnPaint@CXTPCommandBarEditCtrl@@IAEXXZ 00466c30 f   ToolkitPro1501vc60S:XTPControlComboBox.obj
 0001:00065cc0       ??0CXTPControlComboBoxAutoCompleteWnd@@QAE@XZ 00466cc0 f   ToolkitPro1501vc60S:XTPControlComboBox.obj
 0001:00065ce0       ??_GCXTPControlComboBoxAutoCompleteWnd@@UAEPAXI@Z 00466ce0 f i ToolkitPro1501vc60S:XTPControlComboBox.obj
 0001:00065ce0       ??_ECXTPControlComboBoxAutoCompleteWnd@@UAEPAXI@Z 00466ce0 f i ToolkitPro1501vc60S:XTPControlComboBox.obj
 0001:00065d00       ??1CXTPControlComboBoxAutoCompleteWnd@@UAE@XZ 00466d00 f   ToolkitPro1501vc60S:XTPControlComboBox.obj
 0001:00065d60       ?IsDialogCode@CXTPControlComboBoxAutoCompleteWnd@@QAEHIJ@Z 00466d60 f   ToolkitPro1501vc60S:XTPControlComboBox.obj
 0001:00065e00       ?ShellAutoComplete@CXTPControlComboBoxAutoCompleteWnd@@QAEJPAUHWND__@@K@Z 00466e00 f   ToolkitPro1501vc60S:XTPControlComboBox.obj
 0001:00065e50       ?CloseWindow@CXTPControlComboBoxAutoCompleteWnd@@QAEXXZ 00466e50 f   ToolkitPro1501vc60S:XTPControlComboBox.obj
 0001:00065e70       ?SetAutoCompeteHandle@CXTPControlComboBoxAutoCompleteWnd@@AAEXPAUHWND__@@@Z 00466e70 f   ToolkitPro1501vc60S:XTPControlComboBox.obj
 0001:00065ec0       ?SetupMessageHook@CXTPControlComboBoxAutoCompleteWnd@@QAEXH@Z 00466ec0 f   ToolkitPro1501vc60S:XTPControlComboBox.obj
 0001:00065f70       ?OnHookMessage@CXTPControlComboBoxAutoCompleteWnd@@EAEHPAUHWND__@@IAAIAAJ2@Z 00466f70 f   ToolkitPro1501vc60S:XTPControlComboBox.obj
 0001:00065f90       ?CallWndProc@CXTPControlComboBoxAutoCompleteWnd@@CGJHIJ@Z 00466f90 f   ToolkitPro1501vc60S:XTPControlComboBox.obj
 0001:00066060       ?CreateObject@CXTPControlComboBox@@SGPAVCObject@@XZ 00467060 f   ToolkitPro1501vc60S:XTPControlComboBox.obj
 0001:000660c0       ?GetRuntimeClass@CXTPControlComboBox@@UBEPAUCRuntimeClass@@XZ 004670c0 f   ToolkitPro1501vc60S:XTPControlComboBox.obj
 0001:000660f0       ?Clone@CXTPControlComboBox@@UAEPAVCXTPControl@@H@Z 004670f0 f   ToolkitPro1501vc60S:XTPControlComboBox.obj
 0001:00066120       ??0CXTPControlComboBox@@QAE@PAVCXTPCommandBars@@@Z 00467120 f   ToolkitPro1501vc60S:XTPControlComboBox.obj
 0001:000662a0       ?GetCommandBar@CXTPControlPopup@@UBEPAVCXTPCommandBar@@XZ 004672a0 f i ToolkitPro1501vc60S:XTPControlComboBox.obj
 0001:000662b0       ?GetPopuped@CXTPControlPopup@@UBEHXZ 004672b0 f i ToolkitPro1501vc60S:XTPControlComboBox.obj
 0001:000662c0       ?GetText@CXTPControlComboBox@@UBE?AVCString@@XZ 004672c0 f i ToolkitPro1501vc60S:XTPControlComboBox.obj
 0001:000662e0       ?OnThemeChanged@CXTPControlComboBox@@MAEXXZ 004672e0 f i ToolkitPro1501vc60S:XTPControlComboBox.obj
 0001:000662f0       ??_GCXTPControlComboBox@@UAEPAXI@Z 004672f0 f i ToolkitPro1501vc60S:XTPControlComboBox.obj
 0001:000662f0       ??_ECXTPControlComboBox@@UAEPAXI@Z 004672f0 f i ToolkitPro1501vc60S:XTPControlComboBox.obj
 0001:00066310       ??1CXTPControlComboBox@@UAE@XZ 00467310 f   ToolkitPro1501vc60S:XTPControlComboBox.obj
 0001:000663c0       ?GetEditText@CXTPControlComboBox@@QBE?AVCString@@XZ 004673c0 f   ToolkitPro1501vc60S:XTPControlComboBox.obj
 0001:000664a0       ?_GetEditText@CXTPControlComboBox@@IBE?AVCString@@XZ 004674a0 f   ToolkitPro1501vc60S:XTPControlComboBox.obj
 0001:00066500       ?SetEditText@CXTPControlComboBox@@QAEXABVCString@@@Z 00467500 f   ToolkitPro1501vc60S:XTPControlComboBox.obj
 0001:00066580       ?_SetEditText@CXTPControlComboBox@@IAEXABVCString@@@Z 00467580 f   ToolkitPro1501vc60S:XTPControlComboBox.obj
 0001:00066600       ?SetEditHint@CXTPControlComboBox@@QAEXPBD@Z 00467600 f   ToolkitPro1501vc60S:XTPControlComboBox.obj
 0001:00066780       ?IsCaptionVisible@CXTPControlComboBox@@UBEHXZ 00467780 f   ToolkitPro1501vc60S:XTPControlComboBox.obj
 0001:000667f0       ?GetEditHint@CXTPControlComboBox@@QBE?AVCString@@XZ 004677f0 f   ToolkitPro1501vc60S:XTPControlComboBox.obj
 0001:000668c0       ?GetEditHint@CXTPControlAction@@QBE?AVCString@@XZ 004678c0 f i ToolkitPro1501vc60S:XTPControlComboBox.obj
 0001:000668e0       ?UpdatePopupSelection@CXTPControlComboBox@@QAEXXZ 004678e0 f   ToolkitPro1501vc60S:XTPControlComboBox.obj
 0001:000669b0       ?OnEditChanged@CXTPControlComboBox@@UAEXXZ 004679b0 f   ToolkitPro1501vc60S:XTPControlComboBox.obj
 0001:00066b30       ?OnSelChanged@CXTPControlComboBox@@UAEXXZ 00467b30 f   ToolkitPro1501vc60S:XTPControlComboBox.obj
 0001:00066bb0       ?OnHookMouseWheel@CXTPControlComboBox@@MAEHIFVCPoint@@@Z 00467bb0 f   ToolkitPro1501vc60S:XTPControlComboBox.obj
 0001:00066c20       ?OnHookKeyDown@CXTPControlComboBox@@MAEHIJ@Z 00467c20 f   ToolkitPro1501vc60S:XTPControlComboBox.obj
 0001:00066e20       ?CreateEditControl@CXTPControlComboBox@@MAEPAVCXTPControlComboBoxEditCtrl@@XZ 00467e20 f   ToolkitPro1501vc60S:XTPControlComboBox.obj
 0001:00066e70       ?SetDropDownListStyle@CXTPControlComboBox@@QAEXH@Z 00467e70 f   ToolkitPro1501vc60S:XTPControlComboBox.obj
 0001:00066ec0       ?EnableShellAutoComplete@CXTPControlComboBox@@QAEXK@Z 00467ec0 f   ToolkitPro1501vc60S:XTPControlComboBox.obj
 0001:00066fa0       ?SetRect@CXTPControlComboBox@@MAEXVCRect@@@Z 00467fa0 f   ToolkitPro1501vc60S:XTPControlComboBox.obj
 0001:00067270       ?ShowHideEditControl@CXTPControlComboBox@@IAEXXZ 00468270 f   ToolkitPro1501vc60S:XTPControlComboBox.obj
 0001:000672e0       ?OnRemoved@CXTPControlComboBox@@MAEXXZ 004682e0 f   ToolkitPro1501vc60S:XTPControlComboBox.obj
 0001:00067320       ?OnEnabledChanged@CXTPControlComboBox@@UAEXXZ 00468320 f   ToolkitPro1501vc60S:XTPControlComboBox.obj
 0001:00067360       ?SetParent@CXTPControlComboBox@@MAEXPAVCXTPCommandBar@@@Z 00468360 f   ToolkitPro1501vc60S:XTPControlComboBox.obj
 0001:000673c0       ?OnSetSelected@CXTPControlComboBox@@MAEHH@Z 004683c0 f   ToolkitPro1501vc60S:XTPControlComboBox.obj
 0001:00067430       ?OnClick@CXTPControlComboBox@@MAEXHVCPoint@@@Z 00468430 f   ToolkitPro1501vc60S:XTPControlComboBox.obj
 0001:00067510       ?SetHideFlags@CXTPControlComboBox@@UAEXK@Z 00468510 f   ToolkitPro1501vc60S:XTPControlComboBox.obj
 0001:00067540       ?OnActionChanged@CXTPControlComboBox@@UAEXH@Z 00468540 f   ToolkitPro1501vc60S:XTPControlComboBox.obj
 0001:00067630       ?OnActionChanging@CXTPControlComboBox@@UAEXH@Z 00468630 f   ToolkitPro1501vc60S:XTPControlComboBox.obj
 0001:00067720       ?OnCalcDynamicSize@CXTPControlComboBox@@MAEXK@Z 00468720 f   ToolkitPro1501vc60S:XTPControlComboBox.obj
 0001:00067720       ?OnCalcDynamicSize@CXTPControlEdit@@MAEXK@Z 00468720 f   ToolkitPro1501vc60S:XTPControlComboBox.obj
 0001:00067750       ?Copy@CXTPControlComboBox@@MAEXPAVCXTPControl@@H@Z 00468750 f   ToolkitPro1501vc60S:XTPControlComboBox.obj
 0001:00067860       ?Compare@CXTPControlComboBox@@UAEHPAVCXTPControl@@@Z 00468860 f   ToolkitPro1501vc60S:XTPControlComboBox.obj
 0001:00067890       ?GetListBoxText@CXTPControlComboBox@@UBE?AVCString@@XZ 00468890 f   ToolkitPro1501vc60S:XTPControlComboBox.obj
 0001:00067950       ?IsValidList@CXTPControlComboBox@@IBEHXZ 00468950 f   ToolkitPro1501vc60S:XTPControlComboBox.obj
 0001:00067960       ?GetComboBoxPopupBar@CXTPControlComboBox@@QBEPAVCXTPControlComboBoxPopupBar@@XZ 00468960 f   ToolkitPro1501vc60S:XTPControlComboBox.obj
 0001:00067980       ?GetCurSel@CXTPControlComboBox@@QBEHXZ 00468980 f   ToolkitPro1501vc60S:XTPControlComboBox.obj
 0001:000679a0       ?SetCurSel@CXTPControlComboBox@@QAEXH@Z 004689a0 f   ToolkitPro1501vc60S:XTPControlComboBox.obj
 0001:000679f0       ?IsFocused@CXTPControlComboBox@@UBEHXZ 004689f0 f   ToolkitPro1501vc60S:XTPControlComboBox.obj
 0001:00067a00       ?SetFocused@CXTPControlComboBox@@UAEXH@Z 00468a00 f   ToolkitPro1501vc60S:XTPControlComboBox.obj
 0001:00067b50       ?OnSetFocus@CXTPControlComboBox@@MAEXPAVCWnd@@@Z 00468b50 f   ToolkitPro1501vc60S:XTPControlComboBox.obj
 0001:00067ce0       ?OnKillFocus@CXTPControlComboBox@@MAEXXZ 00468ce0 f   ToolkitPro1501vc60S:XTPControlComboBox.obj
 0001:00067de0       ?GetDroppedState@CXTPControlComboBox@@QBEHXZ 00468de0 f   ToolkitPro1501vc60S:XTPControlComboBox.obj
 0001:00067df0       ?OnSetPopup@CXTPControlComboBox@@MAEHH@Z 00468df0 f   ToolkitPro1501vc60S:XTPControlComboBox.obj
 0001:00067e90       ?OnExecute@CXTPControlComboBox@@UAEXXZ 00468e90 f   ToolkitPro1501vc60S:XTPControlComboBox.obj
 0001:00067ef0       ?GetDefaultCharFormat@CXTPControlComboBox@@UAE?AUCHARFORMAT2A@@XZ 00468ef0 f   ToolkitPro1501vc60S:XTPControlComboBox.obj
 0001:00068020       ?CreateObject@CXTPControlComboBoxPopupBar@@SGPAVCObject@@XZ 00469020 f   ToolkitPro1501vc60S:XTPControlComboBox.obj
 0001:00068080       ?GetRuntimeClass@CXTPControlComboBoxPopupBar@@UBEPAUCRuntimeClass@@XZ 00469080 f   ToolkitPro1501vc60S:XTPControlComboBox.obj
 0001:000680b0       ?Clone@CXTPControlComboBoxPopupBar@@UAEPAVCXTPCommandBar@@H@Z 004690b0 f   ToolkitPro1501vc60S:XTPControlComboBox.obj
 0001:000680e0       ??0CXTPControlComboBoxPopupBar@@QAE@XZ 004690e0 f   ToolkitPro1501vc60S:XTPControlComboBox.obj
 0001:00068110       ?IsCustomizable@CXTPCommandBar@@UBEHXZ 00469110 f i ToolkitPro1501vc60S:XTPControlComboBox.obj
 0001:00068120       ?DelayRedraw@CXTPPopupBar@@MAEXXZ 00469120 f i ToolkitPro1501vc60S:XTPControlComboBox.obj
 0001:00068130       ?IsResizable@CXTPPopupBar@@UBEHXZ 00469130 f i ToolkitPro1501vc60S:XTPControlComboBox.obj
 0001:00068140       ?GetCurSel@CXTPControlComboBoxPopupBar@@UBEHXZ 00469140 f i ToolkitPro1501vc60S:XTPControlComboBox.obj
 0001:00068150       ?FindString@CXTPControlComboBoxPopupBar@@UBEHHPBD@Z 00469150 f i ToolkitPro1501vc60S:XTPControlComboBox.obj
 0001:00068150       ?FindStringExact@CXTPControlComboBoxPopupBar@@UBEHHPBD@Z 00469150 f i ToolkitPro1501vc60S:XTPControlComboBox.obj
 0001:00068160       ?SetTopIndex@CXTPControlComboBoxPopupBar@@UAEHH@Z 00469160 f i ToolkitPro1501vc60S:XTPControlComboBox.obj
 0001:00068160       ?IsControlEnabled@CXTPCommandBar@@MBEHPBVCXTPControl@@@Z 00469160 f i ToolkitPro1501vc60S:XTPControlComboBox.obj
 0001:00068170       ?ProcessHookKeyDown@CXTPControlComboBoxPopupBar@@UAEHPAVCXTPControlComboBox@@IJ@Z 00469170 f   ToolkitPro1501vc60S:XTPControlComboBox.obj
 0001:00068260       ?OnHookKeyDown@CXTPControlComboBoxPopupBar@@UAEHIJ@Z 00469260 f   ToolkitPro1501vc60S:XTPControlComboBox.obj
 0001:000682d0       ??0CXTPControlComboBoxList@@QAE@XZ 004692d0 f   ToolkitPro1501vc60S:XTPControlComboBox.obj
 0001:00068320       ?GetCurSel@CXTPControlComboBoxList@@MBEHXZ 00469320 f i ToolkitPro1501vc60S:XTPControlComboBox.obj
 0001:00068340       ?FindString@CXTPControlComboBoxList@@MBEHHPBD@Z 00469340 f i ToolkitPro1501vc60S:XTPControlComboBox.obj
 0001:00068370       ?FindStringExact@CXTPControlComboBoxList@@MBEHHPBD@Z 00469370 f i ToolkitPro1501vc60S:XTPControlComboBox.obj
 0001:000683a0       ?SetTopIndex@CXTPControlComboBoxList@@MAEHH@Z 004693a0 f i ToolkitPro1501vc60S:XTPControlComboBox.obj
 0001:000683c0       ?SetCurSel@CXTPControlComboBoxList@@MAEXH@Z 004693c0 f i ToolkitPro1501vc60S:XTPControlComboBox.obj
 0001:000683e0       ?GetText@CXTPControlComboBoxList@@MBEXHAAVCString@@@Z 004693e0 f i ToolkitPro1501vc60S:XTPControlComboBox.obj
 0001:00068400       ?GetMessageMap@CXTPControlComboBoxList@@MBEPBUAFX_MSGMAP@@XZ 00469400 f   ToolkitPro1501vc60S:XTPControlComboBox.obj
 0001:00068410       ?CreateObject@CXTPControlComboBoxList@@SGPAVCObject@@XZ 00469410 f   ToolkitPro1501vc60S:XTPControlComboBox.obj
 0001:00068470       ?GetRuntimeClass@CXTPControlComboBoxList@@UBEPAUCRuntimeClass@@XZ 00469470 f   ToolkitPro1501vc60S:XTPControlComboBox.obj
 0001:000684a0       ?Clone@CXTPControlComboBoxList@@UAEPAVCXTPCommandBar@@H@Z 004694a0 f   ToolkitPro1501vc60S:XTPControlComboBox.obj
 0001:000684d0       ?CreateListBox@CXTPControlComboBoxList@@UAEXXZ 004694d0 f   ToolkitPro1501vc60S:XTPControlComboBox.obj
 0001:000685f0       ?DrawItem@CXTPControlComboBoxList@@MAEXPAUtagDRAWITEMSTRUCT@@@Z 004695f0 f   ToolkitPro1501vc60S:XTPControlComboBox.obj
 0001:00068610       ?MeasureItem@CXTPControlComboBoxList@@MAEXPAUtagMEASUREITEMSTRUCT@@@Z 00469610 f   ToolkitPro1501vc60S:XTPControlComboBox.obj
 0001:00068630       ?OnHookMessage@CXTPControlComboBoxList@@MAEHPAUHWND__@@IAAIAAJ2@Z 00469630 f   ToolkitPro1501vc60S:XTPControlComboBox.obj
 0001:00068680       ?OnNcPaint@CXTPControlComboBoxList@@IAEXXZ 00469680 f   ToolkitPro1501vc60S:XTPControlComboBox.obj
 0001:00068760       ?OnEraseBkgnd@CXTPControlComboBoxList@@IAEHPAVCDC@@@Z 00469760 f   ToolkitPro1501vc60S:XTPControlComboBox.obj
 0001:00068770       ?OnLButtonUp@CXTPControlComboBoxList@@IAEXIVCPoint@@@Z 00469770 f   ToolkitPro1501vc60S:XTPControlComboBox.obj
 0001:00068790       ?SetTrackingMode@CXTPControlComboBoxList@@MAEHHHH@Z 00469790 f   ToolkitPro1501vc60S:XTPControlComboBox.obj
 0001:00068850       ?ProcessHookKeyDown@CXTPControlComboBoxList@@MAEHPAVCXTPControlComboBox@@IJ@Z 00469850 f   ToolkitPro1501vc60S:XTPControlComboBox.obj
 0001:000689b0       ?OnHookKeyDown@CXTPControlComboBoxList@@MAEHIJ@Z 004699b0 f   ToolkitPro1501vc60S:XTPControlComboBox.obj
 0001:00068a70       ?OnMouseMove@CXTPControlComboBoxList@@IAEXIVCPoint@@@Z 00469a70 f   ToolkitPro1501vc60S:XTPControlComboBox.obj
 0001:00068ad0       ?Popup@CXTPControlComboBoxList@@MAEHPAVCXTPControlPopup@@H@Z 00469ad0 f   ToolkitPro1501vc60S:XTPControlComboBox.obj
 0001:00068c60       ?OnPaint@CXTPControlComboBoxList@@IAEXXZ 00469c60 f   ToolkitPro1501vc60S:XTPControlComboBox.obj
 0001:00068d20       ?DrawCommandBar@CXTPControlComboBoxList@@MAEXPAVCDC@@VCRect@@@Z 00469d20 f   ToolkitPro1501vc60S:XTPControlComboBox.obj
 0001:00068d70       ?GetMessageMap@CXTPControlComboBoxEditCtrl@@MBEPBUAFX_MSGMAP@@XZ 00469d70 f   ToolkitPro1501vc60S:XTPControlComboBox.obj
 0001:00068d80       ?OnEditChanged@CXTPControlComboBoxEditCtrl@@IAEXXZ 00469d80 f   ToolkitPro1501vc60S:XTPControlComboBox.obj
 0001:00068dd0       ?UpdateCharFormat@CXTPControlComboBoxEditCtrl@@IAEXXZ 00469dd0 f   ToolkitPro1501vc60S:XTPControlComboBox.obj
 0001:00068e50       ?OnShellAutoCompleteStart@CXTPControlComboBoxEditCtrl@@IAEXXZ 00469e50 f   ToolkitPro1501vc60S:XTPControlComboBox.obj
 0001:00068e70       ?OnRButtonDown@CXTPControlComboBoxEditCtrl@@IAEXIVCPoint@@@Z 00469e70 f   ToolkitPro1501vc60S:XTPControlComboBox.obj
 0001:00068f10       ?OnDestroy@CXTPControlComboBoxEditCtrl@@IAEXXZ 00469f10 f   ToolkitPro1501vc60S:XTPControlComboBox.obj
 0001:00068f30       ?OnWndMsg@CXTPControlEditCtrl@@MAEHIIJPAJ@Z 00469f30 f   ToolkitPro1501vc60S:XTPControlComboBox.obj
 0001:00068f30       ?OnWndMsg@CXTPControlComboBoxEditCtrl@@MAEHIIJPAJ@Z 00469f30 f   ToolkitPro1501vc60S:XTPControlComboBox.obj
 0001:00068f70       ?OnSetFocus@CXTPControlComboBoxEditCtrl@@IAEXPAVCWnd@@@Z 00469f70 f   ToolkitPro1501vc60S:XTPControlComboBox.obj
 0001:00068fe0       ?OnKillFocus@CXTPControlComboBoxEditCtrl@@IAEXPAVCWnd@@@Z 00469fe0 f   ToolkitPro1501vc60S:XTPControlComboBox.obj
 0001:00069000       ?Copy@CXTPControlComboBoxList@@MAEXPAVCXTPCommandBar@@H@Z 0046a000 f   ToolkitPro1501vc60S:XTPControlComboBox.obj
 0001:00069120       ?DoPropExchange@CXTPControlComboBoxList@@MAEXPAVCXTPPropExchange@@@Z 0046a120 f   ToolkitPro1501vc60S:XTPControlComboBox.obj
 0001:00069390       ?OnMouseMove@CXTPControlComboBox@@MAEXVCPoint@@@Z 0046a390 f   ToolkitPro1501vc60S:XTPControlComboBox.obj
 0001:00069450       ?GetListIconId@CXTPControlComboBox@@QBEHXZ 0046a450 f   ToolkitPro1501vc60S:XTPControlComboBox.obj
 0001:00069470       ?GetCustomizeMinWidth@CXTPControlComboBox@@MBEHXZ 0046a470 f   ToolkitPro1501vc60S:XTPControlComboBox.obj
 0001:00069490       ?DeflateEditRect@CXTPControlComboBox@@MAEXAAVCRect@@@Z 0046a490 f   ToolkitPro1501vc60S:XTPControlComboBox.obj
 0001:000694d0       ?DrawEditText@CXTPControlComboBox@@UAEXPAVCDC@@VCRect@@@Z 0046a4d0 f   ToolkitPro1501vc60S:XTPControlComboBox.obj
 0001:00069750       ?CenterPoint@CRect@@QBE?AVCPoint@@XZ 0046a750 f i ToolkitPro1501vc60S:XTPControlComboBox.obj
 0001:00069780       ?DrawItem@CXTPControlComboBox@@MAEXPAUtagDRAWITEMSTRUCT@@@Z 0046a780 f   ToolkitPro1501vc60S:XTPControlComboBox.obj
 0001:000699b0       ??_9@$BBLE@AE              0046a9b0 f i ToolkitPro1501vc60S:XTPControlComboBox.obj
 0001:000699c0       ??_9@$BBLI@AE              0046a9c0 f i ToolkitPro1501vc60S:XTPControlComboBox.obj
 0001:000699d0       ??_ECXTPControlComboBox@@WBM@AEPAXI@Z 0046a9d0 f i ToolkitPro1501vc60S:XTPControlComboBox.obj
 0001:000699e0       ?OnPaint@CXTPTabCtrlBase@@IAEXXZ 0046a9e0 f i ToolkitPro1501vc60S:XTPTabCtrl.obj
 0001:000699f0       ?OnSettingChange@CXTPTabCtrlBase@@IAEXIPBD@Z 0046a9f0 f i ToolkitPro1501vc60S:XTPTabCtrl.obj
 0001:00069a20       ?OnSysColorChange@CXTPTabCtrlBase@@IAEXXZ 0046aa20 f i ToolkitPro1501vc60S:XTPTabCtrl.obj
 0001:00069a40       ?OnCreate@CXTPTabCtrlBase@@IAEHPAUtagCREATESTRUCTA@@@Z 0046aa40 f i ToolkitPro1501vc60S:XTPTabCtrl.obj
 0001:00069a70       ?OnRButtonDown@CXTPTabCtrlBase@@IAEXIVCPoint@@@Z 0046aa70 f i ToolkitPro1501vc60S:XTPTabCtrl.obj
 0001:00069a90       ?OnDestroy@CXTPTabCtrlBase@@IAEXXZ 0046aa90 f i ToolkitPro1501vc60S:XTPTabCtrl.obj
 0001:00069ab0       ?OnSelchange@CXTPTabCtrlBase@@IAEHPAUtagNMHDR@@PAJ@Z 0046aab0 f i ToolkitPro1501vc60S:XTPTabCtrl.obj
 0001:00069ad0       ?OnSelchanging@CXTPTabCtrlBase@@IAEHPAUtagNMHDR@@PAJ@Z 0046aad0 f i ToolkitPro1501vc60S:XTPTabCtrl.obj
 0001:00069af0       ?OnWindowPosChanged@CXTPTabCtrlBase@@IAEXPAUtagWINDOWPOS@@@Z 0046aaf0 f i ToolkitPro1501vc60S:XTPTabCtrl.obj
 0001:00069b20       ?OnSetTheme@CXTPTabCtrlBase@@IAEJIJ@Z 0046ab20 f i ToolkitPro1501vc60S:XTPTabCtrl.obj
 0001:00069b40       ?GetRuntimeClass@CXTPTabCtrl@@UBEPAUCRuntimeClass@@XZ 0046ab40 f   ToolkitPro1501vc60S:XTPTabCtrl.obj
 0001:00069b50       ?GetMessageMap@CXTPTabCtrl@@MBEPBUAFX_MSGMAP@@XZ 0046ab50 f   ToolkitPro1501vc60S:XTPTabCtrl.obj
 0001:00069b60       ??0CXTPTabCtrl@@QAE@XZ     0046ab60 f   ToolkitPro1501vc60S:XTPTabCtrl.obj
 0001:00069bd0       ?GetActiveView@CXTPTabExBase@@UAEPAVCWnd@@XZ 0046abd0 f i ToolkitPro1501vc60S:XTPTabCtrl.obj
 0001:00069c00       ?SetMenuID@CXTPTabExBase@@UAEXIH@Z 0046ac00 f i ToolkitPro1501vc60S:XTPTabCtrl.obj
 0001:00069c20       ?IsPushed@CXTPButton@@UAEHXZ 0046ac20 f i ToolkitPro1501vc60S:XTPTabCtrl.obj
 0001:00069c20       ?GetMenuID@CXTPTabExBase@@UAEIXZ 0046ac20 f i ToolkitPro1501vc60S:XTPTabCtrl.obj
 0001:00069c30       ?SendInitialUpdate@CXTPTabExBase@@UAEXH@Z 0046ac30 f i ToolkitPro1501vc60S:XTPTabCtrl.obj
 0001:00069c40       ?PreSubclassWindow@CXTPTabCtrlBase@@MAEXXZ 0046ac40 f i ToolkitPro1501vc60S:XTPTabCtrl.obj
 0001:00069c60       ?PreCreateWindow@CXTPTabCtrlBase@@MAEHAAUtagCREATESTRUCTA@@@Z 0046ac60 f i ToolkitPro1501vc60S:XTPTabCtrl.obj
 0001:00069c90       ?OnCmdMsg@CXTPTabCtrlBase@@MAEHIHPAXPAUAFX_CMDHANDLERINFO@@@Z 0046ac90 f i ToolkitPro1501vc60S:XTPTabCtrl.obj
 0001:00069ce0       ?PreTranslateMessage@CXTPTabCtrlBase@@MAEHPAUtagMSG@@@Z 0046ace0 f i ToolkitPro1501vc60S:XTPTabCtrl.obj
 0001:00069d10       ??_GCXTPTabCtrl@@UAEPAXI@Z 0046ad10 f i ToolkitPro1501vc60S:XTPTabCtrl.obj
 0001:00069d10       ??_ECXTPTabCtrl@@UAEPAXI@Z 0046ad10 f i ToolkitPro1501vc60S:XTPTabCtrl.obj
 0001:00069d30       ??1CXTPTabCtrlBase@@UAE@XZ 0046ad30 f i ToolkitPro1501vc60S:XTPTabCtrl.obj
 0001:00069d80       ??1CXTPTabCtrl@@UAE@XZ     0046ad80 f   ToolkitPro1501vc60S:XTPTabCtrl.obj
 0001:00069de0       ?EnableToolTips@CXTPTabCtrl@@UAEHH@Z 0046ade0 f   ToolkitPro1501vc60S:XTPTabCtrl.obj
 0001:00069df0       ?PreSubclassWindow@CXTPTabCtrlBase@@ODM@AEXXZ 0046adf0 f i ToolkitPro1501vc60S:XTPTabCtrl.obj
 0001:00069e00       ?PreCreateWindow@CXTPTabCtrlBase@@ODM@AEHAAUtagCREATESTRUCTA@@@Z 0046ae00 f i ToolkitPro1501vc60S:XTPTabCtrl.obj
 0001:00069e10       ?OnCmdMsg@CXTPTabCtrlBase@@ODM@AEHIHPAXPAUAFX_CMDHANDLERINFO@@@Z 0046ae10 f i ToolkitPro1501vc60S:XTPTabCtrl.obj
 0001:00069e20       ?PreTranslateMessage@CXTPTabCtrlBase@@ODM@AEHPAUtagMSG@@@Z 0046ae20 f i ToolkitPro1501vc60S:XTPTabCtrl.obj
 0001:00069e30       ??_ECXTPTabCtrl@@WDM@AEPAXI@Z 0046ae30 f i ToolkitPro1501vc60S:XTPTabCtrl.obj
 0001:00069e40       ??_ECTabCtrl@@UAEPAXI@Z    0046ae40 f i ToolkitPro1501vc60S:XTPTabCtrl.obj
 0001:00069e40       ??_GCTabCtrl@@UAEPAXI@Z    0046ae40 f i ToolkitPro1501vc60S:XTPTabCtrl.obj
 0001:00069e60       ??0CXTPTabControl@@QAE@XZ  0046ae60 f   ToolkitPro1501vc60S:XTPTabControl.obj
 0001:00069fd0       ?GetPaintManager@CXTPTabControl@@UBEPAVCXTPTabPaintManager@@XZ 0046afd0 f i ToolkitPro1501vc60S:XTPTabControl.obj
 0001:00069fe0       ?OnDragLeave@CContainerDropTarget@CXTPDockingPaneTabbedContainer@@UAEXPAVCWnd@@@Z 0046afe0 f i ToolkitPro1501vc60S:XTPTabControl.obj
 0001:00069fe0       ?OnDragLeave@CTabControlDropTarget@CXTPTabControl@@UAEXPAVCWnd@@@Z 0046afe0 f i ToolkitPro1501vc60S:XTPTabControl.obj
 0001:00069fe0       ?OnDragLeave@CPanelDropTarget@CXTPDockingPaneAutoHidePanel@@UAEXPAVCWnd@@@Z 0046afe0 f i ToolkitPro1501vc60S:XTPTabControl.obj
 0001:0006a000       ?OnDragOver@CTabControlDropTarget@CXTPTabControl@@UAEKPAVCWnd@@PAVCOleDataObject@@KVCPoint@@@Z 0046b000 f i ToolkitPro1501vc60S:XTPTabControl.obj
 0001:0006a0b0       ??_GCXTPTabControl@@UAEPAXI@Z 0046b0b0 f i ToolkitPro1501vc60S:XTPTabControl.obj
 0001:0006a0b0       ??_ECXTPTabControl@@UAEPAXI@Z 0046b0b0 f i ToolkitPro1501vc60S:XTPTabControl.obj
 0001:0006a0d0       ??1CXTPTabControl@@UAE@XZ  0046b0d0 f   ToolkitPro1501vc60S:XTPTabControl.obj
 0001:0006a190       ?Create@CXTPTabControl@@QAEHKABUtagRECT@@PAVCWnd@@I@Z 0046b190 f   ToolkitPro1501vc60S:XTPTabControl.obj
 0001:0006a1f0       ?InsertItem@CXTPTabControl@@QAEPAVCXTPTabManagerItem@@HPBDPAUHWND__@@HPAV2@@Z 0046b1f0 f   ToolkitPro1501vc60S:XTPTabControl.obj
 0001:0006a270       ?RedrawControl@CXTPTabControl@@UAEXPBUtagRECT@@H@Z 0046b270 f   ToolkitPro1501vc60S:XTPTabControl.obj
 0001:0006a2a0       ?Reposition@CXTPTabControl@@UAEXXZ 0046b2a0 f   ToolkitPro1501vc60S:XTPTabControl.obj
 0001:0006a3e0       ?OnItemClick@CXTPTabControl@@UAEXPAVCXTPTabManagerItem@@@Z 0046b3e0 f   ToolkitPro1501vc60S:XTPTabControl.obj
 0001:0006a440       ?SetSelectedItem@CXTPTabControl@@UAEXPAVCXTPTabManagerItem@@@Z 0046b440 f   ToolkitPro1501vc60S:XTPTabControl.obj
 0001:0006a550       ?PreSubclassWindow@CXTPTabControl@@MAEXXZ 0046b550 f   ToolkitPro1501vc60S:XTPTabControl.obj
 0001:0006a570       ?GetMessageMap@CXTPTabControl@@MBEPBUAFX_MSGMAP@@XZ 0046b570 f   ToolkitPro1501vc60S:XTPTabControl.obj
 0001:0006a580       ?DrawParentBackground@CXTPTabControl@@MAEHPAVCDC@@VCRect@@@Z 0046b580 f   ToolkitPro1501vc60S:XTPTabControl.obj
 0001:0006a5f0       ?OnPaint@CXTPTabControl@@IAEXXZ 0046b5f0 f   ToolkitPro1501vc60S:XTPTabControl.obj
 0001:0006a6c0       ?OnPrintClient@CXTPTabControl@@IAEJIJ@Z 0046b6c0 f   ToolkitPro1501vc60S:XTPTabControl.obj
 0001:0006a750       ?OnSize@CXTPTabControl@@IAEXIHH@Z 0046b750 f   ToolkitPro1501vc60S:XTPTabControl.obj
 0001:0006a770       ?OnLButtonDown@CXTPTabControl@@IAEXIVCPoint@@@Z 0046b770 f   ToolkitPro1501vc60S:XTPTabControl.obj
 0001:0006a7c0       ?OnNavigateButtonClick@CXTPTabControl@@MAEXPAVCXTPTabManagerNavigateButton@@@Z 0046b7c0 f   ToolkitPro1501vc60S:XTPTabControl.obj
 0001:0006a7f0       ?OnSysColorChange@CXTPTabControl@@IAEXXZ 0046b7f0 f   ToolkitPro1501vc60S:XTPTabControl.obj
 0001:0006a820       ?OnToolHitTest@CXTPTabControl@@MBEHVCPoint@@PAUtagTOOLINFOA@@@Z 0046b820 f   ToolkitPro1501vc60S:XTPTabControl.obj
 0001:0006a850       ?OnMouseMove@CXTPTabControl@@IAEXIVCPoint@@@Z 0046b850 f   ToolkitPro1501vc60S:XTPTabControl.obj
 0001:0006a880       ?OnMouseLeave@CXTPTabControl@@IAEXXZ 0046b880 f   ToolkitPro1501vc60S:XTPTabControl.obj
 0001:0006a8a0       ?DrawIcon@CXTPTabControl@@UBEHPAVCDC@@VCPoint@@PAVCXTPTabManagerItem@@HAAVCSize@@@Z 0046b8a0 f   ToolkitPro1501vc60S:XTPTabControl.obj
 0001:0006a940       ?SetPaintManager@CXTPTabControl@@UAEXPAVCXTPTabPaintManager@@@Z 0046b940 f   ToolkitPro1501vc60S:XTPTabControl.obj
 0001:0006a970       ?OnWndMsg@CXTPTabControl@@MAEHIIJPAJ@Z 0046b970 f   ToolkitPro1501vc60S:XTPTabControl.obj
 0001:0006a9b0       ?OnKeyDown@CXTPTabControl@@IAEXIII@Z 0046b9b0 f   ToolkitPro1501vc60S:XTPTabControl.obj
 0001:0006a9d0       ?OnGetDlgCode@CXTPTabControl@@IAEIXZ 0046b9d0 f   ToolkitPro1501vc60S:XTPTabControl.obj
 0001:0006a9f0       ?OnSetFocus@CXTPTabControl@@IAEXPAVCWnd@@@Z 0046b9f0 f   ToolkitPro1501vc60S:XTPTabControl.obj
 0001:0006a9f0       ?OnKillFocus@CXTPTabControl@@IAEXPAVCWnd@@@Z 0046b9f0 f   ToolkitPro1501vc60S:XTPTabControl.obj
 0001:0006aa10       ?SetFocusedItem@CXTPTabControl@@UAEXPAVCXTPTabManagerItem@@@Z 0046ba10 f   ToolkitPro1501vc60S:XTPTabControl.obj
 0001:0006aa60       ?HeaderHasFocus@CXTPTabControl@@MBEHXZ 0046ba60 f   ToolkitPro1501vc60S:XTPTabControl.obj
 0001:0006aab0       ?AdjustRect@CXTPTabControl@@QBEXHPAUtagRECT@@@Z 0046bab0 f   ToolkitPro1501vc60S:XTPTabControl.obj
 0001:0006ab60       ??_ECXTPTabControl@@WDM@AEPAXI@Z 0046bb60 f i ToolkitPro1501vc60S:XTPTabControl.obj
 0001:0006ab70       ??0CXTPTabPaintManager@@QAE@XZ 0046bb70 f   ToolkitPro1501vc60S:XTPTabPaintManager.obj
 0001:0006ad50       ??_GCXTPTabPaintManager@@UAEPAXI@Z 0046bd50 f i ToolkitPro1501vc60S:XTPTabPaintManager.obj
 0001:0006ad50       ??_ECXTPTabPaintManager@@UAEPAXI@Z 0046bd50 f i ToolkitPro1501vc60S:XTPTabPaintManager.obj
 0001:0006ad70       ??1CXTPTabPaintManager@@UAE@XZ 0046bd70 f   ToolkitPro1501vc60S:XTPTabPaintManager.obj
 0001:0006ae70       ?SetColor@CXTPTabPaintManager@@QAEPAVCColorSet@1@W4XTPTabColorStyle@@@Z 0046be70 f   ToolkitPro1501vc60S:XTPTabPaintManager.obj
 0001:0006b260       ?DrawSidePanel@CXTPDockingPanePaintManager@@UAEXPAVCDC@@PAVCXTPDockingPaneSidePanel@@VCRect@@@Z 0046c260 f i ToolkitPro1501vc60S:XTPTabPaintManager.obj
 0001:0006b260       ?DrawFloatingFrame@CXTPDockingPanePaintManager@@UAEXPAVCDC@@PAVCXTPDockingPaneMiniWnd@@VCRect@@@Z 0046c260 f i ToolkitPro1501vc60S:XTPTabPaintManager.obj
 0001:0006b260       ?SelectClipRgn@CColorSet@CXTPTabPaintManager@@UAEXPAVCDC@@VCRect@@PAVCXTPTabManager@@@Z 0046c260 f i ToolkitPro1501vc60S:XTPTabPaintManager.obj
 0001:0006b270       ??_ECColorSetWinNative@CXTPTabPaintManager@@UAEPAXI@Z 0046c270 f i ToolkitPro1501vc60S:XTPTabPaintManager.obj
 0001:0006b270       ??_GCColorSetWinNative@CXTPTabPaintManager@@UAEPAXI@Z 0046c270 f i ToolkitPro1501vc60S:XTPTabPaintManager.obj
 0001:0006b290       ??1CColorSetWinNative@CXTPTabPaintManager@@UAE@XZ 0046c290 f i ToolkitPro1501vc60S:XTPTabPaintManager.obj
 0001:0006b2f0       ?SetColorSet@CXTPTabPaintManager@@QAEPAVCColorSet@1@PAV21@@Z 0046c2f0 f   ToolkitPro1501vc60S:XTPTabPaintManager.obj
 0001:0006b330       ?SetAppearance@CXTPTabPaintManager@@QAEPAVCAppearanceSet@1@W4XTPTabAppearanceStyle@@@Z 0046c330 f   ToolkitPro1501vc60S:XTPTabPaintManager.obj
 0001:0006b770       ?GetSupportedColorSets@CAppearanceSet@CXTPTabPaintManager@@UAEHXZ 0046c770 f i ToolkitPro1501vc60S:XTPTabPaintManager.obj
 0001:0006b780       ?GetSupportedColorSets@CAppearanceSetPropertyPage@CXTPTabPaintManager@@UAEHXZ 0046c780 f i ToolkitPro1501vc60S:XTPTabPaintManager.obj
 0001:0006b790       ?GetHeaderMargin@CAppearanceSetPropertyPage2003@CXTPTabPaintManager@@UAE?AVCRect@@XZ 0046c790 f i ToolkitPro1501vc60S:XTPTabPaintManager.obj
 0001:0006b7c0       ?GetSupportedColorSets@CAppearanceSetPropertyPage2003@CXTPTabPaintManager@@UAEHXZ 0046c7c0 f i ToolkitPro1501vc60S:XTPTabPaintManager.obj
 0001:0006b7d0       ?GetDefaultColorSet@CAppearanceSetPropertyPage2007@CXTPTabPaintManager@@MAE?AW4XTPTabColorStyle@@XZ 0046c7d0 f i ToolkitPro1501vc60S:XTPTabPaintManager.obj
 0001:0006b7d0       ?GetSupportedColorSets@CAppearanceSetPropertyPage2007@CXTPTabPaintManager@@MAEHXZ 0046c7d0 f i ToolkitPro1501vc60S:XTPTabPaintManager.obj
 0001:0006b7e0       ?GetDefaultColorSet@CAppearanceSetPropertyPageAccess2007@CXTPTabPaintManager@@MAE?AW4XTPTabColorStyle@@XZ 0046c7e0 f i ToolkitPro1501vc60S:XTPTabPaintManager.obj
 0001:0006b7e0       ?GetSupportedColorSets@CAppearanceSetPropertyPageAccess2007@CXTPTabPaintManager@@MAEHXZ 0046c7e0 f i ToolkitPro1501vc60S:XTPTabPaintManager.obj
 0001:0006b7f0       ?GetHeaderMargin@CAppearanceSetPropertyPageAccess2007@CXTPTabPaintManager@@MAE?AVCRect@@XZ 0046c7f0 f i ToolkitPro1501vc60S:XTPTabPaintManager.obj
 0001:0006b830       ?GetHeaderMargin@CAppearanceSetVisualStudio2005@CXTPTabPaintManager@@UAE?AVCRect@@XZ 0046c830 f i ToolkitPro1501vc60S:XTPTabPaintManager.obj
 0001:0006b870       ?GetSupportedColorSets@CAppearanceSetFlat@CXTPTabPaintManager@@UAEHXZ 0046c870 f i ToolkitPro1501vc60S:XTPTabPaintManager.obj
 0001:0006b880       ?BaseTheme@CXTPOffice2003Theme@@MAE?AW4XTPPaintTheme@@XZ 0046c880 f i ToolkitPro1501vc60S:XTPTabPaintManager.obj
 0001:0006b880       ?GetDefaultColorSet@CAppearanceSetStateButtons@CXTPTabPaintManager@@UAE?AW4XTPTabColorStyle@@XZ 0046c880 f i ToolkitPro1501vc60S:XTPTabPaintManager.obj
 0001:0006b880       ?GetDefaultColorSet@CAppearanceSetFlat@CXTPTabPaintManager@@UAE?AW4XTPTabColorStyle@@XZ 0046c880 f i ToolkitPro1501vc60S:XTPTabPaintManager.obj
 0001:0006b880       ?GetDefaultColorSet@CAppearanceSetVisualStudio@CXTPTabPaintManager@@UAE?AW4XTPTabColorStyle@@XZ 0046c880 f i ToolkitPro1501vc60S:XTPTabPaintManager.obj
 0001:0006b890       ?IsDialogBar@CXTPDialogBar@@MBEHXZ 0046c890 f i ToolkitPro1501vc60S:XTPTabPaintManager.obj
 0001:0006b890       ?IsRibbonBar@CXTPRibbonBar@@UBEHXZ 0046c890 f i ToolkitPro1501vc60S:XTPTabPaintManager.obj
 0001:0006b890       ?GetDefaultColorSet@CAppearanceSetPropertyPage@CXTPTabPaintManager@@UAE?AW4XTPTabColorStyle@@XZ 0046c890 f i ToolkitPro1501vc60S:XTPTabPaintManager.obj
 0001:0006b890       ?IsEvent@CXTPMarkupRoutedEvent@@UBEHXZ 0046c890 f i ToolkitPro1501vc60S:XTPTabPaintManager.obj
 0001:0006b890       ?IsAllowBlobValues@CXTPPropExchangeRegistry@@UBEHXZ 0046c890 f i ToolkitPro1501vc60S:XTPTabPaintManager.obj
 0001:0006b890       ?IsAllowBlobValues@CXTPPropExchangeArchive@@UBEHXZ 0046c890 f i ToolkitPro1501vc60S:XTPTabPaintManager.obj
 0001:0006b890       ?IsAllowDefaultValues@CXTPPropExchange@@UBEHXZ 0046c890 f i ToolkitPro1501vc60S:XTPTabPaintManager.obj
 0001:0006b890       ?IsCustomizeResizeAllow@CXTPControlComboBox@@MBEHXZ 0046c890 f i ToolkitPro1501vc60S:XTPTabPaintManager.obj
 0001:0006b890       ?GetDefaultColorSet@CAppearanceSet@CXTPTabPaintManager@@UAE?AW4XTPTabColorStyle@@XZ 0046c890 f i ToolkitPro1501vc60S:XTPTabPaintManager.obj
 0001:0006b890       ?GetDefaultColorSet@CAppearanceSetPropertyPageFlat@CXTPTabPaintManager@@UAE?AW4XTPTabColorStyle@@XZ 0046c890 f i ToolkitPro1501vc60S:XTPTabPaintManager.obj
 0001:0006b890       ?Unlock@CEmptySyncObject@CXTPNotifyConnection@@UAEHXZ 0046c890 f i ToolkitPro1501vc60S:XTPTabPaintManager.obj
 0001:0006b890       ?IsPopupBar@CXTPPopupBar@@UBEHXZ 0046c890 f i ToolkitPro1501vc60S:XTPTabPaintManager.obj
 0001:0006b890       ?BaseTheme@CXTPOfficeTheme@@MAE?AW4XTPPaintTheme@@XZ 0046c890 f i ToolkitPro1501vc60S:XTPTabPaintManager.obj
 0001:0006b890       ?IsCustomizeResizeAllow@CXTPControlEdit@@MBEHXZ 0046c890 f i ToolkitPro1501vc60S:XTPTabPaintManager.obj
 0001:0006b8a0       ?GetHeaderMargin@CAppearanceSetExcel@CXTPTabPaintManager@@UAE?AVCRect@@XZ 0046c8a0 f i ToolkitPro1501vc60S:XTPTabPaintManager.obj
 0001:0006b8e0       ?BaseTheme@CXTPOffice2007Theme@@MAE?AW4XTPPaintTheme@@XZ 0046c8e0 f i ToolkitPro1501vc60S:XTPTabPaintManager.obj
 0001:0006b8e0       ?GetSupportedColorSets@CAppearanceSetVisio@CXTPTabPaintManager@@UAEHXZ 0046c8e0 f i ToolkitPro1501vc60S:XTPTabPaintManager.obj
 0001:0006b8f0       ?GetHeaderMargin@CAppearanceSet@CXTPTabPaintManager@@UAE?AVCRect@@XZ 0046c8f0 f i ToolkitPro1501vc60S:XTPTabPaintManager.obj
 0001:0006b920       ?FillTabControl@CAppearanceSet@CXTPTabPaintManager@@UAE?AVCRect@@PAVCXTPTabManager@@PAVCDC@@V3@@Z 0046c920 f i ToolkitPro1501vc60S:XTPTabPaintManager.obj
 0001:0006b950       ?DrawTabControl@CAppearanceSet@CXTPTabPaintManager@@UAEXPAVCXTPTabManager@@PAVCDC@@VCRect@@@Z 0046c950 f i ToolkitPro1501vc60S:XTPTabPaintManager.obj
 0001:0006b990       ?RepositionTabControl@CAppearanceSet@CXTPTabPaintManager@@UAEXPAVCXTPTabManager@@PAVCDC@@VCRect@@@Z 0046c990 f i ToolkitPro1501vc60S:XTPTabPaintManager.obj
 0001:0006b9d0       ?SetAppearanceSet@CXTPTabPaintManager@@QAEPAVCAppearanceSet@1@PAV21@@Z 0046c9d0 f   ToolkitPro1501vc60S:XTPTabPaintManager.obj
 0001:0006ba20       ?SetFontIndirect@CXTPTabPaintManager@@QAEXPAUtagLOGFONTA@@H@Z 0046ca20 f   ToolkitPro1501vc60S:XTPTabPaintManager.obj
 0001:0006bb70       ?RefreshMetrics@CXTPTabPaintManager@@UAEXXZ 0046cb70 f   ToolkitPro1501vc60S:XTPTabPaintManager.obj
 0001:0006bbc0       ?DisableLunaColors@CXTPTabPaintManager@@QAEXH@Z 0046cbc0 f   ToolkitPro1501vc60S:XTPTabPaintManager.obj
 0001:0006bbe0       ?IsLunaColorsDisabled@CXTPTabPaintManager@@QBEHXZ 0046cbe0 f   ToolkitPro1501vc60S:XTPTabPaintManager.obj
 0001:0006bc00       ?GetOneNoteColor@CXTPTabPaintManager@@SAKW4XTPTabOneNoteColor@@@Z 0046cc00 f   ToolkitPro1501vc60S:XTPTabPaintManager.obj
 0001:0006bc60       ?DrawNavigateButton@CXTPTabPaintManager@@UAEXPAVCDC@@PAVCXTPTabManagerNavigateButton@@AAVCRect@@@Z 0046cc60 f   ToolkitPro1501vc60S:XTPTabPaintManager.obj
 0001:0006bd70       ?FillNavigateButton@CXTPTabPaintManager@@QAEXPAVCDC@@PAVCXTPTabManagerNavigateButton@@AAVCRect@@@Z 0046cd70 f   ToolkitPro1501vc60S:XTPTabPaintManager.obj
 0001:0006bd90       ?DrawTabControl@CXTPTabPaintManager@@UAEXPAVCXTPTabManager@@PAVCDC@@VCRect@@@Z 0046cd90 f   ToolkitPro1501vc60S:XTPTabPaintManager.obj
 0001:0006bdd0       ?DrawRowItems@CXTPTabPaintManager@@IAEXPAVCXTPTabManager@@PAVCDC@@ABVCRect@@H@Z 0046cdd0 f   ToolkitPro1501vc60S:XTPTabPaintManager.obj
 0001:0006bf70       ?DrawTabControlEx@CXTPTabPaintManager@@IAEXPAVCXTPTabManager@@PAVCDC@@VCRect@@@Z 0046cf70 f   ToolkitPro1501vc60S:XTPTabPaintManager.obj
 0001:0006c2b0       ?_GetButtonLength@CXTPTabPaintManager@@IAEHHHH@Z 0046d2b0 f   ToolkitPro1501vc60S:XTPTabPaintManager.obj
 0001:0006c2e0       ?StripMnemonics@CXTPTabPaintManager@@IAEXAAVCString@@@Z 0046d2e0 f   ToolkitPro1501vc60S:XTPTabPaintManager.obj
 0001:0006c2f0       ?GetPrefixTextExtent@CXTPTabPaintManager@@IAEHPAVCDC@@ABVCString@@I@Z 0046d2f0 f   ToolkitPro1501vc60S:XTPTabPaintManager.obj
 0001:0006c3b0       ?DrawTextPathEllipsis@CXTPTabPaintManager@@IAEXPAVCDC@@PAVCXTPTabManager@@ABVCString@@VCRect@@I@Z 0046d3b0 f   ToolkitPro1501vc60S:XTPTabPaintManager.obj
 0001:0006c750       ?DrawFocusRect@CXTPTabPaintManager@@MAEXPAVCDC@@PAVCXTPTabManagerItem@@VCRect@@@Z 0046d750 f   ToolkitPro1501vc60S:XTPTabPaintManager.obj
 0001:0006c7a0       ?DrawSingleButtonIconAndText@CXTPTabPaintManager@@UAEHPAVCDC@@PAVCXTPTabManagerItem@@VCRect@@H@Z 0046d7a0 f   ToolkitPro1501vc60S:XTPTabPaintManager.obj
 0001:0006d3a0       ?AdjustClientRect@CXTPTabPaintManager@@UAEXPAVCXTPTabManager@@AAVCRect@@@Z 0046e3a0 f   ToolkitPro1501vc60S:XTPTabPaintManager.obj
 0001:0006d420       ?RepositionNavigateButtons@CXTPTabPaintManager@@QAE?AVCRect@@PAVCXTPTabManager@@V2@@Z 0046e420 f   ToolkitPro1501vc60S:XTPTabPaintManager.obj
 0001:0006d4f0       ?RepositionTabControl@CXTPTabPaintManager@@UAEXPAVCXTPTabManager@@PAVCDC@@VCRect@@@Z 0046e4f0 f   ToolkitPro1501vc60S:XTPTabPaintManager.obj
 0001:0006d5b0       ?_CreateMultiRowIndexerBestFit@CXTPTabPaintManager@@IAEHPAVCXTPTabManager@@HHH@Z 0046e5b0 f   ToolkitPro1501vc60S:XTPTabPaintManager.obj
 0001:0006d6c0       ?CreateMultiRowIndexer@CXTPTabPaintManager@@IAEXPAVCXTPTabManager@@PAVCDC@@H@Z 0046e6c0 f   ToolkitPro1501vc60S:XTPTabPaintManager.obj
 0001:0006d7e0       ?RepositionTabControlMultiRow@CXTPTabPaintManager@@IAEXPAVCXTPTabManager@@PAVCDC@@VCRect@@@Z 0046e7e0 f   ToolkitPro1501vc60S:XTPTabPaintManager.obj
 0001:0006ddd0       ?RepositionTabControlEx@CXTPTabPaintManager@@IAEXPAVCXTPTabManager@@PAVCDC@@VCRect@@@Z 0046edd0 f   ToolkitPro1501vc60S:XTPTabPaintManager.obj
 0001:0006e5a0       ?EnsureVisible@CXTPTabPaintManager@@QAEXPAVCXTPTabManager@@PAVCXTPTabManagerItem@@@Z 0046f5a0 f   ToolkitPro1501vc60S:XTPTabPaintManager.obj
 0001:0006e6f0       ?_SizeToFitCompare@CXTPTabPaintManager@@KAHPBX0@Z 0046f6f0 f   ToolkitPro1501vc60S:XTPTabPaintManager.obj
 0001:0006e710       ?SizeToFit@CXTPTabPaintManager@@IAEXPAVCXTPTabManager@@H@Z 0046f710 f   ToolkitPro1501vc60S:XTPTabPaintManager.obj
 0001:0006e820       ?GetAppearance@CXTPTabPaintManager@@QBE?AW4XTPTabAppearanceStyle@@XZ 0046f820 f   ToolkitPro1501vc60S:XTPTabPaintManager.obj
 0001:0006e830       ?GetColor@CXTPTabPaintManager@@QBE?AW4XTPTabColorStyle@@XZ 0046f830 f   ToolkitPro1501vc60S:XTPTabPaintManager.obj
 0001:0006e840       ?SetPosition@CXTPTabPaintManager@@QAEXW4XTPTabPosition@@@Z 0046f840 f   ToolkitPro1501vc60S:XTPTabPaintManager.obj
 0001:0006e860       ?SetLayout@CXTPTabPaintManager@@QAEXW4XTPTabLayoutStyle@@@Z 0046f860 f   ToolkitPro1501vc60S:XTPTabPaintManager.obj
 0001:0006e880       ?GetPosition@CXTPTabPaintManager@@QBE?AW4XTPTabPosition@@XZ 0046f880 f   ToolkitPro1501vc60S:XTPTabPaintManager.obj
 0001:0006e890       ?GetLayout@CXTPTabPaintManager@@QBE?AW4XTPTabLayoutStyle@@XZ 0046f890 f   ToolkitPro1501vc60S:XTPTabPaintManager.obj
 0001:0006e8a0       ?OnPropertyChanged@CXTPTabPaintManager@@MAEXXZ 0046f8a0 f   ToolkitPro1501vc60S:XTPTabPaintManager.obj
 0001:0006e8d0       ??1?$CArray@PAVCXTPTabManagerAtom@@PAV1@@@UAE@XZ 0046f8d0 f i ToolkitPro1501vc60S:XTPTabPaintManager.obj
 0001:0006e920       ??_G?$CArray@PAVCXTPTabManagerAtom@@PAV1@@@UAEPAXI@Z 0046f920 f i ToolkitPro1501vc60S:XTPTabPaintManager.obj
 0001:0006e920       ??_E?$CArray@PAVCXTPTabManagerAtom@@PAV1@@@UAEPAXI@Z 0046f920 f i ToolkitPro1501vc60S:XTPTabPaintManager.obj
 0001:0006e940       ?GetRuntimeClass@CXTPToolTipContextToolTip@@UBEPAUCRuntimeClass@@XZ 0046f940 f   ToolkitPro1501vc60S:XTPToolTipContext.obj
 0001:0006e950       ?XTPStripEllipsis@@YAXPAD@Z 0046f950 f   ToolkitPro1501vc60S:XTPToolTipContext.obj
 0001:0006e990       ??0CXTPToolTipContextToolTip@@QAE@PAVCXTPToolTipContext@@@Z 0046f990 f   ToolkitPro1501vc60S:XTPToolTipContext.obj
 0001:0006eae0       ??_ECXTPToolTipContextToolTip@@UAEPAXI@Z 0046fae0 f i ToolkitPro1501vc60S:XTPToolTipContext.obj
 0001:0006eae0       ??_GCXTPToolTipContextToolTip@@UAEPAXI@Z 0046fae0 f i ToolkitPro1501vc60S:XTPToolTipContext.obj
 0001:0006eb00       ??1ITEMDATA@CXTPSortClass@@QAE@XZ 0046fb00 f i ToolkitPro1501vc60S:XTPToolTipContext.obj
 0001:0006eb00       ??1TOOLITEM@CXTPToolTipContextToolTip@@QAE@XZ 0046fb00 f i ToolkitPro1501vc60S:XTPToolTipContext.obj
 0001:0006eb10       ??1CXTPToolTipContextToolTip@@UAE@XZ 0046fb10 f   ToolkitPro1501vc60S:XTPToolTipContext.obj
 0001:0006ec00       ?GetMessageMap@CXTPToolTipContextToolTip@@MBEPBUAFX_MSGMAP@@XZ 0046fc00 f   ToolkitPro1501vc60S:XTPToolTipContext.obj
 0001:0006ec10       ?Create@CXTPToolTipContextToolTip@@QAEHPAVCWnd@@K@Z 0046fc10 f   ToolkitPro1501vc60S:XTPToolTipContext.obj
 0001:0006ecd0       ?OnDestroy@CXTPToolTipContextToolTip@@IAEXXZ 0046fcd0 f   ToolkitPro1501vc60S:XTPToolTipContext.obj
 0001:0006edd0       ?OnSetImage@CXTPToolTipContextToolTip@@IAEJIJ@Z 0046fdd0 f   ToolkitPro1501vc60S:XTPToolTipContext.obj
 0001:0006ede0       ?OnSetTitle@CXTPToolTipContextToolTip@@IAEJIJ@Z 0046fde0 f   ToolkitPro1501vc60S:XTPToolTipContext.obj
 0001:0006ee00       ?OnSetDelayTime@CXTPToolTipContextToolTip@@IAEJIJ@Z 0046fe00 f   ToolkitPro1501vc60S:XTPToolTipContext.obj
 0001:0006ee40       ?OnUpdateTipText@CXTPToolTipContextToolTip@@IAEJIJ@Z 0046fe40 f   ToolkitPro1501vc60S:XTPToolTipContext.obj
 0001:0006eeb0       ?OnAddTool@CXTPToolTipContextToolTip@@IAEJIJ@Z 0046feb0 f   ToolkitPro1501vc60S:XTPToolTipContext.obj
 0001:0006eec0       ?OnActivate@CXTPToolTipContextToolTip@@IAEJIJ@Z 0046fec0 f   ToolkitPro1501vc60S:XTPToolTipContext.obj
 0001:0006eed0       ?OnDelTool@CXTPToolTipContextToolTip@@IAEJIJ@Z 0046fed0 f   ToolkitPro1501vc60S:XTPToolTipContext.obj
 0001:0006eee0       ?OnRelayEvent@CXTPToolTipContextToolTip@@IAEJIJ@Z 0046fee0 f   ToolkitPro1501vc60S:XTPToolTipContext.obj
 0001:0006eef0       ?OnWindowFromPoint@CXTPToolTipContextToolTip@@IAEJIJ@Z 0046fef0 f   ToolkitPro1501vc60S:XTPToolTipContext.obj
 0001:0006ef50       ?AddTool@CXTPToolTipContextToolTip@@QAEHPAUtagTOOLINFOA@@@Z 0046ff50 f   ToolkitPro1501vc60S:XTPToolTipContext.obj
 0001:0006f130       ?Activate@CXTPToolTipContextToolTip@@QAEXH@Z 00470130 f   ToolkitPro1501vc60S:XTPToolTipContext.obj
 0001:0006f1c0       ?DelTool@CXTPToolTipContextToolTip@@QAEXPAUtagTOOLINFOA@@@Z 004701c0 f   ToolkitPro1501vc60S:XTPToolTipContext.obj
 0001:0006f330       ?FindTool@CXTPToolTipContextToolTip@@IAEPAUTOOLITEM@1@XZ 00470330 f   ToolkitPro1501vc60S:XTPToolTipContext.obj
 0001:0006f440       ?GetToolText@CXTPToolTipContextToolTip@@IAE?AVCString@@PAUTOOLITEM@1@@Z 00470440 f   ToolkitPro1501vc60S:XTPToolTipContext.obj
 0001:0006f510       ?GetMaxTipWidth@CXTPToolTipContextToolTip@@IBEHXZ 00470510 f   ToolkitPro1501vc60S:XTPToolTipContext.obj
 0001:0006f530       ?GetToolSize@CXTPToolTipContextToolTip@@MAE?AVCSize@@PAUTOOLITEM@1@@Z 00470530 f   ToolkitPro1501vc60S:XTPToolTipContext.obj
 0001:0006f800       ?MouseProc@CXTPToolTipContextToolTip@@KGJHIJ@Z 00470800 f   ToolkitPro1501vc60S:XTPToolTipContext.obj
 0001:0006f8b0       ?HookMouseMove@CXTPToolTipContextToolTip@@IAEXH@Z 004708b0 f   ToolkitPro1501vc60S:XTPToolTipContext.obj
 0001:0006f920       ?EnsureVisible@CXTPToolTipContextToolTip@@IAEXAAVCRect@@@Z 00470920 f   ToolkitPro1501vc60S:XTPToolTipContext.obj
 0001:0006f9b0       ?GetCursorHeight@CXTPToolTipContext@@SAHXZ 004709b0 f   ToolkitPro1501vc60S:XTPToolTipContext.obj
 0001:0006fae0       ?SetRoundRectRegion@CXTPToolTipContextToolTip@@IAEXPAVCWnd@@@Z 00470ae0 f   ToolkitPro1501vc60S:XTPToolTipContext.obj
 0001:0006fc50       ?SetVisibleTool@CXTPToolTipContextToolTip@@IAEXPAUTOOLITEM@1@@Z 00470c50 f   ToolkitPro1501vc60S:XTPToolTipContext.obj
 0001:0006ffd0       ?RelayEvent@CXTPToolTipContextToolTip@@QAEXPAUtagMSG@@@Z 00470fd0 f   ToolkitPro1501vc60S:XTPToolTipContext.obj
 0001:00070210       ?DrawEntry@CXTPToolTipContextToolTip@@MAEXPAVCDC@@PAUTOOLITEM@1@VCRect@@@Z 00471210 f   ToolkitPro1501vc60S:XTPToolTipContext.obj
 0001:00070540       ?DrawBackground@CXTPToolTipContextToolTip@@MAEXPAVCDC@@PAUTOOLITEM@1@VCRect@@@Z 00471540 f   ToolkitPro1501vc60S:XTPToolTipContext.obj
 0001:00070580       ?OnPaint@CXTPToolTipContextToolTip@@IAEXXZ 00471580 f   ToolkitPro1501vc60S:XTPToolTipContext.obj
 0001:000706a0       ?DrawBackground@CXTPToolTipContext@@UAEXPAVCDC@@VCRect@@@Z 004716a0 f   ToolkitPro1501vc60S:XTPToolTipContext.obj
 0001:000708a0       ?OnEraseBkgnd@CXTPDockingPaneSplitterWnd@@IAEHPAVCDC@@@Z 004718a0 f   ToolkitPro1501vc60S:XTPToolTipContext.obj
 0001:000708a0       ?OnEraseBkgnd@CXTPTabControl@@IAEHPAVCDC@@@Z 004718a0 f   ToolkitPro1501vc60S:XTPToolTipContext.obj
 0001:000708a0       ?OnEraseBkgnd@CXTPListBase@@IAEHPAVCDC@@@Z 004718a0 f   ToolkitPro1501vc60S:XTPToolTipContext.obj
 0001:000708a0       ?OnEraseBkgnd@CXTPToolTipContextToolTip@@IAEHPAVCDC@@@Z 004718a0 f   ToolkitPro1501vc60S:XTPToolTipContext.obj
 0001:000708a0       ?GetAccessibleSelection@CXTPAccessible@@UAEJPAUtagVARIANT@@@Z 004718a0 f   ToolkitPro1501vc60S:XTPToolTipContext.obj
 0001:000708a0       ?GetAccessibleFocus@CXTPAccessible@@UAEJPAUtagVARIANT@@@Z 004718a0 f   ToolkitPro1501vc60S:XTPToolTipContext.obj
 0001:000708a0       ?OnEraseBkgnd@CXTPCommandBar@@QAEHPAVCDC@@@Z 004718a0 f   ToolkitPro1501vc60S:XTPToolTipContext.obj
 0001:000708a0       ?OnEraseBkgnd@CXTPEdit@@IAEHPAVCDC@@@Z 004718a0 f   ToolkitPro1501vc60S:XTPToolTipContext.obj
 0001:000708a0       ?Release@XTextHost@CXTPRichRender@@UAGKXZ 004718a0 f   ToolkitPro1501vc60S:XTPToolTipContext.obj
 0001:000708a0       ?OnEraseBkgnd@CXTPDockingPaneContextStickerWnd@@IAEHPAVCDC@@@Z 004718a0 f   ToolkitPro1501vc60S:XTPToolTipContext.obj
 0001:000708a0       ?OnEraseBkgnd@CXTPDockBar@@IAEHPAVCDC@@@Z 004718a0 f   ToolkitPro1501vc60S:XTPToolTipContext.obj
 0001:000708a0       ?OnEraseBkgnd@CSingleWorkspace@CXTPTabClientWnd@@QAEHPAVCDC@@@Z 004718a0 f   ToolkitPro1501vc60S:XTPToolTipContext.obj
 0001:000708a0       ?OnEraseBkgnd@CShadowWnd@CXTPShadowManager@@IAEHPAVCDC@@@Z 004718a0 f   ToolkitPro1501vc60S:XTPToolTipContext.obj
 0001:000708a0       ?TxGetPasswordChar@XTextHost@CXTPRichRender@@UAEJPAD@Z 004718a0 f   ToolkitPro1501vc60S:XTPToolTipContext.obj
 0001:000708a0       ?OnEraseBkgnd@CXTPPropertyPageStaticCaption@@IAEHPAVCDC@@@Z 004718a0 f   ToolkitPro1501vc60S:XTPToolTipContext.obj
 0001:000708a0       ?OnEraseBkgnd@CXTPDockingPaneContextAlphaWnd@@IAEHPAVCDC@@@Z 004718a0 f   ToolkitPro1501vc60S:XTPToolTipContext.obj
 0001:000708a0       ?OnEraseBkgnd@CXTPStatusBar@@QAEHPAVCDC@@@Z 004718a0 f   ToolkitPro1501vc60S:XTPToolTipContext.obj
 0001:000708a0       ?OnEraseBkgnd@CXTPDockingPaneAutoHideWnd@@IAEHPAVCDC@@@Z 004718a0 f   ToolkitPro1501vc60S:XTPToolTipContext.obj
 0001:000708a0       ?OnEraseBkgnd@CXTPReBar@@IAEHPAVCDC@@@Z 004718a0 f   ToolkitPro1501vc60S:XTPToolTipContext.obj
 0001:000708a0       ?OnEraseBkgnd@CXTPListBox@@IAEHPAVCDC@@@Z 004718a0 f   ToolkitPro1501vc60S:XTPToolTipContext.obj
 0001:000708a0       ?AddRef@XTextHost@CXTPRichRender@@UAGKXZ 004718a0 f   ToolkitPro1501vc60S:XTPToolTipContext.obj
 0001:000708a0       ?OnEraseBkgnd@CXTPHeaderCtrl@@IAEHPAVCDC@@@Z 004718a0 f   ToolkitPro1501vc60S:XTPToolTipContext.obj
 0001:000708a0       ?OnEraseBkgnd@CXTPResizeGroupBox@@IAEHPAVCDC@@@Z 004718a0 f   ToolkitPro1501vc60S:XTPToolTipContext.obj
 0001:000708a0       ?OnEraseBkgnd@CXTPButton@@IAEHPAVCDC@@@Z 004718a0 f   ToolkitPro1501vc60S:XTPToolTipContext.obj
 0001:000708a0       ?OnEraseBkgnd@CXTPTabCtrlButtons@@AAEHPAVCDC@@@Z 004718a0 f   ToolkitPro1501vc60S:XTPToolTipContext.obj
 0001:000708a0       ?OnBeforeItemClick@CXTPTabManager@@MAEHPAVCXTPTabManagerItem@@@Z 004718a0 f   ToolkitPro1501vc60S:XTPToolTipContext.obj
 0001:000708a0       ?OnEraseBkgnd@CXTPTabBase@@IAEHPAVCDC@@@Z 004718a0 f   ToolkitPro1501vc60S:XTPToolTipContext.obj
 0001:000708b0       ?OnNcHitTest@CShadowWnd@CXTPShadowManager@@IAEJVCPoint@@@Z 004718b0 f   ToolkitPro1501vc60S:XTPToolTipContext.obj
 0001:000708b0       ?OnNcHitTest@CXTPToolTipContextToolTip@@IAEJVCPoint@@@Z 004718b0 f   ToolkitPro1501vc60S:XTPToolTipContext.obj
 0001:000708b0       ?OnNcHitTest@CXTPCommandBarKeyboardTip@@IAEJVCPoint@@@Z 004718b0 f   ToolkitPro1501vc60S:XTPToolTipContext.obj
 0001:000708c0       ?OnMouseActivate@CXTPToolTipContextToolTip@@IAEHPAVCWnd@@II@Z 004718c0 f   ToolkitPro1501vc60S:XTPToolTipContext.obj
 0001:000708c0       ?OnMouseActivate@CXTPPopupBar@@IAEHPAVCWnd@@II@Z 004718c0 f   ToolkitPro1501vc60S:XTPToolTipContext.obj
 0001:000708d0       ?OnMouseMove@CXTPToolTipContextToolTip@@IAEXIVCPoint@@@Z 004718d0 f   ToolkitPro1501vc60S:XTPToolTipContext.obj
 0001:000708e0       ?OnTimer@CXTPToolTipContextToolTip@@IAEXI@Z 004718e0 f   ToolkitPro1501vc60S:XTPToolTipContext.obj
 0001:000709b0       ?GetMessageMap@CStandardToolTip@CXTPToolTipContext@@MBEPBUAFX_MSGMAP@@XZ 004719b0 f   ToolkitPro1501vc60S:XTPToolTipContext.obj
 0001:000709c0       ?OnWindowFromPoint@CStandardToolTip@CXTPToolTipContext@@IAEJIJ@Z 004719c0 f   ToolkitPro1501vc60S:XTPToolTipContext.obj
 0001:00070a10       ?GetToolSize@CRichEditToolTip@CXTPToolTipContext@@MAE?AVCSize@@PAUTOOLITEM@CXTPToolTipContextToolTip@@@Z 00471a10 f   ToolkitPro1501vc60S:XTPToolTipContext.obj
 0001:00070c60       ?DrawEntry@CRichEditToolTip@CXTPToolTipContext@@MAEXPAVCDC@@PAUTOOLITEM@CXTPToolTipContextToolTip@@VCRect@@@Z 00471c60 f   ToolkitPro1501vc60S:XTPToolTipContext.obj
 0001:00070cd0       ?GetToolSize@CMarkupToolTip@CXTPToolTipContext@@MAE?AVCSize@@PAUTOOLITEM@CXTPToolTipContextToolTip@@@Z 00471cd0 f   ToolkitPro1501vc60S:XTPToolTipContext.obj
 0001:00070e00       ?DrawEntry@CMarkupToolTip@CXTPToolTipContext@@MAEXPAVCDC@@PAUTOOLITEM@CXTPToolTipContextToolTip@@VCRect@@@Z 00471e00 f   ToolkitPro1501vc60S:XTPToolTipContext.obj
 0001:00070ed0       ?GetInterfaceMap@CHTMLToolTip@CXTPToolTipContext@@MBEPBUAFX_INTERFACEMAP@@XZ 00471ed0 f   ToolkitPro1501vc60S:XTPToolTipContext.obj
 0001:00070ee0       ?AddRef@XOleClientSite@CHTMLToolTip@CXTPToolTipContext@@UAGKXZ 00471ee0 f   ToolkitPro1501vc60S:XTPToolTipContext.obj
 0001:00070f00       ?Release@XOleClientSite@CHTMLToolTip@CXTPToolTipContext@@UAGKXZ 00471f00 f   ToolkitPro1501vc60S:XTPToolTipContext.obj
 0001:00070f20       ?QueryInterface@XOleClientSite@CHTMLToolTip@CXTPToolTipContext@@UAGJABU_GUID@@PAPAX@Z 00471f20 f   ToolkitPro1501vc60S:XTPToolTipContext.obj
 0001:00070f40       ?AddRef@XDocHostUIHandler@CHTMLToolTip@CXTPToolTipContext@@UAGKXZ 00471f40 f   ToolkitPro1501vc60S:XTPToolTipContext.obj
 0001:00070f60       ?Release@XDocHostUIHandler@CHTMLToolTip@CXTPToolTipContext@@UAGKXZ 00471f60 f   ToolkitPro1501vc60S:XTPToolTipContext.obj
 0001:00070f80       ?QueryInterface@XDocHostUIHandler@CHTMLToolTip@CXTPToolTipContext@@UAGJABU_GUID@@PAPAX@Z 00471f80 f   ToolkitPro1501vc60S:XTPToolTipContext.obj
 0001:00070fa0       ?GetHostInfo@XDocHostUIHandler@CHTMLToolTip@CXTPToolTipContext@@UAGJPAU_DOCHOSTUIINFO@@@Z 00471fa0 f   ToolkitPro1501vc60S:XTPToolTipContext.obj
 0001:00070fc0       ?ShowUI@XDocHostUIHandler@CHTMLToolTip@CXTPToolTipContext@@UAGJKPAUIOleInPlaceActiveObject@@PAUIOleCommandTarget@@PAUIOleInPlaceFrame@@PAUIOleInPlaceUIWindow@@@Z 00471fc0 f   ToolkitPro1501vc60S:XTPToolTipContext.obj
 0001:00070fd0       ?EnableModeless@XDocHostUIHandler@CHTMLToolTip@CXTPToolTipContext@@UAGJH@Z 00471fd0 f   ToolkitPro1501vc60S:XTPToolTipContext.obj
 0001:00070fd0       ?OnDocWindowActivate@XDocHostUIHandler@CHTMLToolTip@CXTPToolTipContext@@UAGJH@Z 00471fd0 f   ToolkitPro1501vc60S:XTPToolTipContext.obj
 0001:00070fd0       ?GetTypeInfoCount@XAccessible@CXTPAccessible@@UAGJPAI@Z 00471fd0 f   ToolkitPro1501vc60S:XTPToolTipContext.obj
 0001:00070fd0       ?GetExternal@XDocHostUIHandler@CHTMLToolTip@CXTPToolTipContext@@UAGJPAPAUIDispatch@@@Z 00471fd0 f   ToolkitPro1501vc60S:XTPToolTipContext.obj
 0001:00070fd0       ?OnFrameWindowActivate@XDocHostUIHandler@CHTMLToolTip@CXTPToolTipContext@@UAGJH@Z 00471fd0 f   ToolkitPro1501vc60S:XTPToolTipContext.obj
 0001:00070fe0       ?AccessibleDoDefaultAction@CXTPAccessible@@UAEJUtagVARIANT@@@Z 00471fe0 f   ToolkitPro1501vc60S:XTPToolTipContext.obj
 0001:00070fe0       ?TranslateUrl@XDocHostUIHandler@CHTMLToolTip@CXTPToolTipContext@@UAGJKPAGPAPAG@Z 00471fe0 f   ToolkitPro1501vc60S:XTPToolTipContext.obj
 0001:00070fe0       ?ResizeBorder@XDocHostUIHandler@CHTMLToolTip@CXTPToolTipContext@@UAGJPBUtagRECT@@PAUIOleInPlaceUIWindow@@H@Z 00471fe0 f   ToolkitPro1501vc60S:XTPToolTipContext.obj
 0001:00070fe0       ?GetTypeInfo@XAccessible@CXTPAccessible@@UAGJIKPAPAUITypeInfo@@@Z 00471fe0 f   ToolkitPro1501vc60S:XTPToolTipContext.obj
 0001:00070ff0       ?ShowContextMenu@XDocHostUIHandler@CHTMLToolTip@CXTPToolTipContext@@UAGJKPAUtagPOINT@@PAUIUnknown@@PAUIDispatch@@@Z 00471ff0 f   ToolkitPro1501vc60S:XTPToolTipContext.obj
 0001:00071000       ?IsCustomizeDragOverAvail@CXTPControl@@MAEHPAVCXTPCommandBar@@VCPoint@@AAK@Z 00472000 f   ToolkitPro1501vc60S:XTPToolTipContext.obj
 0001:00071000       ?TranslateAcceleratorA@XDocHostUIHandler@CHTMLToolTip@CXTPToolTipContext@@UAGJPAUtagMSG@@PBU_GUID@@K@Z 00472000 f   ToolkitPro1501vc60S:XTPToolTipContext.obj
 0001:00071010       ?AccessibleHitTest@CXTPAccessible@@UAEJJJPAUtagVARIANT@@@Z 00472010 f   ToolkitPro1501vc60S:XTPToolTipContext.obj
 0001:00071010       ?GetOptionKeyPath@XDocHostUIHandler@CHTMLToolTip@CXTPToolTipContext@@UAGJPAPAGK@Z 00472010 f   ToolkitPro1501vc60S:XTPToolTipContext.obj
 0001:00071010       ?GetDropTarget@XDocHostUIHandler@CHTMLToolTip@CXTPToolTipContext@@UAGJPAUIDropTarget@@PAPAU4@@Z 00472010 f   ToolkitPro1501vc60S:XTPToolTipContext.obj
 0001:00071010       ?FilterDataObject@XDocHostUIHandler@CHTMLToolTip@CXTPToolTipContext@@UAGJPAUIDataObject@@PAPAU4@@Z 00472010 f   ToolkitPro1501vc60S:XTPToolTipContext.obj
 0001:00071020       ??0CHTMLToolTip@CXTPToolTipContext@@QAE@PAV1@@Z 00472020 f   ToolkitPro1501vc60S:XTPToolTipContext.obj
 0001:000710c0       ?ShowObject@XOleClientSite@CHTMLToolTip@CXTPToolTipContext@@UAGJXZ 004720c0 f i ToolkitPro1501vc60S:XTPToolTipContext.obj
 0001:000710c0       ?SaveObject@XOleClientSite@CHTMLToolTip@CXTPToolTipContext@@UAGJXZ 004720c0 f i ToolkitPro1501vc60S:XTPToolTipContext.obj
 0001:000710c0       ?RequestNewObjectLayout@XOleClientSite@CHTMLToolTip@CXTPToolTipContext@@UAGJXZ 004720c0 f i ToolkitPro1501vc60S:XTPToolTipContext.obj
 0001:000710d0       ?GetMoniker@XOleClientSite@CHTMLToolTip@CXTPToolTipContext@@UAGJKKPAPAUIMoniker@@@Z 004720d0 f i ToolkitPro1501vc60S:XTPToolTipContext.obj
 0001:000710e0       ?GetContainer@XOleClientSite@CHTMLToolTip@CXTPToolTipContext@@UAGJPAPAUIOleContainer@@@Z 004720e0 f i ToolkitPro1501vc60S:XTPToolTipContext.obj
 0001:000710e0       ?OnShowWindow@XOleClientSite@CHTMLToolTip@CXTPToolTipContext@@UAGJH@Z 004720e0 f i ToolkitPro1501vc60S:XTPToolTipContext.obj
 0001:000710f0       ??_ECHTMLToolTip@CXTPToolTipContext@@UAEPAXI@Z 004720f0 f i ToolkitPro1501vc60S:XTPToolTipContext.obj
 0001:000710f0       ??_GCHTMLToolTip@CXTPToolTipContext@@UAEPAXI@Z 004720f0 f i ToolkitPro1501vc60S:XTPToolTipContext.obj
 0001:00071110       ??1CHTMLToolTip@CXTPToolTipContext@@UAE@XZ 00472110 f   ToolkitPro1501vc60S:XTPToolTipContext.obj
 0001:000711a0       ?GetToolSize@CHTMLToolTip@CXTPToolTipContext@@MAE?AVCSize@@PAUTOOLITEM@CXTPToolTipContextToolTip@@@Z 004721a0 f   ToolkitPro1501vc60S:XTPToolTipContext.obj
 0001:00071700       ?DrawEntry@CHTMLToolTip@CXTPToolTipContext@@MAEXPAVCDC@@PAUTOOLITEM@CXTPToolTipContextToolTip@@VCRect@@@Z 00472700 f   ToolkitPro1501vc60S:XTPToolTipContext.obj
 0001:00071790       ?OnVisibleChanged@CHTMLToolTip@CXTPToolTipContext@@MAEXH@Z 00472790 f   ToolkitPro1501vc60S:XTPToolTipContext.obj
 0001:000717b0       ??0CXTPToolTipContext@@QAE@XZ 004727b0 f   ToolkitPro1501vc60S:XTPToolTipContext.obj
 0001:00071930       ??_ECXTPToolTipContext@@UAEPAXI@Z 00472930 f i ToolkitPro1501vc60S:XTPToolTipContext.obj
 0001:00071930       ??_GCXTPToolTipContext@@UAEPAXI@Z 00472930 f i ToolkitPro1501vc60S:XTPToolTipContext.obj
 0001:00071950       ??1CXTPToolTipContext@@UAE@XZ 00472950 f   ToolkitPro1501vc60S:XTPToolTipContext.obj
 0001:00071a10       ?IsBalloonStyleSupported@CXTPToolTipContext@@QBEHXZ 00472a10 f   ToolkitPro1501vc60S:XTPToolTipContext.obj
 0001:00071a20       ?FillInToolInfo@CXTPToolTipContext@@SAXPAUtagTOOLINFOA@@PAUHWND__@@VCRect@@HABVCString@@@Z 00472a20 f   ToolkitPro1501vc60S:XTPToolTipContext.obj
 0001:00071aa0       ?FillInToolInfo@CXTPToolTipContext@@SAXPAUtagTOOLINFOA@@PAUHWND__@@VCRect@@HABVCString@@33PAVCXTPImageManager@@@Z 00472aa0 f   ToolkitPro1501vc60S:XTPToolTipContext.obj
 0001:00071ba0       ?SetStyle@CXTPToolTipContext@@QAEXW4XTPToolTipStyle@@@Z 00472ba0 f   ToolkitPro1501vc60S:XTPToolTipContext.obj
 0001:00071c30       ?GetTipBkColor@CXTPToolTipContext@@QBEKXZ 00472c30 f   ToolkitPro1501vc60S:XTPToolTipContext.obj
 0001:00071c50       ?ModifyToolTipStyle@CXTPToolTipContext@@QAEXKK@Z 00472c50 f   ToolkitPro1501vc60S:XTPToolTipContext.obj
 0001:00071c90       ?GetTipTextColor@CXTPToolTipContext@@QBEKXZ 00472c90 f   ToolkitPro1501vc60S:XTPToolTipContext.obj
 0001:00071cc0       ?RelayToolTipMessage@CXTPToolTipContext@@QAEXPAVCWnd@@PAUtagMSG@@@Z 00472cc0 f   ToolkitPro1501vc60S:XTPToolTipContext.obj
 0001:00071d60       ?FilterToolTipMessage@CXTPToolTipContext@@QAEXPAVCWnd@@IIJ@Z 00472d60 f   ToolkitPro1501vc60S:XTPToolTipContext.obj
 0001:00071db0       ?FilterToolTipMessage@CXTPToolTipContext@@QAEXPAVCWnd@@PAUtagMSG@@@Z 00472db0 f   ToolkitPro1501vc60S:XTPToolTipContext.obj
 0001:00071dd0       ?CreateToolTip@CXTPToolTipContext@@MAEPAVCWnd@@PAV2@@Z 00472dd0 f   ToolkitPro1501vc60S:XTPToolTipContext.obj
 0001:00072010       ?DrawBackground@CLunaToolTip@CXTPToolTipContext@@UAEXPAVCDC@@PAUTOOLITEM@CXTPToolTipContextToolTip@@VCRect@@@Z 00473010 f i ToolkitPro1501vc60S:XTPToolTipContext.obj
 0001:00072140       ??_ECLunaToolTip@CXTPToolTipContext@@UAEPAXI@Z 00473140 f i ToolkitPro1501vc60S:XTPToolTipContext.obj
 0001:00072140       ??_GCLunaToolTip@CXTPToolTipContext@@UAEPAXI@Z 00473140 f i ToolkitPro1501vc60S:XTPToolTipContext.obj
 0001:00072160       ??1CLunaToolTip@CXTPToolTipContext@@UAE@XZ 00473160 f i ToolkitPro1501vc60S:XTPToolTipContext.obj
 0001:00072170       ??_GCRichEditToolTip@CXTPToolTipContext@@UAEPAXI@Z 00473170 f i ToolkitPro1501vc60S:XTPToolTipContext.obj
 0001:00072170       ??_ECRichEditToolTip@CXTPToolTipContext@@UAEPAXI@Z 00473170 f i ToolkitPro1501vc60S:XTPToolTipContext.obj
 0001:00072190       ??1CRichEditToolTip@CXTPToolTipContext@@UAE@XZ 00473190 f i ToolkitPro1501vc60S:XTPToolTipContext.obj
 0001:000721e0       ??_GCMarkupToolTip@CXTPToolTipContext@@UAEPAXI@Z 004731e0 f i ToolkitPro1501vc60S:XTPToolTipContext.obj
 0001:000721e0       ??_ECMarkupToolTip@CXTPToolTipContext@@UAEPAXI@Z 004731e0 f i ToolkitPro1501vc60S:XTPToolTipContext.obj
 0001:00072200       ??1CMarkupToolTip@CXTPToolTipContext@@UAE@XZ 00473200 f i ToolkitPro1501vc60S:XTPToolTipContext.obj
 0001:00072270       ??_GCStandardToolTip@CXTPToolTipContext@@UAEPAXI@Z 00473270 f i ToolkitPro1501vc60S:XTPToolTipContext.obj
 0001:00072270       ??_ECStandardToolTip@CXTPToolTipContext@@UAEPAXI@Z 00473270 f i ToolkitPro1501vc60S:XTPToolTipContext.obj
 0001:00072290       ??1CStandardToolTip@CXTPToolTipContext@@UAE@XZ 00473290 f i ToolkitPro1501vc60S:XTPToolTipContext.obj
 0001:000722a0       ?CancelToolTips@CXTPToolTipContext@@QAEXXZ 004732a0 f   ToolkitPro1501vc60S:XTPToolTipContext.obj
 0001:000722d0       ?OnToolHitTest@CXTPToolTipContext@@MAEHPAVCWnd@@VCPoint@@PAUtagTOOLINFOA@@@Z 004732d0 f   ToolkitPro1501vc60S:XTPToolTipContext.obj
 0001:000722f0       ?FilterToolTipMessageHelper@CXTPToolTipContext@@QAEXPAVCWnd@@PAUtagMSG@@H@Z 004732f0 f   ToolkitPro1501vc60S:XTPToolTipContext.obj
 0001:00072a40       ??1?$CArray@PAUTOOLITEM@CXTPToolTipContextToolTip@@PAU12@@@UAE@XZ 00473a40 f i ToolkitPro1501vc60S:XTPToolTipContext.obj
 0001:00072a90       ??_G?$CArray@PAUTOOLITEM@CXTPToolTipContextToolTip@@PAU12@@@UAEPAXI@Z 00473a90 f i ToolkitPro1501vc60S:XTPToolTipContext.obj
 0001:00072a90       ??_E?$CArray@PAUTOOLITEM@CXTPToolTipContextToolTip@@PAU12@@@UAEPAXI@Z 00473a90 f i ToolkitPro1501vc60S:XTPToolTipContext.obj
 0001:00072ab0       ??1COleVariant@@QAE@XZ     00473ab0 f i ToolkitPro1501vc60S:XTPToolTipContext.obj
 0001:00072ac0       ?XTPMarkupCreateContext@@YAPAVCXTPMarkupContext@@PAUHWND__@@@Z 00473ac0 f   ToolkitPro1501vc60S:XTPMarkupRender.obj
 0001:00072b30       ?XTPMarkupReleaseContext@@YAXAAPAVCXTPMarkupContext@@@Z 00473b30 f   ToolkitPro1501vc60S:XTPMarkupRender.obj
 0001:00072b50       ?XTPMarkupReleaseElement@@YAXAAPAVCXTPMarkupUIElement@@@Z 00473b50 f   ToolkitPro1501vc60S:XTPMarkupRender.obj
 0001:00072b70       ?XTPMarkupParseText@@YAPAVCXTPMarkupUIElement@@PAVCXTPMarkupContext@@PBD@Z 00473b70 f   ToolkitPro1501vc60S:XTPMarkupRender.obj
 0001:00072b90       ?XTPMarkupElementContext@@YAPAVCXTPMarkupContext@@PAVCXTPMarkupUIElement@@@Z 00473b90 f   ToolkitPro1501vc60S:XTPMarkupRender.obj
 0001:00072ba0       ?XTPMarkupMeasureElement@@YA?AVCSize@@PAVCXTPMarkupUIElement@@HH@Z 00473ba0 f   ToolkitPro1501vc60S:XTPMarkupRender.obj
 0001:00072c40       ?XTPMarkupRenderElement@@YAXPAVCXTPMarkupUIElement@@PAUHDC__@@PBUtagRECT@@@Z 00473c40 f   ToolkitPro1501vc60S:XTPMarkupRender.obj
 0001:00072cf0       ?XTPMarkupSetDefaultFont@@YAXPAVCXTPMarkupContext@@PAUHFONT__@@K@Z 00473cf0 f   ToolkitPro1501vc60S:XTPMarkupRender.obj
 0001:00072d40       ?XTPMarkupRelayMessage@@YAHPAVCXTPMarkupUIElement@@IIJPAJ@Z 00473d40 f   ToolkitPro1501vc60S:XTPMarkupRender.obj
 0001:00072d70       ??0CXTPButtonTheme@@QAE@XZ 00473d70 f   ToolkitPro1501vc60S:XTPButtonTheme.obj
 0001:00072e50       ??_GCXTPButtonTheme@@UAEPAXI@Z 00473e50 f i ToolkitPro1501vc60S:XTPButtonTheme.obj
 0001:00072e50       ??_ECXTPButtonTheme@@UAEPAXI@Z 00473e50 f i ToolkitPro1501vc60S:XTPButtonTheme.obj
 0001:00072e70       ??1CXTPButtonTheme@@UAE@XZ 00473e70 f   ToolkitPro1501vc60S:XTPButtonTheme.obj
 0001:00072ed0       ?RefreshMetrics@CXTPButtonTheme@@UAEXPAVCXTPButton@@@Z 00473ed0 f   ToolkitPro1501vc60S:XTPButtonTheme.obj
 0001:00072f80       ?DrawFocusRect@CXTPButtonTheme@@UAEXPAVCDC@@PAVCXTPButton@@@Z 00473f80 f   ToolkitPro1501vc60S:XTPButtonTheme.obj
 0001:00073030       ?DrawButtonVisualStyleBackground@CXTPButtonTheme@@UAEXPAVCDC@@PAVCXTPButton@@@Z 00474030 f   ToolkitPro1501vc60S:XTPButtonTheme.obj
 0001:00073170       ?DrawButtonBackground@CXTPButtonTheme@@UAEXPAVCDC@@PAVCXTPButton@@@Z 00474170 f   ToolkitPro1501vc60S:XTPButtonTheme.obj
 0001:00073320       ?GetTextColor@CXTPButtonTheme@@UAEKPAVCXTPButton@@@Z 00474320 f   ToolkitPro1501vc60S:XTPButtonTheme.obj
 0001:00073360       ?DrawButtonText@CXTPButtonTheme@@QAEXPAVCDC@@PAVCXTPButton@@@Z 00474360 f   ToolkitPro1501vc60S:XTPButtonTheme.obj
 0001:00073a00       ?CalcRect@CXTPButtonTheme@@QAEXPAVCDC@@PAVCXTPButton@@PAUtagRECT@@H@Z 00474a00 f   ToolkitPro1501vc60S:XTPButtonTheme.obj
 0001:00073cf0       ?CalcRects@CXTPButtonTheme@@QAEXPAVCDC@@PAVCXTPButton@@PAVCRect@@PAI2@Z 00474cf0 f   ToolkitPro1501vc60S:XTPButtonTheme.obj
 0001:000742d0       ?IsVisualThemeUsed@CXTPButtonTheme@@QAEHPAVCXTPButton@@@Z 004752d0 f   ToolkitPro1501vc60S:XTPButtonTheme.obj
 0001:00074300       ?DrawPushButtonDropDown@CXTPButtonTheme@@QAEXPAVCDC@@PAVCXTPButton@@@Z 00475300 f   ToolkitPro1501vc60S:XTPButtonTheme.obj
 0001:000745c0       ?DrawPushButtonText@CXTPButtonTheme@@UAEXPAVCDC@@PAVCXTPButton@@@Z 004755c0 f   ToolkitPro1501vc60S:XTPButtonTheme.obj
 0001:00074730       ?DrawPushButtonIcon@CXTPButtonTheme@@QAEXPAVCDC@@PAVCXTPButton@@@Z 00475730 f   ToolkitPro1501vc60S:XTPButtonTheme.obj
 0001:00074900       ?DrawCheckBoxMark@CXTPButtonTheme@@UAEXPAVCDC@@PAVCXTPButton@@@Z 00475900 f   ToolkitPro1501vc60S:XTPButtonTheme.obj
 0001:00074a50       ?DrawRadioButtonMark@CXTPButtonTheme@@UAEXPAVCDC@@PAVCXTPButton@@@Z 00475a50 f   ToolkitPro1501vc60S:XTPButtonTheme.obj
 0001:00074b70       ?DrawGroupBox@CXTPButtonTheme@@UAEXPAVCDC@@PAVCXTPButton@@@Z 00475b70 f   ToolkitPro1501vc60S:XTPButtonTheme.obj
 0001:00074d00       ??0CXTPButtonFlatTheme@@QAE@XZ 00475d00 f   ToolkitPro1501vc60S:XTPButtonTheme.obj
 0001:00074d30       ?DrawButtonBackground@CXTPButtonFlatTheme@@UAEXPAVCDC@@PAVCXTPButton@@@Z 00475d30 f   ToolkitPro1501vc60S:XTPButtonTheme.obj
 0001:00074e90       ??0CXTPButtonUltraFlatTheme@@QAE@XZ 00475e90 f   ToolkitPro1501vc60S:XTPButtonTheme.obj
 0001:00074f30       ?RefreshMetrics@CXTPButtonUltraFlatTheme@@UAEXPAVCXTPButton@@@Z 00475f30 f   ToolkitPro1501vc60S:XTPButtonTheme.obj
 0001:00075170       ?DrawButtonBackground@CXTPButtonUltraFlatTheme@@UAEXPAVCDC@@PAVCXTPButton@@@Z 00476170 f   ToolkitPro1501vc60S:XTPButtonTheme.obj
 0001:00075330       ?DrawGroupBox@CXTPButtonUltraFlatTheme@@UAEXPAVCDC@@PAVCXTPButton@@@Z 00476330 f   ToolkitPro1501vc60S:XTPButtonTheme.obj
 0001:00075440       ?DrawCheckBoxMark@CXTPButtonUltraFlatTheme@@UAEXPAVCDC@@PAVCXTPButton@@@Z 00476440 f   ToolkitPro1501vc60S:XTPButtonTheme.obj
 0001:00075710       ?AlphaEllipse@CXTPButtonTheme@@QAEXPAVCDC@@VCRect@@KK@Z 00476710 f   ToolkitPro1501vc60S:XTPButtonTheme.obj
 0001:00075940       ?DrawRadioButtonMark@CXTPButtonUltraFlatTheme@@UAEXPAVCDC@@PAVCXTPButton@@@Z 00476940 f   ToolkitPro1501vc60S:XTPButtonTheme.obj
 0001:00075b30       ??0CXTPButtonOffice2000Theme@@QAE@XZ 00476b30 f   ToolkitPro1501vc60S:XTPButtonTheme.obj
 0001:00075b60       ?DrawButtonBackground@CXTPButtonOffice2000Theme@@UAEXPAVCDC@@PAVCXTPButton@@@Z 00476b60 f   ToolkitPro1501vc60S:XTPButtonTheme.obj
 0001:00075c70       ??0CXTPButtonResourceTheme@@QAE@XZ 00476c70 f   ToolkitPro1501vc60S:XTPButtonTheme.obj
 0001:00075ca0       ?RefreshMetrics@CXTPButtonResourceTheme@@UAEXPAVCXTPButton@@@Z 00476ca0 f   ToolkitPro1501vc60S:XTPButtonTheme.obj
 0001:00075d30       ?DrawCheckBoxMark@CXTPButtonResourceTheme@@UAEXPAVCDC@@PAVCXTPButton@@@Z 00476d30 f   ToolkitPro1501vc60S:XTPButtonTheme.obj
 0001:00075e70       ?DrawRadioButtonMark@CXTPButtonResourceTheme@@UAEXPAVCDC@@PAVCXTPButton@@@Z 00476e70 f   ToolkitPro1501vc60S:XTPButtonTheme.obj
 0001:00075fa0       ?DrawButtonBackground@CXTPButtonResourceTheme@@UAEXPAVCDC@@PAVCXTPButton@@@Z 00476fa0 f   ToolkitPro1501vc60S:XTPButtonTheme.obj
 0001:00076180       ??0CXTPButtonOfficeXPTheme@@QAE@XZ 00477180 f   ToolkitPro1501vc60S:XTPButtonTheme.obj
 0001:000761b0       ?RefreshMetrics@CXTPButtonOfficeXPTheme@@UAEXPAVCXTPButton@@@Z 004771b0 f   ToolkitPro1501vc60S:XTPButtonTheme.obj
 0001:00076270       ?DrawButtonBackground@CXTPButtonOfficeXPTheme@@UAEXPAVCDC@@PAVCXTPButton@@@Z 00477270 f   ToolkitPro1501vc60S:XTPButtonTheme.obj
 0001:000763e0       ??0CXTPButtonOffice2003Theme@@QAE@XZ 004773e0 f   ToolkitPro1501vc60S:XTPButtonTheme.obj
 0001:00076410       ??_GCXTPButtonFlatTheme@@UAEPAXI@Z 00477410 f i ToolkitPro1501vc60S:XTPButtonTheme.obj
 0001:00076410       ??_ECXTPButtonFlatTheme@@UAEPAXI@Z 00477410 f i ToolkitPro1501vc60S:XTPButtonTheme.obj
 0001:00076410       ??_ECXTPButtonOffice2003Theme@@UAEPAXI@Z 00477410 f i ToolkitPro1501vc60S:XTPButtonTheme.obj
 0001:00076410       ??_ECXTPButtonResourceTheme@@UAEPAXI@Z 00477410 f i ToolkitPro1501vc60S:XTPButtonTheme.obj
 0001:00076410       ??_GCXTPButtonOfficeXPTheme@@UAEPAXI@Z 00477410 f i ToolkitPro1501vc60S:XTPButtonTheme.obj
 0001:00076410       ??_ECXTPButtonOffice2000Theme@@UAEPAXI@Z 00477410 f i ToolkitPro1501vc60S:XTPButtonTheme.obj
 0001:00076410       ??_ECXTPButtonOfficeXPTheme@@UAEPAXI@Z 00477410 f i ToolkitPro1501vc60S:XTPButtonTheme.obj
 0001:00076410       ??_GCXTPButtonUltraFlatTheme@@UAEPAXI@Z 00477410 f i ToolkitPro1501vc60S:XTPButtonTheme.obj
 0001:00076410       ??_ECXTPButtonUltraFlatTheme@@UAEPAXI@Z 00477410 f i ToolkitPro1501vc60S:XTPButtonTheme.obj
 0001:00076410       ??_GCXTPButtonOffice2003Theme@@UAEPAXI@Z 00477410 f i ToolkitPro1501vc60S:XTPButtonTheme.obj
 0001:00076410       ??_GCXTPButtonResourceTheme@@UAEPAXI@Z 00477410 f i ToolkitPro1501vc60S:XTPButtonTheme.obj
 0001:00076410       ??_GCXTPButtonOffice2000Theme@@UAEPAXI@Z 00477410 f i ToolkitPro1501vc60S:XTPButtonTheme.obj
 0001:00076430       ??1CXTPButtonOffice2003Theme@@UAE@XZ 00477430 f i ToolkitPro1501vc60S:XTPButtonTheme.obj
 0001:00076430       ??1CXTPButtonOffice2000Theme@@UAE@XZ 00477430 f i ToolkitPro1501vc60S:XTPButtonTheme.obj
 0001:00076430       ??1CXTPButtonOfficeXPTheme@@UAE@XZ 00477430 f i ToolkitPro1501vc60S:XTPButtonTheme.obj
 0001:00076430       ??1CXTPButtonResourceTheme@@UAE@XZ 00477430 f i ToolkitPro1501vc60S:XTPButtonTheme.obj
 0001:00076430       ??1CXTPButtonFlatTheme@@UAE@XZ 00477430 f i ToolkitPro1501vc60S:XTPButtonTheme.obj
 0001:00076430       ??1CXTPButtonUltraFlatTheme@@UAE@XZ 00477430 f i ToolkitPro1501vc60S:XTPButtonTheme.obj
 0001:00076440       ?RefreshMetrics@CXTPButtonOffice2003Theme@@UAEXPAVCXTPButton@@@Z 00477440 f   ToolkitPro1501vc60S:XTPButtonTheme.obj
 0001:00076530       ?DrawButtonBackground@CXTPButtonOffice2003Theme@@UAEXPAVCDC@@PAVCXTPButton@@@Z 00477530 f   ToolkitPro1501vc60S:XTPButtonTheme.obj
 0001:000766e0       ?DrawState@CDC@@QAEHVCPoint@@VCSize@@PAUHICON__@@IPAUHBRUSH__@@@Z 004776e0 f i ToolkitPro1501vc60S:XTPButtonTheme.obj
 0001:00076780       ?BitmapsCompatible@CXTPImageManager@@ABEHPAUtagBITMAP@@0@Z 00477780 f   ToolkitPro1501vc60S:XTPImageManager.obj
 0001:000767d0       ?McTransparentBlt@CXTPImageManager@@ABEHPAUHDC__@@HHHH0HHHHI@Z 004777d0 f   ToolkitPro1501vc60S:XTPImageManager.obj
 0001:00076a70       ?IsWindow2000@CXTPImageManager@@ABEHXZ 00477a70 f   ToolkitPro1501vc60S:XTPImageManager.obj
 0001:00076a90       ?TransparentBlt@CXTPImageManager@@QBEHPAUHDC__@@ABVCRect@@01I@Z 00477a90 f   ToolkitPro1501vc60S:XTPImageManager.obj
 0001:00076b60       ?BlendImages@CXTPImageManager@@ABEHPAUHBITMAP__@@H0H0@Z 00477b60 f   ToolkitPro1501vc60S:XTPImageManager.obj
 0001:00076da0       ?Create32BPPDIBSection@CXTPImageManager@@SAPAUHBITMAP__@@PAUHDC__@@HHPAPAE@Z 00477da0 f   ToolkitPro1501vc60S:XTPImageManager.obj
 0001:00076e10       ?DoAlphaBlend@CXTPImageManager@@ABEHPAUHDC__@@HHHH0HHHH@Z 00477e10 f   ToolkitPro1501vc60S:XTPImageManager.obj
 0001:00077050       ?AlphaBlend@CXTPImageManager@@QBEHPAUHDC__@@ABVCRect@@01@Z 00478050 f   ToolkitPro1501vc60S:XTPImageManager.obj
 0001:000771a0       ??1CXTPImageManagerImageList@@QAE@XZ 004781a0 f   ToolkitPro1501vc60S:XTPImageManager.obj
 0001:00077250       ?RemoveAll@CXTPImageManagerImageList@@QAEXXZ 00478250 f   ToolkitPro1501vc60S:XTPImageManager.obj
 0001:00077300       ?Lookup@CXTPImageManagerImageList@@QAEHI@Z 00478300 f   ToolkitPro1501vc60S:XTPImageManager.obj
 0001:00077330       ?GetIconSize@CXTPImageManagerImageList@@QBE?AVCSize@@XZ 00478330 f   ToolkitPro1501vc60S:XTPImageManager.obj
 0001:00077370       ?GetIcon@CXTPImageManagerImageList@@QAEPAVCXTPImageManagerIcon@@I@Z 00478370 f   ToolkitPro1501vc60S:XTPImageManager.obj
 0001:00077510       ?Draw@CXTPImageManagerImageList@@QAEXPAVCDC@@VCPoint@@PAVCXTPImageManagerIcon@@VCSize@@KKI@Z 00478510 f   ToolkitPro1501vc60S:XTPImageManager.obj
 0001:00077570       ?IsAlphaBitmapFile@CXTPImageManagerIcon@@SAHPBD@Z 00478570 f   ToolkitPro1501vc60S:XTPImageManager.obj
 0001:00077610       ?IsPngBitmapFile@CXTPImageManagerIcon@@SAHPBD@Z 00478610 f   ToolkitPro1501vc60S:XTPImageManager.obj
 0001:000776b0       ?LoadBitmapFromFile@CXTPImageManagerIcon@@SAPAUHBITMAP__@@PBDPAH@Z 004786b0 f   ToolkitPro1501vc60S:XTPImageManager.obj
 0001:00077950       ??1CXTPGraphicBitmapPng@@UAE@XZ 00478950 f i ToolkitPro1501vc60S:XTPImageManager.obj
 0001:00077990       ?IsPngBitmapResource@CXTPImageManagerIcon@@SAHPAUHINSTANCE__@@PBD@Z 00478990 f   ToolkitPro1501vc60S:XTPImageManager.obj
 0001:000779f0       ?IsAlphaBitmapResource@CXTPImageManagerIcon@@SAHPAUHINSTANCE__@@PBD@Z 004789f0 f   ToolkitPro1501vc60S:XTPImageManager.obj
 0001:00077a40       ?LoadBitmapFromResource@CXTPImageManagerIcon@@SAPAUHBITMAP__@@PBDPAH@Z 00478a40 f   ToolkitPro1501vc60S:XTPImageManager.obj
 0001:00077ba0       ?LoadBitmapFromResource@CXTPImageManagerIcon@@SAPAUHBITMAP__@@PAUHINSTANCE__@@PBDPAH@Z 00478ba0 f   ToolkitPro1501vc60S:XTPImageManager.obj
 0001:00077cf0       ?LoadAlphaBitmap@CXTPImageManagerIcon@@SAPAUHBITMAP__@@I@Z 00478cf0 f   ToolkitPro1501vc60S:XTPImageManager.obj
 0001:00077d10       ?LoadAlphaBitmap@CXTPImageManagerIcon@@SAPAUHBITMAP__@@PAUHINSTANCE__@@PBD@Z 00478d10 f   ToolkitPro1501vc60S:XTPImageManager.obj
 0001:00077ec0       ?LoadAlphaIcon@CXTPImageManagerIcon@@SAPAUHBITMAP__@@PBDH@Z 00478ec0 f   ToolkitPro1501vc60S:XTPImageManager.obj
 0001:00078170       ?SetIconFromIcoFile@CXTPImageManager@@QAEHPBDIVCSize@@W4XTPImageState@@@Z 00479170 f   ToolkitPro1501vc60S:XTPImageManager.obj
 0001:000784e0       ??0CXTPImageManagerResource@@QAE@PAVCXTPImageManager@@VCSize@@@Z 004794e0 f   ToolkitPro1501vc60S:XTPImageManager.obj
 0001:000785b0       ??1CBitmapDC@CXTPImageManagerResource@@UAE@XZ 004795b0 f i ToolkitPro1501vc60S:XTPImageManager.obj
 0001:000785f0       ??_GCBitmapDC@CXTPImageManagerResource@@UAEPAXI@Z 004795f0 f i ToolkitPro1501vc60S:XTPImageManager.obj
 0001:000785f0       ??_ECBitmapDC@CXTPImageManagerResource@@UAEPAXI@Z 004795f0 f i ToolkitPro1501vc60S:XTPImageManager.obj
 0001:00078610       ??1CXTPImageManagerResource@@QAE@XZ 00479610 f   ToolkitPro1501vc60S:XTPImageManager.obj
 0001:000786d0       ?RemoveAll@CXTPImageManagerResource@@AAEXXZ 004796d0 f   ToolkitPro1501vc60S:XTPImageManager.obj
 0001:00078770       ?GetResource@CXTPImageManager@@QAEPAVCXTPImageManagerResource@@VCSize@@@Z 00479770 f   ToolkitPro1501vc60S:XTPImageManager.obj
 0001:00078900       ?AllocBitmap@CXTPImageManagerResource@@AAEPAUXTP_IMAGERESOURCE_INFO@@XZ 00479900 f   ToolkitPro1501vc60S:XTPImageManager.obj
 0001:00078cb0       ?Clear@CXTPImageManagerResource@@QAEXPAUXTP_IMAGERESOURCE_INFO@@@Z 00479cb0 f   ToolkitPro1501vc60S:XTPImageManager.obj
 0001:00078d80       ?IsAlphaIconHandle@CXTPImageManagerIcon@@SAHPAUHICON__@@@Z 00479d80 f   ToolkitPro1501vc60S:XTPImageManager.obj
 0001:00078e30       ?Add@CXTPImageManagerResource@@QAEPAUXTP_IMAGERESOURCE_INFO@@ABVCXTPImageManagerIconHandle@@@Z 00479e30 f   ToolkitPro1501vc60S:XTPImageManager.obj
 0001:00079190       ?IsDrawReverted@CXTPImageManager@@QBEHPAVCDC@@@Z 0047a190 f   ToolkitPro1501vc60S:XTPImageManager.obj
 0001:000791c0       ?CreateIcon@CXTPImageManagerResource@@QAEXAAVCXTPImageManagerIconHandle@@PAUXTP_IMAGERESOURCE_INFO@@@Z 0047a1c0 f   ToolkitPro1501vc60S:XTPImageManager.obj
 0001:000793f0       ?DrawIconComposited@CXTPImageManagerResource@@AAEXPAVCDC@@PAUXTP_IMAGERESOURCE_INFO@@VCPoint@@VCSize@@@Z 0047a3f0 f   ToolkitPro1501vc60S:XTPImageManager.obj
 0001:00079670       ?Draw@CXTPImageManagerResource@@QAEXPAVCDC@@PAUXTP_IMAGERESOURCE_INFO@@VCPoint@@VCSize@@H@Z 0047a670 f   ToolkitPro1501vc60S:XTPImageManager.obj
 0001:00079980       ?GetExtent@CXTPImageManagerResource@@QBE?AVCSize@@XZ 0047a980 f   ToolkitPro1501vc60S:XTPImageManager.obj
 0001:000799a0       ?Init@CXTPImageManagerIconHandle@@IAEXXZ 0047a9a0 f   ToolkitPro1501vc60S:XTPImageManager.obj
 0001:000799d0       ??0CXTPImageManagerIconHandle@@QAE@XZ 0047a9d0 f   ToolkitPro1501vc60S:XTPImageManager.obj
 0001:000799e0       ??0CXTPImageManagerIconHandle@@QAE@PAUHICON__@@H@Z 0047a9e0 f   ToolkitPro1501vc60S:XTPImageManager.obj
 0001:00079a20       ??0CXTPImageManagerIconHandle@@QAE@PAUHBITMAP__@@@Z 0047aa20 f   ToolkitPro1501vc60S:XTPImageManager.obj
 0001:00079a60       ?CopyHandle@CXTPImageManagerIconHandle@@QAEXPAUHBITMAP__@@@Z 0047aa60 f   ToolkitPro1501vc60S:XTPImageManager.obj
 0001:00079ab0       ?CopyHandle@CXTPImageManagerIconHandle@@QAEXABV1@@Z 0047aab0 f   ToolkitPro1501vc60S:XTPImageManager.obj
 0001:00079bf0       ??4CXTPImageManagerIconHandle@@QAEABV0@QAUHICON__@@@Z 0047abf0 f   ToolkitPro1501vc60S:XTPImageManager.obj
 0001:00079c30       ??4CXTPImageManagerIconHandle@@QAEABV0@QAUHBITMAP__@@@Z 0047ac30 f   ToolkitPro1501vc60S:XTPImageManager.obj
 0001:00079c70       ??1CXTPImageManagerIconHandle@@QAE@XZ 0047ac70 f   ToolkitPro1501vc60S:XTPImageManager.obj
 0001:00079c80       ?IsEmpty@CXTPImageManagerIconHandle@@QBEHXZ 0047ac80 f   ToolkitPro1501vc60S:XTPImageManager.obj
 0001:00079cb0       ?IsAlpha@CXTPImageManagerIconHandle@@QBEHXZ 0047acb0 f   ToolkitPro1501vc60S:XTPImageManager.obj
 0001:00079cd0       ?GetBitmap@CXTPImageManagerIconHandle@@QBEPAUHBITMAP__@@XZ 0047acd0 f   ToolkitPro1501vc60S:XTPImageManager.obj
 0001:00079cf0       ?Clear@CXTPImageManagerIconHandle@@QAEXXZ 0047acf0 f   ToolkitPro1501vc60S:XTPImageManager.obj
 0001:00079d40       ?GetExtent@CXTPImageManagerIconHandle@@QBE?AVCSize@@XZ 0047ad40 f   ToolkitPro1501vc60S:XTPImageManager.obj
 0001:00079d60       ?_GetExtent@CXTPImageManagerIconHandle@@ABE?AVCSize@@XZ 0047ad60 f   ToolkitPro1501vc60S:XTPImageManager.obj
 0001:00079e00       ?Draw@CXTPImageManagerIconHandle@@QAEXPAVCDC@@VCPoint@@VCSize@@H@Z 0047ae00 f   ToolkitPro1501vc60S:XTPImageManager.obj
 0001:00079f70       ?CreateIconFromResource@CXTPImageManagerIconHandle@@QAEHPBDVCSize@@H@Z 0047af70 f   ToolkitPro1501vc60S:XTPImageManager.obj
 0001:00079fe0       ?CreateIconFromResource@CXTPImageManagerIconHandle@@QAEHPAUHINSTANCE__@@PBDVCSize@@H@Z 0047afe0 f   ToolkitPro1501vc60S:XTPImageManager.obj
 0001:0007a240       ?PreMultiply@CXTPImageManagerIconHandle@@QAEPAEXZ 0047b240 f   ToolkitPro1501vc60S:XTPImageManager.obj
 0001:0007a2c0       ?IsAlpha@CXTPImageManagerIcon@@QBEHXZ 0047b2c0 f   ToolkitPro1501vc60S:XTPImageManager.obj
 0001:0007a2d0       ?PreMultiplyAlphaBitmap@CXTPImageManagerIcon@@SAPAUHBITMAP__@@PAU2@PAHPAPAE@Z 0047b2d0 f   ToolkitPro1501vc60S:XTPImageManager.obj
 0001:0007a520       ?GetBitmapBits@CXTPImageManagerIcon@@SAHAAVCDC@@PAUHBITMAP__@@AAPAUtagBITMAPINFO@@AAPAXAAI@Z 0047b520 f   ToolkitPro1501vc60S:XTPImageManager.obj
 0001:0007a670       ?CopyAlphaBitmap@CXTPImageManagerIcon@@SAPAUHBITMAP__@@PAU2@PAPAE@Z 0047b670 f   ToolkitPro1501vc60S:XTPImageManager.obj
 0001:0007a7b0       ??0CXTPImageManagerIcon@@QAE@IHHPAVCXTPImageManagerIconSet@@@Z 0047b7b0 f   ToolkitPro1501vc60S:XTPImageManager.obj
 0001:0007a890       ??_ECXTPImageManagerIcon@@UAEPAXI@Z 0047b890 f i ToolkitPro1501vc60S:XTPImageManager.obj
 0001:0007a890       ??_GCXTPImageManagerIcon@@UAEPAXI@Z 0047b890 f i ToolkitPro1501vc60S:XTPImageManager.obj
 0001:0007a8b0       ??0CXTPImageManagerIcon@@QAE@IHHPAVCXTPImageManagerImageList@@@Z 0047b8b0 f   ToolkitPro1501vc60S:XTPImageManager.obj
 0001:0007a940       ??1CXTPImageManagerIcon@@UAE@XZ 0047b940 f   ToolkitPro1501vc60S:XTPImageManager.obj
 0001:0007aa10       ?Clear@CXTPImageManagerIcon@@AAEXH@Z 0047ba10 f   ToolkitPro1501vc60S:XTPImageManager.obj
 0001:0007aa70       ?Refresh@CXTPImageManagerIcon@@QAEXXZ 0047ba70 f   ToolkitPro1501vc60S:XTPImageManager.obj
 0001:0007aa90       ?GetIcon@CXTPImageManagerIcon@@QAEAAVCXTPImageManagerIconHandle@@XZ 0047ba90 f   ToolkitPro1501vc60S:XTPImageManager.obj
 0001:0007aaa0       ?GetIcon@CXTPImageManagerIcon@@QAEAAVCXTPImageManagerIconHandle@@W4XTPImageState@@@Z 0047baa0 f   ToolkitPro1501vc60S:XTPImageManager.obj
 0001:0007aaf0       ?GetFadedIcon@CXTPImageManagerIcon@@QAEAAVCXTPImageManagerIconHandle@@XZ 0047baf0 f   ToolkitPro1501vc60S:XTPImageManager.obj
 0001:0007ab20       ?GetShadowIcon@CXTPImageManagerIcon@@QAEAAVCXTPImageManagerIconHandle@@XZ 0047bb20 f   ToolkitPro1501vc60S:XTPImageManager.obj
 0001:0007ab40       ?GetHotIcon@CXTPImageManagerIcon@@QAEAAVCXTPImageManagerIconHandle@@XZ 0047bb40 f   ToolkitPro1501vc60S:XTPImageManager.obj
 0001:0007ab60       ?GetCheckedIcon@CXTPImageManagerIcon@@QAEAAVCXTPImageManagerIconHandle@@XZ 0047bb60 f   ToolkitPro1501vc60S:XTPImageManager.obj
 0001:0007ab90       ?GetPressedIcon@CXTPImageManagerIcon@@QAEAAVCXTPImageManagerIconHandle@@XZ 0047bb90 f   ToolkitPro1501vc60S:XTPImageManager.obj
 0001:0007abc0       ?HasDisabledIcon@CXTPImageManagerIcon@@QBEHXZ 0047bbc0 f   ToolkitPro1501vc60S:XTPImageManager.obj
 0001:0007abf0       ?GetDisabledIcon@CXTPImageManagerIcon@@QAEAAVCXTPImageManagerIconHandle@@H@Z 0047bbf0 f   ToolkitPro1501vc60S:XTPImageManager.obj
 0001:0007ac30       ?SetIcon@CXTPImageManagerIcon@@QAEHABVCXTPImageManagerIconHandle@@@Z 0047bc30 f   ToolkitPro1501vc60S:XTPImageManager.obj
 0001:0007ac80       ?SetHotIcon@CXTPImageManagerIcon@@QAEXABVCXTPImageManagerIconHandle@@@Z 0047bc80 f   ToolkitPro1501vc60S:XTPImageManager.obj
 0001:0007aca0       ?SetCheckedIcon@CXTPImageManagerIcon@@QAEXABVCXTPImageManagerIconHandle@@@Z 0047bca0 f   ToolkitPro1501vc60S:XTPImageManager.obj
 0001:0007acc0       ?SetPressedIcon@CXTPImageManagerIcon@@QAEXABVCXTPImageManagerIconHandle@@@Z 0047bcc0 f   ToolkitPro1501vc60S:XTPImageManager.obj
 0001:0007ace0       ?SetDisabledIcon@CXTPImageManagerIcon@@QAEXABVCXTPImageManagerIconHandle@@@Z 0047bce0 f   ToolkitPro1501vc60S:XTPImageManager.obj
 0001:0007ad00       ?LightenColor@CXTPImageManagerIcon@@AAEKKN@Z 0047bd00 f   ToolkitPro1501vc60S:XTPImageManager.obj
 0001:0007ad90       ?CreateFadedIcon@CXTPImageManagerIcon@@AAEXXZ 0047bd90 f   ToolkitPro1501vc60S:XTPImageManager.obj
 0001:0007b010       ?CreateShadowIcon@CXTPImageManagerIcon@@AAEXXZ 0047c010 f   ToolkitPro1501vc60S:XTPImageManager.obj
 0001:0007b310       ?CreateDisabledIcon@CXTPImageManagerIcon@@QAEXKK@Z 0047c310 f   ToolkitPro1501vc60S:XTPImageManager.obj
 0001:0007b8c0       ?GetExtent@CXTPImageManagerIcon@@QBE?AVCSize@@XZ 0047c8c0 f   ToolkitPro1501vc60S:XTPImageManager.obj
 0001:0007b8f0       ?GetExtent@CXTPImageManagerIcon@@SA?AVCSize@@PAUHICON__@@@Z 0047c8f0 f   ToolkitPro1501vc60S:XTPImageManager.obj
 0001:0007b970       ?ScaleToFit@CXTPImageManagerIcon@@SAPAUHICON__@@PAU2@VCSize@@H@Z 0047c970 f   ToolkitPro1501vc60S:XTPImageManager.obj
 0001:0007ba50       ?GetDIBBitmap@CXTPImageManagerIcon@@AAEHPAUHBITMAP__@@AAPAEAAIAAPAUtagBITMAPINFO@@2@Z 0047ca50 f   ToolkitPro1501vc60S:XTPImageManager.obj
 0001:0007bc10       ?ReadDIBBitmap@CXTPImageManagerIcon@@AAEPAUHBITMAP__@@AAVCArchive@@PAPAE@Z 0047cc10 f   ToolkitPro1501vc60S:XTPImageManager.obj
 0001:0007bda0       ?WriteDIBBitmap@CXTPImageManagerIcon@@AAEXAAVCArchive@@PAUHBITMAP__@@@Z 0047cda0 f   ToolkitPro1501vc60S:XTPImageManager.obj
 0001:0007be60       ?SerializeIcon@CXTPImageManagerIcon@@QAEXAAVCXTPImageManagerIconHandle@@AAVCArchive@@J@Z 0047ce60 f   ToolkitPro1501vc60S:XTPImageManager.obj
 0001:0007c0b0       ?Serialize@CXTPImageManagerIcon@@UAEXAAVCArchive@@@Z 0047d0b0 f   ToolkitPro1501vc60S:XTPImageManager.obj
 0001:0007c1c0       ?DrawAlphaBitmap@CXTPImageManagerIcon@@SAXPAVCDC@@PAUHBITMAP__@@VCPoint@@VCSize@@23@Z 0047d1c0 f   ToolkitPro1501vc60S:XTPImageManager.obj
 0001:0007c2b0       ?DrawMono@CXTPImageManagerIcon@@QAEXPAVCDC@@VCPoint@@AAVCXTPImageManagerIconHandle@@VCSize@@K@Z 0047d2b0 f   ToolkitPro1501vc60S:XTPImageManager.obj
 0001:0007c410       ?Draw@CXTPImageManagerIcon@@QAEXPAVCDC@@VCPoint@@VCSize@@@Z 0047d410 f   ToolkitPro1501vc60S:XTPImageManager.obj
 0001:0007c450       ?Draw@CXTPImageManagerIcon@@QAEXPAVCDC@@VCPoint@@@Z 0047d450 f   ToolkitPro1501vc60S:XTPImageManager.obj
 0001:0007c490       ?DrawIconComposited@CXTPImageManagerIcon@@SAXPAVCDC@@VCPoint@@VCSize@@PAUHICON__@@@Z 0047d490 f   ToolkitPro1501vc60S:XTPImageManager.obj
 0001:0007c640       ?Draw@CXTPImageManagerIcon@@QAEXPAVCDC@@VCPoint@@AAVCXTPImageManagerIconHandle@@VCSize@@KKI@Z 0047d640 f   ToolkitPro1501vc60S:XTPImageManager.obj
 0001:0007c6c0       ??0CXTPImageManagerIconSet@@QAE@IPAVCXTPImageManager@@@Z 0047d6c0 f   ToolkitPro1501vc60S:XTPImageManager.obj
 0001:0007c710       ??_GCXTPImageManagerIconSet@@UAEPAXI@Z 0047d710 f i ToolkitPro1501vc60S:XTPImageManager.obj
 0001:0007c710       ??_ECXTPImageManagerIconSet@@UAEPAXI@Z 0047d710 f i ToolkitPro1501vc60S:XTPImageManager.obj
 0001:0007c730       ??1CXTPImageManagerIconSet@@UAE@XZ 0047d730 f   ToolkitPro1501vc60S:XTPImageManager.obj
 0001:0007c7e0       ?RemoveAll@CXTPImageManagerIconSet@@QAEXXZ 0047d7e0 f   ToolkitPro1501vc60S:XTPImageManager.obj
 0001:0007c8a0       ?CreateIcon@CXTPImageManagerIconSet@@AAEPAVCXTPImageManagerIcon@@I@Z 0047d8a0 f   ToolkitPro1501vc60S:XTPImageManager.obj
 0001:0007ca20       ?SetIcon@CXTPImageManagerIconSet@@AAEXABVCXTPImageManagerIconHandle@@I@Z 0047da20 f   ToolkitPro1501vc60S:XTPImageManager.obj
 0001:0007ca40       ?SetDisabledIcon@CXTPImageManagerIconSet@@AAEXABVCXTPImageManagerIconHandle@@I@Z 0047da40 f   ToolkitPro1501vc60S:XTPImageManager.obj
 0001:0007ca60       ?SetHotIcon@CXTPImageManagerIconSet@@AAEXABVCXTPImageManagerIconHandle@@I@Z 0047da60 f   ToolkitPro1501vc60S:XTPImageManager.obj
 0001:0007ca80       ?SetCheckedIcon@CXTPImageManagerIconSet@@AAEXABVCXTPImageManagerIconHandle@@I@Z 0047da80 f   ToolkitPro1501vc60S:XTPImageManager.obj
 0001:0007caa0       ?SetPressedIcon@CXTPImageManagerIconSet@@AAEXABVCXTPImageManagerIconHandle@@I@Z 0047daa0 f   ToolkitPro1501vc60S:XTPImageManager.obj
 0001:0007cac0       ?GetIcon@CXTPImageManagerIconSet@@QAEPAVCXTPImageManagerIcon@@IH@Z 0047dac0 f   ToolkitPro1501vc60S:XTPImageManager.obj
 0001:0007cc10       ?RefreshAll@CXTPImageManagerIconSet@@QAEXXZ 0047dc10 f   ToolkitPro1501vc60S:XTPImageManager.obj
 0001:0007cc80       ??0CXTPImageManager@@QAE@XZ 0047dc80 f   ToolkitPro1501vc60S:XTPImageManager.obj
 0001:0007cd50       ??_ECXTPImageManager@@UAEPAXI@Z 0047dd50 f i ToolkitPro1501vc60S:XTPImageManager.obj
 0001:0007cd50       ??_GCXTPImageManager@@UAEPAXI@Z 0047dd50 f i ToolkitPro1501vc60S:XTPImageManager.obj
 0001:0007cd70       ?XTPImageManager@@YAPAVCXTPImageManager@@XZ 0047dd70 f   ToolkitPro1501vc60S:XTPImageManager.obj
 0001:0007cdc0       ??1CXTPImageManager@@UAE@XZ 0047ddc0 f   ToolkitPro1501vc60S:XTPImageManager.obj
 0001:0007cef0       ?LoadToolbar@CXTPImageManager@@ABEHIAAPAIAAHAAVCSize@@@Z 0047def0 f   ToolkitPro1501vc60S:XTPImageManager.obj
 0001:0007cfd0       ?SetIcons@CXTPImageManager@@QAEHIIW4XTPImageState@@@Z 0047dfd0 f   ToolkitPro1501vc60S:XTPImageManager.obj
 0001:0007d050       ?SetIcons@CXTPImageManager@@QAEHIW4XTPImageState@@@Z 0047e050 f   ToolkitPro1501vc60S:XTPImageManager.obj
 0001:0007d070       ?SetIcon@CXTPImageManager@@QAEHABVCXTPImageManagerIconHandle@@IVCSize@@W4XTPImageState@@@Z 0047e070 f   ToolkitPro1501vc60S:XTPImageManager.obj
 0001:0007d2e0       ?SetIconFromResource@CXTPImageManager@@QAEHPAUHINSTANCE__@@PBDIVCSize@@W4XTPImageState@@@Z 0047e2e0 f   ToolkitPro1501vc60S:XTPImageManager.obj
 0001:0007d4a0       ?SetIcon@CXTPImageManager@@QAEHPBDIVCSize@@W4XTPImageState@@@Z 0047e4a0 f   ToolkitPro1501vc60S:XTPImageManager.obj
 0001:0007d580       ?SetIcons@CXTPImageManager@@QAEHAAVCImageList@@PAIHVCSize@@W4XTPImageState@@@Z 0047e580 f   ToolkitPro1501vc60S:XTPImageManager.obj
 0001:0007d730       ?SplitBitmap@CXTPImageManager@@ABEHPAUHBITMAP__@@HPAPAU2@@Z 0047e730 f   ToolkitPro1501vc60S:XTPImageManager.obj
 0001:0007d990       ?GetBitmapMaskColor@CXTPImageManager@@SAKAAVCBitmap@@VCPoint@@@Z 0047e990 f   ToolkitPro1501vc60S:XTPImageManager.obj
 0001:0007d9d0       ?ResampleAlphaLayer@CXTPImageManager@@SAPAUHBITMAP__@@PAU2@K@Z 0047e9d0 f   ToolkitPro1501vc60S:XTPImageManager.obj
 0001:0007dbb0       ?SetIcons@CXTPImageManager@@QAEHAAVCBitmap@@PAIHVCSize@@W4XTPImageState@@H@Z 0047ebb0 f   ToolkitPro1501vc60S:XTPImageManager.obj
 0001:0007df50       ?SetIcons@CXTPImageManager@@QAEHIPAIHVCSize@@W4XTPImageState@@@Z 0047ef50 f   ToolkitPro1501vc60S:XTPImageManager.obj
 0001:0007df80       ?SetIcons@CXTPImageManager@@QAEHPBDPAIHVCSize@@W4XTPImageState@@@Z 0047ef80 f   ToolkitPro1501vc60S:XTPImageManager.obj
 0001:0007e070       ?AddCustomIcon@CXTPImageManager@@QAEIABVCXTPImageManagerIconHandle@@@Z 0047f070 f   ToolkitPro1501vc60S:XTPImageManager.obj
 0001:0007e1f0       ?CopyImage@CXTPImageManager@@AAEXI@Z 0047f1f0 f   ToolkitPro1501vc60S:XTPImageManager.obj
 0001:0007e320       ?PasteCustomImage@CXTPImageManager@@AAEIAAVCOleDataObject@@@Z 0047f320 f   ToolkitPro1501vc60S:XTPImageManager.obj
 0001:0007e430       ?IsPrimaryImageExists@CXTPImageManager@@QBEHIH@Z 0047f430 f   ToolkitPro1501vc60S:XTPImageManager.obj
 0001:0007e4a0       ?GetImage@CXTPImageManager@@QBEPAVCXTPImageManagerIcon@@IH@Z 0047f4a0 f   ToolkitPro1501vc60S:XTPImageManager.obj
 0001:0007e4f0       ?GetIconSet@CXTPImageManager@@QBEPAVCXTPImageManagerIconSet@@I@Z 0047f4f0 f   ToolkitPro1501vc60S:XTPImageManager.obj
 0001:0007e530       ?GetImageList@CXTPImageManager@@QBEPAVCXTPImageManagerImageList@@I@Z 0047f530 f   ToolkitPro1501vc60S:XTPImageManager.obj
 0001:0007e570       ?RemoveAll@CXTPImageManager@@QAEXXZ 0047f570 f   ToolkitPro1501vc60S:XTPImageManager.obj
 0001:0007e710       ?RefreshAll@CXTPImageManager@@QAEXXZ 0047f710 f   ToolkitPro1501vc60S:XTPImageManager.obj
 0001:0007e7a0       ?SetMaskColor@CXTPImageManager@@QAEKK@Z 0047f7a0 f   ToolkitPro1501vc60S:XTPImageManager.obj
 0001:0007e7b0       ?IsAlphaIconsImageListSupported@CXTPImageManager@@SAHXZ 0047f7b0 f   ToolkitPro1501vc60S:XTPImageManager.obj
 0001:0007e7d0       ?DoPropExchange@CXTPImageManager@@QAEXIPAVCXTPPropExchange@@@Z 0047f7d0 f   ToolkitPro1501vc60S:XTPImageManager.obj
 0001:0007eba0       ?Serialize@CXTPImageManager@@QAEXIAAVCArchive@@@Z 0047fba0 f   ToolkitPro1501vc60S:XTPImageManager.obj
 0001:0007ec10       ?DoPropExchange@CXTPImageManager@@QAEXPAVCXTPPropExchange@@@Z 0047fc10 f   ToolkitPro1501vc60S:XTPImageManager.obj
 0001:0007edb0       ?Serialize@CXTPImageManager@@UAEXAAVCArchive@@@Z 0047fdb0 f   ToolkitPro1501vc60S:XTPImageManager.obj
 0001:0007ee10       ??1?$CArray@PAUXTP_IMAGERESOURCE_INFO@@PAU1@@@UAE@XZ 0047fe10 f i ToolkitPro1501vc60S:XTPImageManager.obj
 0001:0007ee60       ??1?$CMap@IIPAVCXTPImageManagerIcon@@PAV1@@@UAE@XZ 0047fe60 f i ToolkitPro1501vc60S:XTPImageManager.obj
 0001:0007eee0       ??1?$CMap@IIPAVCXTPImageManagerIconSet@@PAV1@@@UAE@XZ 0047fee0 f i ToolkitPro1501vc60S:XTPImageManager.obj
 0001:0007ef60       ??1?$CArray@PAVCXTPImageManagerImageList@@PAV1@@@UAE@XZ 0047ff60 f i ToolkitPro1501vc60S:XTPImageManager.obj
 0001:0007efb0       ??1?$CMap@KKPAVCXTPImageManagerResource@@PAV1@@@UAE@XZ 0047ffb0 f i ToolkitPro1501vc60S:XTPImageManager.obj
 0001:0007f030       ??_E?$CArray@PAUXTP_IMAGERESOURCE_INFO@@PAU1@@@UAEPAXI@Z 00480030 f i ToolkitPro1501vc60S:XTPImageManager.obj
 0001:0007f030       ??_G?$CArray@PAUXTP_IMAGERESOURCE_INFO@@PAU1@@@UAEPAXI@Z 00480030 f i ToolkitPro1501vc60S:XTPImageManager.obj
 0001:0007f050       ??_E?$CMap@IIPAVCXTPImageManagerIcon@@PAV1@@@UAEPAXI@Z 00480050 f i ToolkitPro1501vc60S:XTPImageManager.obj
 0001:0007f050       ??_G?$CMap@IIPAVCXTPImageManagerIcon@@PAV1@@@UAEPAXI@Z 00480050 f i ToolkitPro1501vc60S:XTPImageManager.obj
 0001:0007f070       ??_G?$CMap@IIPAVCXTPImageManagerIconSet@@PAV1@@@UAEPAXI@Z 00480070 f i ToolkitPro1501vc60S:XTPImageManager.obj
 0001:0007f070       ??_E?$CMap@IIPAVCXTPImageManagerIconSet@@PAV1@@@UAEPAXI@Z 00480070 f i ToolkitPro1501vc60S:XTPImageManager.obj
 0001:0007f090       ??_E?$CArray@PAVCXTPImageManagerImageList@@PAV1@@@UAEPAXI@Z 00480090 f i ToolkitPro1501vc60S:XTPImageManager.obj
 0001:0007f090       ??_G?$CArray@PAVCXTPImageManagerImageList@@PAV1@@@UAEPAXI@Z 00480090 f i ToolkitPro1501vc60S:XTPImageManager.obj
 0001:0007f0b0       ??_E?$CMap@KKPAVCXTPImageManagerResource@@PAV1@@@UAEPAXI@Z 004800b0 f i ToolkitPro1501vc60S:XTPImageManager.obj
 0001:0007f0b0       ??_G?$CMap@KKPAVCXTPImageManagerResource@@PAV1@@@UAEPAXI@Z 004800b0 f i ToolkitPro1501vc60S:XTPImageManager.obj
 0001:0007f0d0       ?NewAssoc@?$CMap@IIHH@@IAEPAUCAssoc@1@XZ 004800d0 f i ToolkitPro1501vc60S:XTPImageManager.obj
 0001:0007f0d0       ?NewAssoc@?$CMap@IIPAVCXTPImageManagerIcon@@PAV1@@@IAEPAUCAssoc@1@XZ 004800d0 f i ToolkitPro1501vc60S:XTPImageManager.obj
 0001:0007f0d0       ?NewAssoc@?$CMap@HHPAVCXTPDockingPaneBase@@PAV1@@@IAEPAUCAssoc@1@XZ 004800d0 f i ToolkitPro1501vc60S:XTPImageManager.obj
 0001:0007f0d0       ?NewAssoc@?$CMap@PAUHWND__@@PAU1@PAVCXTPDockingPaneManager@@PAV2@@@IAEPAUCAssoc@1@XZ 004800d0 f i ToolkitPro1501vc60S:XTPImageManager.obj
 0001:0007f0d0       ?NewAssoc@?$CMap@PAVCXTPMarkupDependencyProperty@@PAV1@PAVCXTPMarkupObject@@PAV2@@@IAEPAUCAssoc@1@XZ 004800d0 f i ToolkitPro1501vc60S:XTPImageManager.obj
 0001:0007f0d0       ?NewAssoc@?$CMap@PBGPBGPAVCXTPMarkupType@@PAV1@@@IAEPAUCAssoc@1@XZ 004800d0 f i ToolkitPro1501vc60S:XTPImageManager.obj
 0001:0007f130       ??0CSharedData@CXTPWinThemeWrapper@@QAE@XZ 00480130 f   ToolkitPro1501vc60S:XTPWinThemeWrapper.obj
 0001:0007f170       ?GetSharedData@CXTPWinThemeWrapper@@ABEAAVCSharedData@1@XZ 00480170 f   ToolkitPro1501vc60S:XTPWinThemeWrapper.obj
 0001:0007f210       ??0CXTPWinThemeWrapper@@QAE@H@Z 00480210 f   ToolkitPro1501vc60S:XTPWinThemeWrapper.obj
 0001:0007f230       ??_GCXTPWinThemeWrapper@@UAEPAXI@Z 00480230 f i ToolkitPro1501vc60S:XTPWinThemeWrapper.obj
 0001:0007f230       ??_ECXTPWinThemeWrapper@@UAEPAXI@Z 00480230 f i ToolkitPro1501vc60S:XTPWinThemeWrapper.obj
 0001:0007f250       ??1CXTPWinThemeWrapper@@UAE@XZ 00480250 f   ToolkitPro1501vc60S:XTPWinThemeWrapper.obj
 0001:0007f280       ?ReloadLibrary@CXTPWinThemeWrapper@@ABEXXZ 00480280 f   ToolkitPro1501vc60S:XTPWinThemeWrapper.obj
 0001:0007f2c0       ?CloseThemeData@CXTPWinThemeWrapper@@QAEXXZ 004802c0 f   ToolkitPro1501vc60S:XTPWinThemeWrapper.obj
 0001:0007f360       ?DrawThemeBackground@CXTPWinThemeWrapper@@QAEJPAUHDC__@@HHPBUtagRECT@@1@Z 00480360 f   ToolkitPro1501vc60S:XTPWinThemeWrapper.obj
 0001:0007f400       ?GetCurrentThemeName@CXTPWinThemeWrapper@@QAEJPAGH0H0H@Z 00480400 f   ToolkitPro1501vc60S:XTPWinThemeWrapper.obj
 0001:0007f4c0       ?GetThemeBackgroundContentRect@CXTPWinThemeWrapper@@QAEJPAUHDC__@@HHPBUtagRECT@@PAU3@@Z 004804c0 f   ToolkitPro1501vc60S:XTPWinThemeWrapper.obj
 0001:0007f570       ?GetThemeColor@CXTPWinThemeWrapper@@QAEJHHHPAK@Z 00480570 f   ToolkitPro1501vc60S:XTPWinThemeWrapper.obj
 0001:0007f620       ?GetThemeInt@CXTPWinThemeWrapper@@QAEJHHHPAH@Z 00480620 f   ToolkitPro1501vc60S:XTPWinThemeWrapper.obj
 0001:0007f6c0       ?GetThemePartSize@CXTPWinThemeWrapper@@QAEJPAUHDC__@@HHPAUtagRECT@@W4THEMESIZE@@PAUtagSIZE@@@Z 004806c0 f   ToolkitPro1501vc60S:XTPWinThemeWrapper.obj
 0001:0007f770       ?GetThemeSysBool@CXTPWinThemeWrapper@@QAEHH@Z 00480770 f   ToolkitPro1501vc60S:XTPWinThemeWrapper.obj
 0001:0007f800       ?IsAppThemed@CXTPWinThemeWrapper@@QBEHXZ 00480800 f   ToolkitPro1501vc60S:XTPWinThemeWrapper.obj
 0001:0007f890       ?IsThemeActive@CXTPWinThemeWrapper@@QBEHXZ 00480890 f   ToolkitPro1501vc60S:XTPWinThemeWrapper.obj
 0001:0007f930       ?OpenThemeData@CXTPWinThemeWrapper@@QAEXPAUHWND__@@PBG@Z 00480930 f   ToolkitPro1501vc60S:XTPWinThemeWrapper.obj
 0001:0007f9c0       ?ThemeDataOpen@CXTPWinThemeWrapper@@QBEHXZ 004809c0 f   ToolkitPro1501vc60S:XTPWinThemeWrapper.obj
 0001:0007f9d0       ?IsAppThemeReady@CXTPWinThemeWrapper@@QBEHXZ 004809d0 f   ToolkitPro1501vc60S:XTPWinThemeWrapper.obj
 0001:0007fa20       ?DrawThemeTextEx@CXTPWinThemeWrapper@@QAEJPAUHDC__@@HHPBGHKPAUtagRECT@@PBUXTP_UX_DTTOPTS@@@Z 00480a20 f   ToolkitPro1501vc60S:XTPWinThemeWrapper.obj
 0001:0007fae0       ?BeginBufferedPaint@CXTPWinThemeWrapper@@QAEPAXPAUHDC__@@PBUtagRECT@@W4XTP_UX_BUFFERFORMAT@@PAUXTP_UX_PAINTPARAMS@@PAPAU2@@Z 00480ae0 f   ToolkitPro1501vc60S:XTPWinThemeWrapper.obj
 0001:0007fb90       ?EndBufferedPaint@CXTPWinThemeWrapper@@QAEXPAXH@Z 00480b90 f   ToolkitPro1501vc60S:XTPWinThemeWrapper.obj
 0001:0007fc20       ??0CSharedData@CXTPWinDwmWrapper@@QAE@XZ 00480c20 f   ToolkitPro1501vc60S:XTPWinThemeWrapper.obj
 0001:0007fc40       ?GetSharedData@CXTPWinDwmWrapper@@ABEAAVCSharedData@1@XZ 00480c40 f   ToolkitPro1501vc60S:XTPWinThemeWrapper.obj
 0001:0007fc90       ?IsCompositionEnabled@CXTPWinDwmWrapper@@QAEHXZ 00480c90 f   ToolkitPro1501vc60S:XTPWinThemeWrapper.obj
 0001:0007fcf0       ?DefWindowProcA@CXTPWinDwmWrapper@@QAEJPAUHWND__@@IIJPAJ@Z 00480cf0 f   ToolkitPro1501vc60S:XTPWinThemeWrapper.obj
 0001:0007fd50       ?ExtendFrameIntoClientArea@CXTPWinDwmWrapper@@QAEJPAUHWND__@@HHHH@Z 00480d50 f   ToolkitPro1501vc60S:XTPWinThemeWrapper.obj
 0001:0007fdc0       ??0CXTPControlTheme@@QAE@XZ 00480dc0 f   ToolkitPro1501vc60S:XTPControlTheme.obj
 0001:0007fde0       ??0CXTPA2W@CXTPResourceManager@@QAE@PBD@Z 00480de0 f   ToolkitPro1501vc60S:XTPResourceManager.obj
 0001:0007fe40       ??1CXTPA2W@CXTPResourceManager@@QAE@XZ 00480e40 f   ToolkitPro1501vc60S:XTPResourceManager.obj
 0001:0007fea0       ??1?$CProcessLocal@VXTP_PRINT_STATE@@@@QAE@XZ 00480ea0 f i ToolkitPro1501vc60S:XTPResourceManager.obj
 0001:0007fea0       ??1?$CProcessLocal@VCXTThemeManager@@@@QAE@XZ 00480ea0 f i ToolkitPro1501vc60S:XTPResourceManager.obj
 0001:0007fea0       ??1?$CProcessLocal@VCXTPResourceManager@@@@QAE@XZ 00480ea0 f i ToolkitPro1501vc60S:XTPResourceManager.obj
 0001:0007feb0       ?XTPResourceManager@@YAPAVCXTPResourceManager@@XZ 00480eb0 f   ToolkitPro1501vc60S:XTPResourceManager.obj
 0001:0007fec0       ??0CManageState@CXTPResourceManager@@QAE@XZ 00480ec0 f   ToolkitPro1501vc60S:XTPResourceManager.obj
 0001:0007fed0       ??1CManageState@CXTPResourceManager@@QAE@XZ 00480ed0 f   ToolkitPro1501vc60S:XTPResourceManager.obj
 0001:0007fef0       ?Undo@CManageState@CXTPResourceManager@@QAEXXZ 00480ef0 f   ToolkitPro1501vc60S:XTPResourceManager.obj
 0001:0007ff10       ?Redo@CManageState@CXTPResourceManager@@QAEXXZ 00480f10 f   ToolkitPro1501vc60S:XTPResourceManager.obj
 0001:0007ff50       ??0CXTPResourceManager@@QAE@XZ 00480f50 f   ToolkitPro1501vc60S:XTPResourceManager.obj
 0001:0007ffd0       ?GetResourcesLangID@CXTPResourceManager@@UAEGXZ 00480fd0 f i ToolkitPro1501vc60S:XTPResourceManager.obj
 0001:0007ffe0       ?LoadStringA@CXTPResourceManager@@UAE?AVCString@@IPAH@Z 00480fe0 f i ToolkitPro1501vc60S:XTPResourceManager.obj
 0001:00080070       ??_ECXTPResourceManager@@UAEPAXI@Z 00481070 f i ToolkitPro1501vc60S:XTPResourceManager.obj
 0001:00080070       ??_GCXTPResourceManager@@UAEPAXI@Z 00481070 f i ToolkitPro1501vc60S:XTPResourceManager.obj
 0001:00080090       ??1CXTPResourceManager@@UAE@XZ 00481090 f   ToolkitPro1501vc60S:XTPResourceManager.obj
 0001:000800d0       ?Close@CXTPResourceManager@@UAEXXZ 004810d0 f   ToolkitPro1501vc60S:XTPResourceManager.obj
 0001:000800f0       ?GetResourceHandle@CXTPResourceManager@@QBEPAUHINSTANCE__@@XZ 004810f0 f   ToolkitPro1501vc60S:XTPResourceManager.obj
 0001:00080100       ?FindResourceA@CXTPResourceManager@@QAEPAUHRSRC__@@AAPAUHINSTANCE__@@PBD1@Z 00481100 f   ToolkitPro1501vc60S:XTPResourceManager.obj
 0001:00080140       ?UpdateResourcesLangID@CXTPResourceManager@@MAEXXZ 00481140 f   ToolkitPro1501vc60S:XTPResourceManager.obj
 0001:00080160       ?SetResourceLanguage@CXTPResourceManager@@QAEXG@Z 00481160 f   ToolkitPro1501vc60S:XTPResourceManager.obj
 0001:00080190       ?GetResourceLanguage@CXTPResourceManager@@SAGPAUHINSTANCE__@@@Z 00481190 f   ToolkitPro1501vc60S:XTPResourceManager.obj
 0001:000801c0       ?EnumResTypeProc@CXTPResourceManager@@KGHPAUHINSTANCE__@@PADJ@Z 004811c0 f   ToolkitPro1501vc60S:XTPResourceManager.obj
 0001:00080210       ?EnumResNameProc@CXTPResourceManager@@KGHPAUHINSTANCE__@@PBDPADJ@Z 00481210 f   ToolkitPro1501vc60S:XTPResourceManager.obj
 0001:00080260       ?EnumResLangProc@CXTPResourceManager@@KGHPAUHINSTANCE__@@PBD1GJ@Z 00481260 f   ToolkitPro1501vc60S:XTPResourceManager.obj
 0001:00080290       ?GetFontCharset@CXTPResourceManager@@QBEEXZ 00481290 f   ToolkitPro1501vc60S:XTPResourceManager.obj
 0001:000802b0       ?LoadStringA@CXTPResourceManager@@UAEHPAVCString@@I@Z 004812b0 f   ToolkitPro1501vc60S:XTPResourceManager.obj
 0001:00080330       ?LoadMenuA@CXTPResourceManager@@UAEHPAVCMenu@@I@Z 00481330 f   ToolkitPro1501vc60S:XTPResourceManager.obj
 0001:000803d0       ?LoadToolBar@CXTPResourceManager@@UAEHPAVCToolBar@@I@Z 004813d0 f   ToolkitPro1501vc60S:XTPResourceManager.obj
 0001:00080470       ?LoadBitmapA@CXTPResourceManager@@UAEHPAVCBitmap@@I@Z 00481470 f   ToolkitPro1501vc60S:XTPResourceManager.obj
 0001:00080510       ?LoadCursorA@CXTPResourceManager@@UAEPAUHICON__@@I@Z 00481510 f   ToolkitPro1501vc60S:XTPResourceManager.obj
 0001:00080580       ?LoadDialogTemplate2@CXTPResourceManager@@UAEPAXPBD@Z 00481580 f   ToolkitPro1501vc60S:XTPResourceManager.obj
 0001:000805f0       ?LoadDialogTemplate@CXTPResourceManager@@UAEPBUDLGTEMPLATE@@I@Z 004815f0 f   ToolkitPro1501vc60S:XTPResourceManager.obj
 0001:00080610       ?LoadHTML@CXTPResourceManager@@UAEHPAVCString@@I@Z 00481610 f   ToolkitPro1501vc60S:XTPResourceManager.obj
 0001:00080700       ?CreateIconFromResource@CXTPResourceManager@@UAEPAUHICON__@@PAUHINSTANCE__@@PBDVCSize@@@Z 00481700 f   ToolkitPro1501vc60S:XTPResourceManager.obj
 0001:000807b0       ?LoadIconA@CXTPResourceManager@@UAEPAUHICON__@@PBDVCSize@@@Z 004817b0 f   ToolkitPro1501vc60S:XTPResourceManager.obj
 0001:00080820       ?LoadIconA@CXTPResourceManager@@UAEPAUHICON__@@HVCSize@@@Z 00481820 f   ToolkitPro1501vc60S:XTPResourceManager.obj
 0001:00080840       ?ShowMessageBox@CXTPResourceManager@@QAEHII@Z 00481840 f   ToolkitPro1501vc60S:XTPResourceManager.obj
 0001:000808c0       ?ShowMessageBox@CXTPResourceManager@@QAEHPBDI@Z 004818c0 f   ToolkitPro1501vc60S:XTPResourceManager.obj
 0001:00080900       ?GetLanguageInfo@CXTPResourceManager@@SAPAUXTP_RESOURCEMANAGER_LANGINFO@@I@Z 00481900 f   ToolkitPro1501vc60S:XTPResourceManager.obj
 0001:00080940       ?GetMenuLocaleString@CXTPResourceManager@@QBEHPAVCMenu@@IAAVCString@@I@Z 00481940 f   ToolkitPro1501vc60S:XTPResourceManager.obj
 0001:00080ae0       ?LoadLocaleString@CXTPResourceManager@@QBEHPAUHINSTANCE__@@IAAVCString@@@Z 00481ae0 f   ToolkitPro1501vc60S:XTPResourceManager.obj
 0001:00080be0       ?CreateObject@?$CProcessLocal@VCXTPResourceManager@@@@SGPAVCNoTrackObject@@XZ 00481be0 f i ToolkitPro1501vc60S:XTPResourceManager.obj
 0001:00080c90       ??0CXTPRegistryManager@@QAE@PAUHKEY__@@@Z 00481c90 f   ToolkitPro1501vc60S:XTPRegistryManager.obj
 0001:00080cc0       ??_ECXTPRegistryManager@@UAEPAXI@Z 00481cc0 f i ToolkitPro1501vc60S:XTPRegistryManager.obj
 0001:00080cc0       ??_GCXTPRegistryManager@@UAEPAXI@Z 00481cc0 f i ToolkitPro1501vc60S:XTPRegistryManager.obj
 0001:00080ce0       ??1CXTPRegistryManager@@UAE@XZ 00481ce0 f   ToolkitPro1501vc60S:XTPRegistryManager.obj
 0001:00080d40       ?GetProfileInfo@CXTPRegistryManager@@AAEHXZ 00481d40 f   ToolkitPro1501vc60S:XTPRegistryManager.obj
 0001:00080db0       ?GetAppRegistryKey@CXTPRegistryManager@@MAEPAUHKEY__@@K@Z 00481db0 f   ToolkitPro1501vc60S:XTPRegistryManager.obj
 0001:00080ef0       ?GetFullPathKey@CXTPRegistryManager@@ABEPAUHKEY__@@PBD@Z 00481ef0 f   ToolkitPro1501vc60S:XTPRegistryManager.obj
 0001:00080f40       ?RecurseOpenKey@CXTPRegistryManager@@AAEPAUHKEY__@@PBDK@Z 00481f40 f   ToolkitPro1501vc60S:XTPRegistryManager.obj
 0001:00081100       ??1CHKey@CXTPRegistryManager@@QAE@XZ 00482100 f i ToolkitPro1501vc60S:XTPRegistryManager.obj
 0001:00081110       ?GetSectionKey@CXTPRegistryManager@@MAEPAUHKEY__@@PBDK@Z 00482110 f   ToolkitPro1501vc60S:XTPRegistryManager.obj
 0001:000811d0       ?WriteProfileStringA@CXTPRegistryManager@@QAEHPBD00@Z 004821d0 f   ToolkitPro1501vc60S:XTPRegistryManager.obj
 0001:000812f0       ?GetProfileStringA@CXTPRegistryManager@@QAE?AVCString@@PBD00@Z 004822f0 f   ToolkitPro1501vc60S:XTPRegistryManager.obj
 0001:00081480       ??0CXTPNonClientMetrics@@QAE@XZ 00482480 f   ToolkitPro1501vc60S:XTPGlobal.obj
 0001:00081480       ??0CNonClientMetrics@CXTPPaintManager@@QAE@XZ 00482480 f   ToolkitPro1501vc60S:XTPGlobal.obj
 0001:000814b0       ??0CXTPLogFont@@QAE@XZ     004824b0 f   ToolkitPro1501vc60S:XTPGlobal.obj
 0001:000814d0       ??0CXTPLogFont@@QAE@AAUtagLOGFONTA@@@Z 004824d0 f   ToolkitPro1501vc60S:XTPGlobal.obj
 0001:000814f0       ??0CXTPAuxData@@AAE@XZ     004824f0 f   ToolkitPro1501vc60S:XTPGlobal.obj
 0001:000816c0       ??_GCXTPAuxData@@UAEPAXI@Z 004826c0 f i ToolkitPro1501vc60S:XTPGlobal.obj
 0001:000816c0       ??_ECXTPAuxData@@UAEPAXI@Z 004826c0 f i ToolkitPro1501vc60S:XTPGlobal.obj
 0001:000816e0       ??1CXTPAuxData@@UAE@XZ     004826e0 f   ToolkitPro1501vc60S:XTPGlobal.obj
 0001:00081830       ?LoadSysCursors@CXTPAuxData@@QAEHXZ 00482830 f   ToolkitPro1501vc60S:XTPGlobal.obj
 0001:00081930       ?UpdateSysColors@CXTPAuxData@@QAEXXZ 00482930 f   ToolkitPro1501vc60S:XTPGlobal.obj
 0001:00081c00       ?UpdateSysMetrics@CXTPAuxData@@QAEXXZ 00482c00 f   ToolkitPro1501vc60S:XTPGlobal.obj
 0001:00081c50       ?LoadSysFonts@CXTPAuxData@@QAEHPBD0@Z 00482c50 f   ToolkitPro1501vc60S:XTPGlobal.obj
 0001:00082130       ?FreeSysFonts@CXTPAuxData@@QAEXXZ 00483130 f   ToolkitPro1501vc60S:XTPGlobal.obj
 0001:00082220       ?FontExists@CXTPAuxData@@QAEHPBD@Z 00483220 f   ToolkitPro1501vc60S:XTPGlobal.obj
 0001:00082230       ?CreateSysFont@CXTPAuxData@@QAEHABVCXTPLogFont@@AAVCFont@@JDJJ@Z 00483230 f   ToolkitPro1501vc60S:XTPGlobal.obj
 0001:000822b0       ?GetComCtlVersion@CXTPAuxData@@QAEKXZ 004832b0 f   ToolkitPro1501vc60S:XTPGlobal.obj
 0001:000822d0       ?XTPAuxData@@YGAAVCXTPAuxData@@XZ 004832d0 f   ToolkitPro1501vc60S:XTPGlobal.obj
 0001:00082320       ??0CXTPTcbItem@@QAE@XZ     00483320 f   ToolkitPro1501vc60S:XTPGlobal.obj
 0001:00082360       ?XTPContextMenu@@YGHPAVCMenu@@IHHPAVCWnd@@HH@Z 00483360 f   ToolkitPro1501vc60S:XTPFunctions.obj
 0001:000824a0       ?CreateObject@CXTPDockBar@@SGPAVCObject@@XZ 004834a0 f   ToolkitPro1501vc60S:XTPDockBar.obj
 0001:00082500       ?GetRuntimeClass@CXTPDockBar@@UBEPAUCRuntimeClass@@XZ 00483500 f   ToolkitPro1501vc60S:XTPDockBar.obj
 0001:00082510       ??0CXTPDockBar@@QAE@XZ     00483510 f   ToolkitPro1501vc60S:XTPDockBar.obj
 0001:000826b0       ?Create@CXTPDockBar@@EAEHPBD0KABUtagRECT@@PAVCWnd@@IPAUCCreateContext@@@Z 004836b0 f i ToolkitPro1501vc60S:XTPDockBar.obj
 0001:000826b0       ?Create@CXTPDockingPaneMiniWnd@@EAEHPBD0KABUtagRECT@@PAVCWnd@@IPAUCCreateContext@@@Z 004836b0 f i ToolkitPro1501vc60S:XTPDockBar.obj
 0001:000826b0       ?Create@CXTPPopupBar@@EAEHPBD0KABUtagRECT@@PAVCWnd@@IPAUCCreateContext@@@Z 004836b0 f i ToolkitPro1501vc60S:XTPDockBar.obj
 0001:000826b0       ?Create@CXTPDockingPaneSplitterWnd@@EAEHPBD0KABUtagRECT@@PAVCWnd@@IPAUCCreateContext@@@Z 004836b0 f i ToolkitPro1501vc60S:XTPDockBar.obj
 0001:000826b0       ?Create@CXTPTabControl@@EAEHPBD0KABUtagRECT@@PAVCWnd@@IPAUCCreateContext@@@Z 004836b0 f i ToolkitPro1501vc60S:XTPDockBar.obj
 0001:000826b0       ?Create@CXTPToolTipContextToolTip@@EAEHPBD0KABUtagRECT@@PAVCWnd@@IPAUCCreateContext@@@Z 004836b0 f i ToolkitPro1501vc60S:XTPDockBar.obj
 0001:000826b0       ?Create@CXTPDockingPaneAutoHidePanel@@EAEHPBD0KABUtagRECT@@PAVCWnd@@IPAUCCreateContext@@@Z 004836b0 f i ToolkitPro1501vc60S:XTPDockBar.obj
 0001:000826b0       ?Create@CXTPToolBar@@EAEHPBD0KABUtagRECT@@PAVCWnd@@IPAUCCreateContext@@@Z 004836b0 f i ToolkitPro1501vc60S:XTPDockBar.obj
 0001:000826b0       ?Create@CXTPTabCtrlButtons@@EAEHPBD0KABUtagRECT@@PAVCWnd@@IPAUCCreateContext@@@Z 004836b0 f i ToolkitPro1501vc60S:XTPDockBar.obj
 0001:000826b0       ?Create@CXTPStatusBar@@EAEHPBD0KABUtagRECT@@PAVCWnd@@IPAUCCreateContext@@@Z 004836b0 f i ToolkitPro1501vc60S:XTPDockBar.obj
 0001:000826b0       ?Create@CXTPTrayIcon@@EAEHPBD0KABUtagRECT@@PAVCWnd@@IPAUCCreateContext@@@Z 004836b0 f i ToolkitPro1501vc60S:XTPDockBar.obj
 0001:000826e0       ??_GCXTPDockBar@@UAEPAXI@Z 004836e0 f i ToolkitPro1501vc60S:XTPDockBar.obj
 0001:000826e0       ??_ECXTPDockBar@@UAEPAXI@Z 004836e0 f i ToolkitPro1501vc60S:XTPDockBar.obj
 0001:00082700       ??1CXTPDockBar@@UAE@XZ     00483700 f   ToolkitPro1501vc60S:XTPDockBar.obj
 0001:00082770       ?GetMessageMap@CXTPDockBar@@MBEPBUAFX_MSGMAP@@XZ 00483770 f   ToolkitPro1501vc60S:XTPDockBar.obj
 0001:00082780       ?OnNcHitTest@CXTPDockBar@@IAEJVCPoint@@@Z 00483780 f   ToolkitPro1501vc60S:XTPDockBar.obj
 0001:000827e0       ?Create@CXTPDockBar@@IAEHPAVCWnd@@KI@Z 004837e0 f   ToolkitPro1501vc60S:XTPDockBar.obj
 0001:000828a0       ?PreCreateWindow@CXTPDockBar@@MAEHAAUtagCREATESTRUCTA@@@Z 004838a0 f   ToolkitPro1501vc60S:XTPDockBar.obj
 0001:000828d0       ?_GetMode@CXTPDockBar@@IAEHHPAVCXTPToolBar@@@Z 004838d0 f   ToolkitPro1501vc60S:XTPDockBar.obj
 0001:00082910       ?_AdjustRow@CXTPDockBar@@IAEHAAV?$CArray@PAVCXTPToolBar@@PAV1@@@VCPoint@@HHPAUAFX_SIZEPARENTPARAMS@@AAH@Z 00483910 f   ToolkitPro1501vc60S:XTPDockBar.obj
 0001:000830b0       ?CompareFunc@CDockInfoArray@CXTPDockBar@@SAHPBX0@Z 004840b0 f i ToolkitPro1501vc60S:XTPDockBar.obj
 0001:000830d0       ??1CDockInfoArray@CXTPDockBar@@UAE@XZ 004840d0 f i ToolkitPro1501vc60S:XTPDockBar.obj
 0001:00083120       ??_ECDockInfoArray@CXTPDockBar@@UAEPAXI@Z 00484120 f i ToolkitPro1501vc60S:XTPDockBar.obj
 0001:00083120       ??_GCDockInfoArray@CXTPDockBar@@UAEPAXI@Z 00484120 f i ToolkitPro1501vc60S:XTPDockBar.obj
 0001:00083140       ?AdjustRow@CXTPDockBar@@IAEHAAV?$CArray@PAVCXTPToolBar@@PAV1@@@VCPoint@@HHPAUAFX_SIZEPARENTPARAMS@@@Z 00484140 f   ToolkitPro1501vc60S:XTPDockBar.obj
 0001:000832b0       ?CalcDynamicLayout@CXTPDockBar@@IAE?AVCSize@@HKPAUAFX_SIZEPARENTPARAMS@@@Z 004842b0 f   ToolkitPro1501vc60S:XTPDockBar.obj
 0001:000834a0       ?OnSizeParent@CXTPDockBar@@IAEJIJ@Z 004844a0 f   ToolkitPro1501vc60S:XTPDockBar.obj
 0001:00083620       ?OnPaint@CXTPDockBar@@IAEXXZ 00484620 f   ToolkitPro1501vc60S:XTPDockBar.obj
 0001:00083690       ?OnPrintClient@CXTPDockBar@@IAEJIJ@Z 00484690 f   ToolkitPro1501vc60S:XTPDockBar.obj
 0001:000836d0       ?AdjustStretchBars@CXTPDockBar@@IAEXXZ 004846d0 f   ToolkitPro1501vc60S:XTPDockBar.obj
 0001:00083a50       ?DockCommandBar@CXTPDockBar@@IAEXPAVCXTPToolBar@@PBUtagRECT@@@Z 00484a50 f   ToolkitPro1501vc60S:XTPDockBar.obj
 0001:00083be0       ?RemoveCommandBar@CXTPDockBar@@IAEHPAVCXTPToolBar@@H@Z 00484be0 f   ToolkitPro1501vc60S:XTPDockBar.obj
 0001:00083c90       ?GetDockedCommandBar@CXTPDockBar@@IBEPAVCXTPToolBar@@H@Z 00484c90 f   ToolkitPro1501vc60S:XTPDockBar.obj
 0001:00083ca0       ?FindBar@CXTPDockBar@@IAEHPAVCXTPToolBar@@H@Z 00484ca0 f   ToolkitPro1501vc60S:XTPDockBar.obj
 0001:00083cd0       ?Insert@CXTPDockBar@@IAEHPAVCXTPToolBar@@VCRect@@VCPoint@@@Z 00484cd0 f   ToolkitPro1501vc60S:XTPDockBar.obj
 0001:00084010       ?GetPosition@CXTPDockBar@@QBE?AW4XTPBarPosition@@XZ 00485010 f   ToolkitPro1501vc60S:XTPDockBar.obj
 0001:00084040       ?OnRButtonDown@CXTPDockBar@@IAEXIVCPoint@@@Z 00485040 f   ToolkitPro1501vc60S:XTPDockBar.obj
 0001:00084070       ?GetVisibleToolbars@CXTPDockBar@@IAEXHAAV?$CArray@PAVCXTPToolBar@@PAV1@@@@Z 00485070 f   ToolkitPro1501vc60S:XTPDockBar.obj
 0001:00084260       ??0?$CArray@UDOCK_INFO@CXTPDockBar@@AAU12@@@QAE@XZ 00485260 f i ToolkitPro1501vc60S:XTPDockBar.obj
 0001:00084280       ?Serialize@?$CArray@UDOCK_INFO@CXTPDockBar@@AAU12@@@UAEXAAVCArchive@@@Z 00485280 f i ToolkitPro1501vc60S:XTPDockBar.obj
 0001:00084410       ??_G?$CArray@UDOCK_INFO@CXTPDockBar@@AAU12@@@UAEPAXI@Z 00485410 f i ToolkitPro1501vc60S:XTPDockBar.obj
 0001:00084410       ??_E?$CArray@UDOCK_INFO@CXTPDockBar@@AAU12@@@UAEPAXI@Z 00485410 f i ToolkitPro1501vc60S:XTPDockBar.obj
 0001:00084430       ??1?$CArray@UDOCK_INFO@CXTPDockBar@@AAU12@@@UAE@XZ 00485430 f i ToolkitPro1501vc60S:XTPDockBar.obj
 0001:00084480       ?SetSize@?$CArray@UDOCK_INFO@CXTPDockBar@@AAU12@@@QAEXHH@Z 00485480 f i ToolkitPro1501vc60S:XTPDockBar.obj
 0001:000845c0       ?SetAtGrow@?$CArray@UDOCK_INFO@CXTPDockBar@@AAU12@@@QAEXHAAUDOCK_INFO@CXTPDockBar@@@Z 004855c0 f i ToolkitPro1501vc60S:XTPDockBar.obj
 0001:00084710       ?ConstructElements@@YGXPAUDOCK_INFO@CXTPDockBar@@H@Z 00485710 f i ToolkitPro1501vc60S:XTPDockBar.obj
 0001:000847b0       ??0DOCK_INFO@CXTPDockBar@@QAE@PAVCXTPToolBar@@VCRect@@H@Z 004857b0 f i ToolkitPro1501vc60S:XTPDockBar.obj
 0001:00084800       ?Draw@CControlExpandButton@CXTPPopupBar@@UAEXPAVCDC@@@Z 00485800 f   ToolkitPro1501vc60S:XTPPopupBar.obj
 0001:00084840       ?OnExecute@CControlExpandButton@CXTPPopupBar@@UAEXXZ 00485840 f   ToolkitPro1501vc60S:XTPPopupBar.obj
 0001:00084850       ?CreateObject@CXTPPopupBar@@SGPAVCObject@@XZ 00485850 f   ToolkitPro1501vc60S:XTPPopupBar.obj
 0001:000848b0       ?GetRuntimeClass@CXTPPopupBar@@UBEPAUCRuntimeClass@@XZ 004858b0 f   ToolkitPro1501vc60S:XTPPopupBar.obj
 0001:000848e0       ?Clone@CXTPPopupBar@@UAEPAVCXTPCommandBar@@H@Z 004858e0 f   ToolkitPro1501vc60S:XTPPopupBar.obj
 0001:00084910       ??0CXTPPopupBar@@IAE@XZ    00485910 f   ToolkitPro1501vc60S:XTPPopupBar.obj
 0001:00084a60       ??_GCXTPPopupBar@@MAEPAXI@Z 00485a60 f i ToolkitPro1501vc60S:XTPPopupBar.obj
 0001:00084a60       ??_ECXTPPopupBar@@MAEPAXI@Z 00485a60 f i ToolkitPro1501vc60S:XTPPopupBar.obj
 0001:00084a80       ?CreatePopupBar@CXTPPopupBar@@SAPAV1@PAVCXTPCommandBars@@@Z 00485a80 f   ToolkitPro1501vc60S:XTPPopupBar.obj
 0001:00084aa0       ??1CXTPPopupBar@@MAE@XZ    00485aa0 f   ToolkitPro1501vc60S:XTPPopupBar.obj
 0001:00084b10       ?IsVisible@CXTPPopupBar@@UBEHXZ 00485b10 f   ToolkitPro1501vc60S:XTPPopupBar.obj
 0001:00084b30       ?ExpandBar@CXTPPopupBar@@QAEXXZ 00485b30 f   ToolkitPro1501vc60S:XTPPopupBar.obj
 0001:00084bc0       ?Create@CXTPPopupBar@@UAEHXZ 00485bc0 f   ToolkitPro1501vc60S:XTPPopupBar.obj
 0001:00084cc0       ?GetAnimationType@CXTPPopupBar@@ABE?AW4XTPAnimationType@@XZ 00485cc0 f   ToolkitPro1501vc60S:XTPPopupBar.obj
 0001:00084da0       ?OnControlsChanged@CXTPPopupBar@@MAEXXZ 00485da0 f   ToolkitPro1501vc60S:XTPPopupBar.obj
 0001:00084dc0       ?RecalcSizeLayout@CXTPPopupBar@@AAEXXZ 00485dc0 f   ToolkitPro1501vc60S:XTPPopupBar.obj
 0001:00084f70       ?OnRecalcLayout@CXTPPopupBar@@MAEXXZ 00485f70 f   ToolkitPro1501vc60S:XTPPopupBar.obj
 0001:00085420       ?GetBorders@CXTPPopupBar@@UAE?AVCRect@@XZ 00486420 f   ToolkitPro1501vc60S:XTPPopupBar.obj
 0001:000854a0       ?CalcDynamicLayout@CXTPPopupBar@@UAE?AVCSize@@HK@Z 004864a0 f   ToolkitPro1501vc60S:XTPPopupBar.obj
 0001:000858e0       ?CalculatePopupRect@CXTPPopupBar@@UAE?AVCRect@@VCPoint@@VCSize@@@Z 004868e0 f   ToolkitPro1501vc60S:XTPPopupBar.obj
 0001:00085e40       ?UpdateLocation@CXTPPopupBar@@IAEXVCSize@@@Z 00486e40 f   ToolkitPro1501vc60S:XTPPopupBar.obj
 0001:00085ec0       ?AdjustScrolling@CXTPPopupBar@@AAEXPAUtagSIZE@@HH@Z 00486ec0 f   ToolkitPro1501vc60S:XTPPopupBar.obj
 0001:00086510       ?UpdateShortcuts@CXTPCommandBar@@MAEXXZ 00487510 f   ToolkitPro1501vc60S:XTPPopupBar.obj
 0001:00086640       ?AdjustExcludeRect@CXTPPopupBar@@MAEXAAVCRect@@H@Z 00487640 f   ToolkitPro1501vc60S:XTPPopupBar.obj
 0001:00086660       ?UpdateFlags@CXTPPopupBar@@MAEXXZ 00487660 f   ToolkitPro1501vc60S:XTPPopupBar.obj
 0001:00086800       ?UpdateExpandingState@CXTPPopupBar@@IAEXXZ 00487800 f   ToolkitPro1501vc60S:XTPPopupBar.obj
 0001:00086970       ?Animate@CXTPPopupBar@@MAEXXZ 00487970 f   ToolkitPro1501vc60S:XTPPopupBar.obj
 0001:00086c30       ?Popup@CXTPPopupBar@@UAEHPAVCXTPControlPopup@@H@Z 00487c30 f   ToolkitPro1501vc60S:XTPPopupBar.obj
 0001:00086e80       ?Popup@CXTPPopupBar@@QAEHHHPBUtagRECT@@@Z 00487e80 f   ToolkitPro1501vc60S:XTPPopupBar.obj
 0001:00086ec0       ?GetMessageMap@CXTPPopupBar@@MBEPBUAFX_MSGMAP@@XZ 00487ec0 f   ToolkitPro1501vc60S:XTPPopupBar.obj
 0001:00086ed0       ?SwitchTearOffTracking@CXTPPopupBar@@AAEXHVCPoint@@@Z 00487ed0 f   ToolkitPro1501vc60S:XTPPopupBar.obj
 0001:000870b0       ?TrackResize@CXTPPopupBar@@AAEXXZ 004880b0 f   ToolkitPro1501vc60S:XTPPopupBar.obj
 0001:00087300       ?TrackTearOff@CXTPPopupBar@@AAEXXZ 00488300 f   ToolkitPro1501vc60S:XTPPopupBar.obj
 0001:000874b0       ?_MouseInResizeGripper@CXTPPopupBar@@AAEHABUtagPOINT@@@Z 004884b0 f   ToolkitPro1501vc60S:XTPPopupBar.obj
 0001:00087540       ?OnSetCursor@CXTPPopupBar@@IAEHPAVCWnd@@II@Z 00488540 f   ToolkitPro1501vc60S:XTPPopupBar.obj
 0001:000875d0       ?OnLButtonDown@CXTPPopupBar@@IAEXIVCPoint@@@Z 004885d0 f   ToolkitPro1501vc60S:XTPPopupBar.obj
 0001:000876d0       ?DestroyWindow@CXTPPopupBar@@UAEHXZ 004886d0 f   ToolkitPro1501vc60S:XTPPopupBar.obj
 0001:00087770       ?SetTrackingMode@CXTPPopupBar@@UAEHHHH@Z 00488770 f   ToolkitPro1501vc60S:XTPPopupBar.obj
 0001:00087840       ?OnMouseMove@CXTPPopupBar@@IAEXIVCPoint@@@Z 00488840 f   ToolkitPro1501vc60S:XTPPopupBar.obj
 0001:00087a00       ?GetParentCommandBar@CXTPPopupBar@@MBEPAVCXTPCommandBar@@XZ 00488a00 f   ToolkitPro1501vc60S:XTPPopupBar.obj
 0001:00087a20       ?OnNcCreate@CXTPToolBar@@IAEHPAUtagCREATESTRUCTA@@@Z 00488a20 f   ToolkitPro1501vc60S:XTPPopupBar.obj
 0001:00087a20       ?OnNcCreate@CXTPPopupBar@@IAEHPAUtagCREATESTRUCTA@@@Z 00488a20 f   ToolkitPro1501vc60S:XTPPopupBar.obj
 0001:00087ac0       ?OnFloatStatus@CXTPPopupBar@@IAEJIJ@Z 00488ac0 f   ToolkitPro1501vc60S:XTPPopupBar.obj
 0001:00087ae0       ?DrawCommandBar@CXTPPopupBar@@MAEXPAVCDC@@VCRect@@@Z 00488ae0 f   ToolkitPro1501vc60S:XTPPopupBar.obj
 0001:00087ca0       ?SetSelected@CXTPPopupBar@@MAEHHH@Z 00488ca0 f   ToolkitPro1501vc60S:XTPPopupBar.obj
 0001:00087d80       ?OnTimer@CXTPPopupBar@@IAEXI@Z 00488d80 f   ToolkitPro1501vc60S:XTPPopupBar.obj
 0001:00087f70       ?OnHookKeyDown@CXTPPopupBar@@MAEHIJ@Z 00488f70 f   ToolkitPro1501vc60S:XTPPopupBar.obj
 0001:00087fd0       ?GetDefaultItem@CXTPPopupBar@@QAEIIH@Z 00488fd0 f   ToolkitPro1501vc60S:XTPPopupBar.obj
 0001:00088040       ?Copy@CXTPPopupBar@@MAEXPAVCXTPCommandBar@@H@Z 00489040 f   ToolkitPro1501vc60S:XTPPopupBar.obj
 0001:000880d0       ?CreateObject@CXTPPopupToolBar@@SGPAVCObject@@XZ 004890d0 f   ToolkitPro1501vc60S:XTPPopupBar.obj
 0001:00088130       ?GetRuntimeClass@CXTPPopupToolBar@@UBEPAUCRuntimeClass@@XZ 00489130 f   ToolkitPro1501vc60S:XTPPopupBar.obj
 0001:00088160       ?Clone@CXTPPopupToolBar@@UAEPAVCXTPCommandBar@@H@Z 00489160 f   ToolkitPro1501vc60S:XTPPopupBar.obj
 0001:00088190       ??0CXTPPopupToolBar@@QAE@XZ 00489190 f   ToolkitPro1501vc60S:XTPPopupBar.obj
 0001:000881c0       ??1CXTPRibbonSystemPopupBarPage@@UAE@XZ 004891c0 f i ToolkitPro1501vc60S:XTPPopupBar.obj
 0001:000881c0       ??1CXTPControlComboBoxPopupBar@@UAE@XZ 004891c0 f i ToolkitPro1501vc60S:XTPPopupBar.obj
 0001:000881c0       ??1CCaptionPopupBar@CXTPDialogBar@@UAE@XZ 004891c0 f i ToolkitPro1501vc60S:XTPPopupBar.obj
 0001:000881c0       ??1CXTPControlComboBoxList@@UAE@XZ 004891c0 f i ToolkitPro1501vc60S:XTPPopupBar.obj
 0001:000881c0       ??1CXTPRibbonSystemPopupBar@@UAE@XZ 004891c0 f i ToolkitPro1501vc60S:XTPPopupBar.obj
 0001:000881c0       ??1CXTPPopupToolBar@@UAE@XZ 004891c0 f i ToolkitPro1501vc60S:XTPPopupBar.obj
 0001:000881c0       ??1CXTPSysMenuPopupBar@CControlMDISysMenuPopup@CXTPMenuBar@@UAE@XZ 004891c0 f i ToolkitPro1501vc60S:XTPPopupBar.obj
 0001:000881c0       ??1CXTPControlComboBoxGalleryPopupBar@@UAE@XZ 004891c0 f i ToolkitPro1501vc60S:XTPPopupBar.obj
 0001:000881c0       ??1CXTPRibbonBarMorePopupToolBar@@UAE@XZ 004891c0 f i ToolkitPro1501vc60S:XTPPopupBar.obj
 0001:000881d0       ?CalcDynamicLayout@CXTPPopupToolBar@@MAE?AVCSize@@HK@Z 004891d0 f   ToolkitPro1501vc60S:XTPPopupBar.obj
 0001:00088200       ?CreatePopupToolBar@CXTPPopupToolBar@@SAPAV1@PAVCXTPCommandBars@@@Z 00489200 f   ToolkitPro1501vc60S:XTPPopupBar.obj
 0001:00088220       ??_ECXTPPopupBar@@ODM@AEPAXI@Z 00489220 f i ToolkitPro1501vc60S:XTPPopupBar.obj
 0001:00088230       ??_ECXTPPopupBar@@OEE@AEPAXI@Z 00489230 f i ToolkitPro1501vc60S:XTPPopupBar.obj
 0001:00088240       ??0CXTPMenuBarMDIMenuInfo@@QAE@PAVCXTPCommandBars@@I@Z 00489240 f   ToolkitPro1501vc60S:XTPMenuBar.obj
 0001:00088360       ??_ECXTPMenuBarMDIMenuInfo@@UAEPAXI@Z 00489360 f i ToolkitPro1501vc60S:XTPMenuBar.obj
 0001:00088360       ??_GCXTPMenuBarMDIMenuInfo@@UAEPAXI@Z 00489360 f i ToolkitPro1501vc60S:XTPMenuBar.obj
 0001:00088380       ??1CXTPMenuBarMDIMenuInfo@@UAE@XZ 00489380 f   ToolkitPro1501vc60S:XTPMenuBar.obj
 0001:000883f0       ??0CXTPMenuBarMDIMenus@@QAE@PAVCXTPMenuBar@@@Z 004893f0 f   ToolkitPro1501vc60S:XTPMenuBar.obj
 0001:00088430       ??_GCXTPMenuBarMDIMenus@@UAEPAXI@Z 00489430 f i ToolkitPro1501vc60S:XTPMenuBar.obj
 0001:00088430       ??_ECXTPMenuBarMDIMenus@@UAEPAXI@Z 00489430 f i ToolkitPro1501vc60S:XTPMenuBar.obj
 0001:00088450       ??1CXTPMenuBarMDIMenus@@UAE@XZ 00489450 f   ToolkitPro1501vc60S:XTPMenuBar.obj
 0001:00088500       ?RemoveAll@CXTPMenuBarMDIMenus@@QAEXXZ 00489500 f   ToolkitPro1501vc60S:XTPMenuBar.obj
 0001:000885b0       ?Remove@CXTPMenuBarMDIMenus@@QAEXI@Z 004895b0 f   ToolkitPro1501vc60S:XTPMenuBar.obj
 0001:00088670       ?SetAt@CXTPMenuBarMDIMenus@@QAEXIPAVCXTPMenuBarMDIMenuInfo@@@Z 00489670 f   ToolkitPro1501vc60S:XTPMenuBar.obj
 0001:00088760       ?Lookup@CXTPMenuBarMDIMenus@@QBEPAVCXTPMenuBarMDIMenuInfo@@I@Z 00489760 f   ToolkitPro1501vc60S:XTPMenuBar.obj
 0001:000887a0       ?GetStartPosition@CXTPMenuBarMDIMenus@@QBEPAU__POSITION@@XZ 004897a0 f   ToolkitPro1501vc60S:XTPMenuBar.obj
 0001:000887b0       ?GetNextMenu@CXTPMenuBarMDIMenus@@QBEXAAPAU__POSITION@@AAPAVCXTPMenuBarMDIMenuInfo@@@Z 004897b0 f   ToolkitPro1501vc60S:XTPMenuBar.obj
 0001:00088810       ?Draw@CControlMDIButton@CXTPMenuBar@@UAEXPAVCDC@@@Z 00489810 f   ToolkitPro1501vc60S:XTPMenuBar.obj
 0001:00088830       ?CreateObject@CXTPMenuBar@@SGPAVCObject@@XZ 00489830 f   ToolkitPro1501vc60S:XTPMenuBar.obj
 0001:00088890       ?GetRuntimeClass@CXTPMenuBar@@UBEPAUCRuntimeClass@@XZ 00489890 f   ToolkitPro1501vc60S:XTPMenuBar.obj
 0001:000888c0       ?Clone@CXTPMenuBar@@UAEPAVCXTPCommandBar@@H@Z 004898c0 f   ToolkitPro1501vc60S:XTPMenuBar.obj
 0001:000888f0       ??0CXTPMenuBar@@QAE@XZ     004898f0 f   ToolkitPro1501vc60S:XTPMenuBar.obj
 0001:000889c0       ?DelayRedraw@CXTPCommandBar@@UAEXXZ 004899c0 f i ToolkitPro1501vc60S:XTPMenuBar.obj
 0001:000889d0       ?IsVisible@CXTPToolBar@@UBEHXZ 004899d0 f i ToolkitPro1501vc60S:XTPMenuBar.obj
 0001:000889e0       ??_GCXTPMenuBar@@UAEPAXI@Z 004899e0 f i ToolkitPro1501vc60S:XTPMenuBar.obj
 0001:000889e0       ??_ECXTPMenuBar@@UAEPAXI@Z 004899e0 f i ToolkitPro1501vc60S:XTPMenuBar.obj
 0001:00088a00       ??1CXTPMenuBar@@UAE@XZ     00489a00 f   ToolkitPro1501vc60S:XTPMenuBar.obj
 0001:00088a80       ?OnDestroy@CXTPMenuBar@@IAEXXZ 00489a80 f   ToolkitPro1501vc60S:XTPMenuBar.obj
 0001:00088ac0       ?SetupHook@CXTPMenuBar@@IAEXXZ 00489ac0 f   ToolkitPro1501vc60S:XTPMenuBar.obj
 0001:00088b40       ?GetActiveMdiChildWnd@CXTPMenuBar@@IAEPAUHWND__@@PAH@Z 00489b40 f   ToolkitPro1501vc60S:XTPMenuBar.obj
 0001:00088bb0       ?IsOleDocumentActive@CXTPMenuBar@@ABEHPAUHWND__@@@Z 00489bb0 f   ToolkitPro1501vc60S:XTPMenuBar.obj
 0001:00088c40       ?SyncActiveMdiChild@CXTPMenuBar@@IAEXXZ 00489c40 f   ToolkitPro1501vc60S:XTPMenuBar.obj
 0001:00088cc0       ?RefreshMenu@CXTPMenuBar@@QAEXXZ 00489cc0 f   ToolkitPro1501vc60S:XTPMenuBar.obj
 0001:00088cf0       ?AddSysButton@CXTPMenuBar@@AAEXPAVCXTPControl@@HPBDH@Z 00489cf0 f   ToolkitPro1501vc60S:XTPMenuBar.obj
 0001:00088d20       ?RefreshSysButtons@CXTPMenuBar@@MAEXXZ 00489d20 f   ToolkitPro1501vc60S:XTPMenuBar.obj
 0001:000893b0       ?OnExecute@CControlMDIButton@CXTPMenuBar@@UAEXXZ 0048a3b0 f i ToolkitPro1501vc60S:XTPMenuBar.obj
 0001:00089410       ?SetMDISysMenu@CControlMDISysMenuPopup@CXTPMenuBar@@QAEXPAUHWND__@@PAUHMENU__@@@Z 0048a410 f i ToolkitPro1501vc60S:XTPMenuBar.obj
 0001:000896e0       ?GetSize@CControlMDISysMenuPopup@CXTPMenuBar@@UAE?AVCSize@@PAVCDC@@@Z 0048a6e0 f i ToolkitPro1501vc60S:XTPMenuBar.obj
 0001:000896e0       ?GetSize@CControlMDIButton@CXTPMenuBar@@UAE?AVCSize@@PAVCDC@@@Z 0048a6e0 f i ToolkitPro1501vc60S:XTPMenuBar.obj
 0001:00089700       ?Draw@CControlMDISysMenuPopup@CXTPMenuBar@@UAEXPAVCDC@@@Z 0048a700 f i ToolkitPro1501vc60S:XTPMenuBar.obj
 0001:00089750       ?AdjustExcludeRect@CControlMDISysMenuPopup@CXTPMenuBar@@UAEXAAVCRect@@H@Z 0048a750 f i ToolkitPro1501vc60S:XTPMenuBar.obj
 0001:00089770       ??_ECControlMDISysMenuPopup@CXTPMenuBar@@UAEPAXI@Z 0048a770 f i ToolkitPro1501vc60S:XTPMenuBar.obj
 0001:00089770       ??_GCControlMDISysMenuPopup@CXTPMenuBar@@UAEPAXI@Z 0048a770 f i ToolkitPro1501vc60S:XTPMenuBar.obj
 0001:00089790       ??1CControlMDISysMenuPopup@CXTPMenuBar@@UAE@XZ 0048a790 f i ToolkitPro1501vc60S:XTPMenuBar.obj
 0001:000897c0       ?FreeMDIMenus@CXTPMenuBar@@QAEXXZ 0048a7c0 f   ToolkitPro1501vc60S:XTPMenuBar.obj
 0001:000897d0       ?IsMDIMenusChanged@CXTPMenuBar@@AAEHXZ 0048a7d0 f   ToolkitPro1501vc60S:XTPMenuBar.obj
 0001:00089870       ?SwitchActiveMenu@CXTPMenuBar@@QAEXXZ 0048a870 f   ToolkitPro1501vc60S:XTPMenuBar.obj
 0001:000898b0       ?SwitchMDIMenu@CXTPMenuBar@@UAEXIPAVCMenu@@@Z 0048a8b0 f   ToolkitPro1501vc60S:XTPMenuBar.obj
 0001:00089b50       ?SwitchMDIMenu@CXTPMenuBar@@IAEXPAUHMENU__@@@Z 0048ab50 f   ToolkitPro1501vc60S:XTPMenuBar.obj
 0001:00089bb0       ?OnHookMessage@CXTPMenuBar@@MAEHPAUHWND__@@IAAIAAJ2@Z 0048abb0 f   ToolkitPro1501vc60S:XTPMenuBar.obj
 0001:00089e00       ?SetupMenu@CXTPMenuBar@@IAEXXZ 0048ae00 f   ToolkitPro1501vc60S:XTPMenuBar.obj
 0001:00089ea0       ?LoadMenuBar@CXTPMenuBar@@UAEHI@Z 0048aea0 f   ToolkitPro1501vc60S:XTPMenuBar.obj
 0001:00089fc0       ?GetMessageMap@CXTPMenuBar@@MBEPBUAFX_MSGMAP@@XZ 0048afc0 f   ToolkitPro1501vc60S:XTPMenuBar.obj
 0001:00089fd0       ?OnTimer@CXTPMenuBar@@IAEXI@Z 0048afd0 f   ToolkitPro1501vc60S:XTPMenuBar.obj
 0001:0008a000       ?Reset@CXTPMenuBar@@UAEXH@Z 0048b000 f   ToolkitPro1501vc60S:XTPMenuBar.obj
 0001:0008a240       ??1CXTPPushRoutingFrame@CXTPToolBar@@QAE@XZ 0048b240 f i ToolkitPro1501vc60S:XTPMenuBar.obj
 0001:0008a250       ?Copy@CXTPMenuBar@@MAEXPAVCXTPCommandBar@@H@Z 0048b250 f   ToolkitPro1501vc60S:XTPMenuBar.obj
 0001:0008a360       ?ShouldSerializeBar@CXTPMenuBar@@MAEHXZ 0048b360 f   ToolkitPro1501vc60S:XTPMenuBar.obj
 0001:0008a3a0       ??1?$CMap@IIPAVCXTPMenuBarMDIMenuInfo@@PAV1@@@UAE@XZ 0048b3a0 f i ToolkitPro1501vc60S:XTPMenuBar.obj
 0001:0008a420       ??_G?$CMap@IIPAVCXTPMenuBarMDIMenuInfo@@PAV1@@@UAEPAXI@Z 0048b420 f i ToolkitPro1501vc60S:XTPMenuBar.obj
 0001:0008a420       ??_E?$CMap@IIPAVCXTPMenuBarMDIMenuInfo@@PAV1@@@UAEPAXI@Z 0048b420 f i ToolkitPro1501vc60S:XTPMenuBar.obj
 0001:0008a440       ?GetMenuStringA@CMenu@@QBEHIAAVCString@@I@Z 0048b440 f i ToolkitPro1501vc60S:XTPMenuBar.obj
 0001:0008a4b0       ??_ECControlMDISysMenuPopup@CXTPMenuBar@@WBM@AEPAXI@Z 0048b4b0 f i ToolkitPro1501vc60S:XTPMenuBar.obj
 0001:0008a4c0       ??_ECXTPMenuBar@@WDM@AEPAXI@Z 0048b4c0 f i ToolkitPro1501vc60S:XTPMenuBar.obj
 0001:0008a4d0       ??_ECXTPMenuBar@@WEE@AEPAXI@Z 0048b4d0 f i ToolkitPro1501vc60S:XTPMenuBar.obj
 0001:0008a4e0       ?CreateObject@CXTPToolBar@@SGPAVCObject@@XZ 0048b4e0 f   ToolkitPro1501vc60S:XTPToolBar.obj
 0001:0008a540       ?GetRuntimeClass@CXTPToolBar@@UBEPAUCRuntimeClass@@XZ 0048b540 f   ToolkitPro1501vc60S:XTPToolBar.obj
 0001:0008a570       ?Clone@CXTPToolBar@@UAEPAVCXTPCommandBar@@H@Z 0048b570 f   ToolkitPro1501vc60S:XTPToolBar.obj
 0001:0008a5a0       ?Draw@CControlButtonHide@CXTPToolBar@@UAEXPAVCDC@@@Z 0048b5a0 f   ToolkitPro1501vc60S:XTPToolBar.obj
 0001:0008a5e0       ?IsHiddenExists@CControlButtonExpand@CXTPToolBar@@QAEHXZ 0048b5e0 f   ToolkitPro1501vc60S:XTPToolBar.obj
 0001:0008a630       ?Draw@CControlButtonExpand@CXTPToolBar@@UAEXPAVCDC@@@Z 0048b630 f   ToolkitPro1501vc60S:XTPToolBar.obj
 0001:0008a690       ?OnSetPopup@CControlButtonExpand@CXTPToolBar@@UAEHH@Z 0048b690 f   ToolkitPro1501vc60S:XTPToolBar.obj
 0001:0008a8c0       ??0CXTPToolBar@@QAE@XZ     0048b8c0 f   ToolkitPro1501vc60S:XTPToolBar.obj
 0001:0008a9b0       ??_ECXTPToolBar@@UAEPAXI@Z 0048b9b0 f i ToolkitPro1501vc60S:XTPToolBar.obj
 0001:0008a9b0       ??_GCXTPToolBar@@UAEPAXI@Z 0048b9b0 f i ToolkitPro1501vc60S:XTPToolBar.obj
 0001:0008a9d0       ?EnableDocking@CXTPToolBar@@QAEXK@Z 0048b9d0 f   ToolkitPro1501vc60S:XTPToolBar.obj
 0001:0008a9e0       ??1CXTPToolBar@@UAE@XZ     0048b9e0 f   ToolkitPro1501vc60S:XTPToolBar.obj
 0001:0008aa60       ?SetButtons@CXTPCommandBar@@QAEHPAIH@Z 0048ba60 f   ToolkitPro1501vc60S:XTPToolBar.obj
 0001:0008ac70       ??1XTP_COMMANDBARS_CREATECONTROL@@QAE@XZ 0048bc70 f i ToolkitPro1501vc60S:XTPToolBar.obj
 0001:0008ac80       ?LoadToolBar@CXTPToolBar@@UAEHIH@Z 0048bc80 f   ToolkitPro1501vc60S:XTPToolBar.obj
 0001:0008acc0       ?LoadToolBar@CXTPCommandBar@@UAEHIH@Z 0048bcc0 f   ToolkitPro1501vc60S:XTPToolBar.obj
 0001:0008ae10       ?items@CToolBarData@?1??LoadToolBar@CXTPCommandBar@@UAEHIH@Z@QAEPAGXZ 0048be10 f   ToolkitPro1501vc60S:XTPToolBar.obj
 0001:0008ae10       ?items@CToolBarData@?1??LoadToolbar@CXTPImageManager@@ABEHIAAPAIAAHAAVCSize@@@Z@QAEPAGXZ 0048be10 f   ToolkitPro1501vc60S:XTPToolBar.obj
 0001:0008ae20       ?SetPosition@CXTPToolBar@@UAEHW4XTPBarPosition@@@Z 0048be20 f   ToolkitPro1501vc60S:XTPToolBar.obj
 0001:0008ae70       ?GetMessageMap@CXTPToolBar@@MBEPBUAFX_MSGMAP@@XZ 0048be70 f   ToolkitPro1501vc60S:XTPToolBar.obj
 0001:0008ae80       ?OnSetCursor@CXTPToolBar@@IAEHPAVCWnd@@II@Z 0048be80 f   ToolkitPro1501vc60S:XTPToolBar.obj
 0001:0008b000       ?OnToolHitTest@CXTPCommandBar@@UBEHVCPoint@@PAUtagTOOLINFOA@@@Z 0048c000 f   ToolkitPro1501vc60S:XTPToolBar.obj
 0001:0008b340       ?OnRButtonDown@CXTPToolBar@@IAEXIVCPoint@@@Z 0048c340 f   ToolkitPro1501vc60S:XTPToolBar.obj
 0001:0008b400       ?Create@CXTPToolBar@@MAEHPAVCWnd@@H@Z 0048c400 f   ToolkitPro1501vc60S:XTPToolBar.obj
 0001:0008b560       ?GetBorders@CXTPToolBar@@MAE?AVCRect@@XZ 0048c560 f   ToolkitPro1501vc60S:XTPToolBar.obj
 0001:0008b610       ?CalcDockingLayout@CXTPToolBar@@UAE?AVCSize@@HKH@Z 0048c610 f   ToolkitPro1501vc60S:XTPToolBar.obj
 0001:0008b960       ?SetRect@CControlButtonExpand@CXTPToolBar@@UAEXVCRect@@@Z 0048c960 f i ToolkitPro1501vc60S:XTPToolBar.obj
 0001:0008b9a0       ??1CXTPRibbonControlSystemButton@@UAE@XZ 0048c9a0 f i ToolkitPro1501vc60S:XTPToolBar.obj
 0001:0008b9a0       ??1CXTPRibbonBarControlQuickAccessPopup@@UAE@XZ 0048c9a0 f i ToolkitPro1501vc60S:XTPToolBar.obj
 0001:0008b9a0       ??1CControlQuickAccessMorePopup@CXTPRibbonBar@@UAE@XZ 0048c9a0 f i ToolkitPro1501vc60S:XTPToolBar.obj
 0001:0008b9a0       ??1CXTPRibbonGroupControlPopup@@UAE@XZ 0048c9a0 f i ToolkitPro1501vc60S:XTPToolBar.obj
 0001:0008b9a0       ??1CControlButtonExpand@CXTPToolBar@@UAE@XZ 0048c9a0 f i ToolkitPro1501vc60S:XTPToolBar.obj
 0001:0008b9a0       ??1CControlCaptionPopup@CXTPDialogBar@@UAE@XZ 0048c9a0 f i ToolkitPro1501vc60S:XTPToolBar.obj
 0001:0008b9b0       ?CalcDynamicLayout@CXTPToolBar@@UAE?AVCSize@@HK@Z 0048c9b0 f   ToolkitPro1501vc60S:XTPToolBar.obj
 0001:0008bd60       ?OnRecalcLayout@CXTPToolBar@@UAEXXZ 0048cd60 f   ToolkitPro1501vc60S:XTPToolBar.obj
 0001:0008be80       ?OnFloatStatus@CXTPToolBar@@IAEJIJ@Z 0048ce80 f   ToolkitPro1501vc60S:XTPToolBar.obj
 0001:0008bf90       ?IsFloatingFrameFocused@CXTPToolBar@@ABEHXZ 0048cf90 f   ToolkitPro1501vc60S:XTPToolBar.obj
 0001:0008bff0       ?OnMouseActivate@CXTPToolBar@@IAEHPAVCWnd@@II@Z 0048cff0 f   ToolkitPro1501vc60S:XTPToolBar.obj
 0001:0008c030       ?OnNcActivate@CXTPToolBar@@IAEHH@Z 0048d030 f   ToolkitPro1501vc60S:XTPToolBar.obj
 0001:0008c030       ?OnNcActivate@CXTPPopupBar@@IAEHH@Z 0048d030 f   ToolkitPro1501vc60S:XTPToolBar.obj
 0001:0008c050       ?OnLButtonDown@CXTPToolBar@@IAEXIVCPoint@@@Z 0048d050 f   ToolkitPro1501vc60S:XTPToolBar.obj
 0001:0008c0f0       ?OnLButtonDblClk@CXTPToolBar@@IAEXIVCPoint@@@Z 0048d0f0 f   ToolkitPro1501vc60S:XTPToolBar.obj
 0001:0008c140       ?OnNcHitTest@CXTPToolBar@@IAEJVCPoint@@@Z 0048d140 f   ToolkitPro1501vc60S:XTPToolBar.obj
 0001:0008c210       ?OnNcLButtonDown@CXTPToolBar@@IAEXIVCPoint@@@Z 0048d210 f   ToolkitPro1501vc60S:XTPToolBar.obj
 0001:0008c290       ?IsWindowVisible@CXTPToolBar@@QBEHXZ 0048d290 f   ToolkitPro1501vc60S:XTPToolBar.obj
 0001:0008c2f0       ?SetVisible@CXTPToolBar@@UAEXH@Z 0048d2f0 f   ToolkitPro1501vc60S:XTPToolBar.obj
 0001:0008c430       ?OnSizeParent@CXTPToolBar@@IAEJIJ@Z 0048d430 f   ToolkitPro1501vc60S:XTPToolBar.obj
 0001:0008c530       ?GetAutoIconSize@CXTPCommandBar@@IBE?AVCSize@@H@Z 0048d530 f   ToolkitPro1501vc60S:XTPToolBar.obj
 0001:0008c560       ?GetIconSize@CXTPCommandBar@@UBE?AVCSize@@XZ 0048d560 f   ToolkitPro1501vc60S:XTPToolBar.obj
 0001:0008c680       ?GetLargeIconSize@CXTPCommandBar@@QBE?AVCSize@@H@Z 0048d680 f   ToolkitPro1501vc60S:XTPToolBar.obj
 0001:0008c7a0       ?GetButtonSize@CXTPCommandBar@@UBE?AVCSize@@XZ 0048d7a0 f   ToolkitPro1501vc60S:XTPToolBar.obj
 0001:0008c800       ?IsTextBelowIcons@CXTPCommandBar@@QBEHXZ 0048d800 f   ToolkitPro1501vc60S:XTPToolBar.obj
 0001:0008c820       ?_FindNearest@CXTPToolBar@@ABEHPAVCXTPControls@@PAVCXTPControl@@HH@Z 0048d820 f   ToolkitPro1501vc60S:XTPToolBar.obj
 0001:0008c880       ?Reset@CXTPToolBar@@UAEXH@Z 0048d880 f   ToolkitPro1501vc60S:XTPToolBar.obj
 0001:0008ca90       ?BuildCustomizePopup@CXTPToolBar@@AAEXPAVCXTPCommandBar@@@Z 0048da90 f   ToolkitPro1501vc60S:XTPToolBar.obj
 0001:0008cf30       ?OnExecute@CControlButtonCustomize@CXTPToolBar@@UAEXXZ 0048df30 f i ToolkitPro1501vc60S:XTPToolBar.obj
 0001:0008cff0       ?OnSetPreviewMode@CXTPToolBar@@QAEXH@Z 0048dff0 f   ToolkitPro1501vc60S:XTPToolBar.obj
 0001:0008d080       ?Copy@CXTPToolBar@@MAEXPAVCXTPCommandBar@@H@Z 0048e080 f   ToolkitPro1501vc60S:XTPToolBar.obj
 0001:0008d0c0       ?OnHookKeyDown@CXTPToolBar@@UAEHIJ@Z 0048e0c0 f   ToolkitPro1501vc60S:XTPToolBar.obj
 0001:0008d170       ?OnSetFocus@CXTPToolBar@@IAEXPAVCWnd@@@Z 0048e170 f   ToolkitPro1501vc60S:XTPToolBar.obj
 0001:0008d1b0       ?ShouldSerializeBar@CXTPToolBar@@MAEHXZ 0048e1b0 f   ToolkitPro1501vc60S:XTPToolBar.obj
 0001:0008d1e0       ??_ECXTPToolBar@@WDM@AEPAXI@Z 0048e1e0 f i ToolkitPro1501vc60S:XTPToolBar.obj
 0001:0008d1f0       ??_ECXTPToolBar@@WEE@AEPAXI@Z 0048e1f0 f i ToolkitPro1501vc60S:XTPToolBar.obj
 0001:0008d200       ??1CXTPCommandBarList@@UAE@XZ 0048e200 f   ToolkitPro1501vc60S:XTPCommandBar.obj
 0001:0008d280       ?GetAt@CXTPCommandBarList@@QBEPAVCXTPCommandBar@@H@Z 0048e280 f   ToolkitPro1501vc60S:XTPCommandBar.obj
 0001:0008d2a0       ?GetCount@CXTPCommandBarList@@QBEHXZ 0048e2a0 f   ToolkitPro1501vc60S:XTPCommandBar.obj
 0001:0008d2a0       ?GetCount@CXTPMenuBarMDIMenus@@QBEHXZ 0048e2a0 f   ToolkitPro1501vc60S:XTPCommandBar.obj
 0001:0008d2a0       ?GetHeight@CXTPImageManagerIcon@@QBEHXZ 0048e2a0 f   ToolkitPro1501vc60S:XTPCommandBar.obj
 0001:0008d2b0       ?Add@CXTPCommandBarList@@UAEPAVCXTPCommandBar@@PAV2@@Z 0048e2b0 f   ToolkitPro1501vc60S:XTPCommandBar.obj
 0001:0008d420       ?Lookup@CXTPCommandBarList@@QBEHPAVCXTPCommandBar@@@Z 0048e420 f   ToolkitPro1501vc60S:XTPCommandBar.obj
 0001:0008d460       ?RemoveAll@CXTPCommandBarList@@QAEXXZ 0048e460 f   ToolkitPro1501vc60S:XTPCommandBar.obj
 0001:0008d4b0       ?FindCommandBar@CXTPCommandBarList@@QBEPAVCXTPCommandBar@@I@Z 0048e4b0 f   ToolkitPro1501vc60S:XTPCommandBar.obj
 0001:0008d4f0       ?CreateObject@CXTPCommandBar@@SGPAVCObject@@XZ 0048e4f0 f   ToolkitPro1501vc60S:XTPCommandBar.obj
 0001:0008d550       ?GetRuntimeClass@CXTPCommandBar@@UBEPAUCRuntimeClass@@XZ 0048e550 f   ToolkitPro1501vc60S:XTPCommandBar.obj
 0001:0008d580       ?Clone@CXTPCommandBar@@UAEPAV1@H@Z 0048e580 f   ToolkitPro1501vc60S:XTPCommandBar.obj
 0001:0008d5b0       ??0CXTPCommandBar@@IAE@XZ  0048e5b0 f   ToolkitPro1501vc60S:XTPCommandBar.obj
 0001:0008d790       ?IsFocused@CXTPControl@@UBEHXZ 0048e790 f i ToolkitPro1501vc60S:XTPCommandBar.obj
 0001:0008d790       ?IsRibbonBar@CXTPCommandBar@@UBEHXZ 0048e790 f i ToolkitPro1501vc60S:XTPCommandBar.obj
 0001:0008d790       ?IsPopupBar@CXTPCommandBar@@UBEHXZ 0048e790 f i ToolkitPro1501vc60S:XTPCommandBar.obj
 0001:0008d790       ?GetPopuped@CXTPControl@@UBEHXZ 0048e790 f i ToolkitPro1501vc60S:XTPCommandBar.obj
 0001:0008d790       ?IsCaptionVisible@CControlButtonExpand@CXTPToolBar@@UBEHXZ 0048e790 f i ToolkitPro1501vc60S:XTPCommandBar.obj
 0001:0008d790       ?IsMouseLocked@CXTPTabManager@@MBEHXZ 0048e790 f i ToolkitPro1501vc60S:XTPCommandBar.obj
 0001:0008d790       ?GetSelected@CXTPControlLabel@@UBEHXZ 0048e790 f i ToolkitPro1501vc60S:XTPCommandBar.obj
 0001:0008d790       ?GetParentCommandBar@CXTPCommandBar@@UBEPAV1@XZ 0048e790 f i ToolkitPro1501vc60S:XTPCommandBar.obj
 0001:0008d790       ?IsCustomizeMovable@CXTPRibbonBarControlQuickAccessPopup@@UBEHXZ 0048e790 f i ToolkitPro1501vc60S:XTPCommandBar.obj
 0001:0008d790       ?IsEvent@CXTPMarkupDependencyProperty@@UBEHXZ 0048e790 f i ToolkitPro1501vc60S:XTPCommandBar.obj
 0001:0008d790       ?IsAllowDefaultValues@CXTPPropExchangeArchive@@UBEHXZ 0048e790 f i ToolkitPro1501vc60S:XTPCommandBar.obj
 0001:0008d790       ?HeaderHasFocus@CXTPTabManager@@MBEHXZ 0048e790 f i ToolkitPro1501vc60S:XTPCommandBar.obj
 0001:0008d790       ?IsCustomizable@CXTPControlComboBoxList@@MBEHXZ 0048e790 f i ToolkitPro1501vc60S:XTPCommandBar.obj
 0001:0008d790       ?IsCustomizeMovable@CControlButtonHide@CXTPToolBar@@UBEHXZ 0048e790 f i ToolkitPro1501vc60S:XTPCommandBar.obj
 0001:0008d790       ?BaseTheme@CXTPDefaultTheme@@MAE?AW4XTPPaintTheme@@XZ 0048e790 f i ToolkitPro1501vc60S:XTPCommandBar.obj
 0001:0008d790       ?IsTransparent@CXTPControl@@UBEHXZ 0048e790 f i ToolkitPro1501vc60S:XTPCommandBar.obj
 0001:0008d790       ?GetPaneHwnd@CXTPDockingPaneBase@@UBEPAUHWND__@@XZ 0048e790 f i ToolkitPro1501vc60S:XTPCommandBar.obj
 0001:0008d790       ?IsCustomizeMovable@CXTPRibbonBarControlCaptionButton@@MBEHXZ 0048e790 f i ToolkitPro1501vc60S:XTPCommandBar.obj
 0001:0008d790       ?IsFocusable@CXTPControl@@MBEHXZ 0048e790 f i ToolkitPro1501vc60S:XTPCommandBar.obj
 0001:0008d790       ?IsDialogBar@CXTPCommandBar@@UBEHXZ 0048e790 f i ToolkitPro1501vc60S:XTPCommandBar.obj
 0001:0008d790       ?GetCommandBar@CXTPControl@@UBEPAVCXTPCommandBar@@XZ 0048e790 f i ToolkitPro1501vc60S:XTPCommandBar.obj
 0001:0008d790       ?GetCustomizeMinHeight@CXTPControl@@MBEHXZ 0048e790 f i ToolkitPro1501vc60S:XTPCommandBar.obj
 0001:0008d790       ?IsCustomizeMovable@CControlButtonExpand@CXTPToolBar@@UBEHXZ 0048e790 f i ToolkitPro1501vc60S:XTPCommandBar.obj
 0001:0008d790       ?IsPrinting@CXTPMarkupDrawingContext@@UBEHXZ 0048e790 f i ToolkitPro1501vc60S:XTPCommandBar.obj
 0001:0008d790       ?GetCustomizeMinWidth@CXTPControl@@MBEHXZ 0048e790 f i ToolkitPro1501vc60S:XTPCommandBar.obj
 0001:0008d790       ?IsVisible@CXTPCommandBar@@UBEHXZ 0048e790 f i ToolkitPro1501vc60S:XTPCommandBar.obj
 0001:0008d790       ?IsCustomizeMovable@CControlGroupsScroll@CXTPRibbonScrollableBar@@UBEHXZ 0048e790 f i ToolkitPro1501vc60S:XTPCommandBar.obj
 0001:0008d790       ?IsResizable@CXTPCommandBar@@UBEHXZ 0048e790 f i ToolkitPro1501vc60S:XTPCommandBar.obj
 0001:0008d790       ?IsAllowBlobValues@CXTPPropExchange@@UBEHXZ 0048e790 f i ToolkitPro1501vc60S:XTPCommandBar.obj
 0001:0008d7a0       ?CalcDynamicLayout@CXTPCommandBar@@MAE?AVCSize@@HK@Z 0048e7a0 f i ToolkitPro1501vc60S:XTPCommandBar.obj
 0001:0008d7b0       ??_ECXTPCommandBar@@MAEPAXI@Z 0048e7b0 f i ToolkitPro1501vc60S:XTPCommandBar.obj
 0001:0008d7b0       ??_GCXTPCommandBar@@MAEPAXI@Z 0048e7b0 f i ToolkitPro1501vc60S:XTPCommandBar.obj
 0001:0008d7d0       ??1CXTPCommandBar@@MAE@XZ  0048e7d0 f   ToolkitPro1501vc60S:XTPCommandBar.obj
 0001:0008d940       ?SetControls@CXTPCommandBar@@QAEXPAVCXTPControls@@@Z 0048e940 f   ToolkitPro1501vc60S:XTPCommandBar.obj
 0001:0008d980       ?OnRemoved@CXTPCommandBar@@MAEXXZ 0048e980 f   ToolkitPro1501vc60S:XTPCommandBar.obj
 0001:0008d9f0       ?GetMessageMap@CXTPCommandBar@@MBEPBUAFX_MSGMAP@@XZ 0048e9f0 f   ToolkitPro1501vc60S:XTPCommandBar.obj
 0001:0008da00       ?OnCreate@CXTPCommandBar@@QAEHPAUtagCREATESTRUCTA@@@Z 0048ea00 f   ToolkitPro1501vc60S:XTPCommandBar.obj
 0001:0008da90       ?OnDestroy@CXTPCommandBar@@QAEXXZ 0048ea90 f   ToolkitPro1501vc60S:XTPCommandBar.obj
 0001:0008dae0       ?IsMouseLocked@CXTPCommandBar@@IBEHXZ 0048eae0 f   ToolkitPro1501vc60S:XTPCommandBar.obj
 0001:0008db10       ?OnMouseMove@CXTPCommandBar@@QAEXIVCPoint@@@Z 0048eb10 f   ToolkitPro1501vc60S:XTPCommandBar.obj
 0001:0008dc90       ?OnMouseLeave@CXTPCommandBar@@QAEXXZ 0048ec90 f   ToolkitPro1501vc60S:XTPCommandBar.obj
 0001:0008dcd0       ?OnNcMouseMove@CXTPCommandBar@@QAEXIVCPoint@@@Z 0048ecd0 f   ToolkitPro1501vc60S:XTPCommandBar.obj
 0001:0008dcf0       ?OnTrackEnter@CXTPCommandBar@@UAEXXZ 0048ecf0 f   ToolkitPro1501vc60S:XTPCommandBar.obj
 0001:0008dd00       ?OnLButtonDown@CXTPCommandBar@@QAEXIVCPoint@@@Z 0048ed00 f   ToolkitPro1501vc60S:XTPCommandBar.obj
 0001:0008de40       ?OnLButtonDblClk@CXTPCommandBar@@QAEXIVCPoint@@@Z 0048ee40 f   ToolkitPro1501vc60S:XTPCommandBar.obj
 0001:0008de80       ?OnLButtonUp@CXTPCommandBar@@QAEXIVCPoint@@@Z 0048ee80 f   ToolkitPro1501vc60S:XTPCommandBar.obj
 0001:0008ded0       ?OnRButtonUp@CXTPCommandBar@@QAEXIVCPoint@@@Z 0048eed0 f   ToolkitPro1501vc60S:XTPCommandBar.obj
 0001:0008df80       ?SetSelected@CXTPCommandBar@@UAEHHH@Z 0048ef80 f   ToolkitPro1501vc60S:XTPCommandBar.obj
 0001:0008e0c0       ?SetPopuped@CXTPCommandBar@@QAEHHH@Z 0048f0c0 f   ToolkitPro1501vc60S:XTPCommandBar.obj
 0001:0008e1e0       ?OnIdleUpdateCmdUI@CXTPCommandBar@@UAEJIJ@Z 0048f1e0 f   ToolkitPro1501vc60S:XTPCommandBar.obj
 0001:0008e250       ?Enable@CCommandBarCmdUI@CXTPCommandBar@@UAEXH@Z 0048f250 f   ToolkitPro1501vc60S:XTPCommandBar.obj
 0001:0008e2b0       ?SetCheck@CCommandBarCmdUI@CXTPCommandBar@@UAEXH@Z 0048f2b0 f   ToolkitPro1501vc60S:XTPCommandBar.obj
 0001:0008e2d0       ?SetText@CCommandBarCmdUI@CXTPCommandBar@@UAEXPBD@Z 0048f2d0 f   ToolkitPro1501vc60S:XTPCommandBar.obj
 0001:0008e2f0       ?OnInitialUpdate@CXTPCommandBar@@QAEXXZ 0048f2f0 f   ToolkitPro1501vc60S:XTPCommandBar.obj
 0001:0008e300       ?OnUpdateCmdUI@CXTPCommandBar@@QAEXXZ 0048f300 f   ToolkitPro1501vc60S:XTPCommandBar.obj
 0001:0008e490       ?LoadMenuA@CXTPControls@@QAEHPAVCMenu@@@Z 0048f490 f   ToolkitPro1501vc60S:XTPCommandBar.obj
 0001:0008e5e0       ?LoadMenuA@CXTPCommandBar@@UAEHPAVCMenu@@H@Z 0048f5e0 f   ToolkitPro1501vc60S:XTPCommandBar.obj
 0001:0008e640       ?ProcessSpecialKey@CXTPCommandBar@@MAEHW4XTPSpecialKey@@@Z 0048f640 f   ToolkitPro1501vc60S:XTPCommandBar.obj
 0001:0008eba0       ?IsHelpMode@CXTPCommandBar@@IBEHXZ 0048fba0 f   ToolkitPro1501vc60S:XTPCommandBar.obj
 0001:0008ebc0       ?OnHookKeyDown@CXTPCommandBar@@MAEHIJ@Z 0048fbc0 f   ToolkitPro1501vc60S:XTPCommandBar.obj
 0001:0008f010       ?HideKeyboardTips@CXTPCommandBar@@QAEXXZ 00490010 f   ToolkitPro1501vc60S:XTPCommandBar.obj
 0001:0008f030       ?OnKeyboardTip@CXTPCommandBar@@UAEXPAVCXTPCommandBarKeyboardTip@@@Z 00490030 f   ToolkitPro1501vc60S:XTPCommandBar.obj
 0001:0008f090       ?OnKeyboardTipChar@CXTPCommandBar@@QAEXI@Z 00490090 f   ToolkitPro1501vc60S:XTPCommandBar.obj
 0001:0008f210       ?TxEnableScrollBar@XTextHost@CXTPRichRender@@UAEHHH@Z 00490210 f   ToolkitPro1501vc60S:XTPCommandBar.obj
 0001:0008f210       ?TxSetTimer@XTextHost@CXTPRichRender@@UAEHII@Z 00490210 f   ToolkitPro1501vc60S:XTPCommandBar.obj
 0001:0008f210       ?TxShowScrollBar@XTextHost@CXTPRichRender@@UAEHHH@Z 00490210 f   ToolkitPro1501vc60S:XTPCommandBar.obj
 0001:0008f210       ?ConvertFrom@CXTPMarkupEnum@@UBEPAVCXTPMarkupObject@@PAVCXTPMarkupBuilder@@PAV2@@Z 00490210 f   ToolkitPro1501vc60S:XTPCommandBar.obj
 0001:0008f210       ?InputHitTest@CXTPMarkupInputElement@@UBEPAV1@VCPoint@@@Z 00490210 f   ToolkitPro1501vc60S:XTPCommandBar.obj
 0001:0008f210       ?Popup@CXTPCommandBar@@UAEHPAVCXTPControlPopup@@H@Z 00490210 f   ToolkitPro1501vc60S:XTPCommandBar.obj
 0001:0008f210       ?InputHitTestOverride@CXTPMarkupPage@@MBEPAVCXTPMarkupInputElement@@VCPoint@@@Z 00490210 f   ToolkitPro1501vc60S:XTPCommandBar.obj
 0001:0008f210       ?ConvertFrom@CXTPMarkupObject@@UBEPAV1@PAVCXTPMarkupBuilder@@PAV1@@Z 00490210 f   ToolkitPro1501vc60S:XTPCommandBar.obj
 0001:0008f210       ?FillButtons@CXTPTabBaseTheme@@UAEKPAVCDC@@PAVCXTPTabCtrlButtons@@@Z 00490210 f   ToolkitPro1501vc60S:XTPCommandBar.obj
 0001:0008f210       ?TxSetCaretPos@XTextHost@CXTPRichRender@@UAEHHH@Z 00490210 f   ToolkitPro1501vc60S:XTPCommandBar.obj
 0001:0008f220       ?OnHookMessage@CXTPCommandBar@@UAEHPAUHWND__@@IAAIAAJ2@Z 00490220 f   ToolkitPro1501vc60S:XTPCommandBar.obj
 0001:0008f2f0       ?OnCancel@CXTPRibbonBackstageView@@UAEXXZ 004902f0 f   ToolkitPro1501vc60S:XTPCommandBar.obj
 0001:0008f2f0       ?OnTrackLost@CXTPCommandBar@@UAEXXZ 004902f0 f   ToolkitPro1501vc60S:XTPCommandBar.obj
 0001:0008f300       ?SetTrackingMode@CXTPCommandBar@@UAEHHHH@Z 00490300 f   ToolkitPro1501vc60S:XTPCommandBar.obj
 0001:0008f560       ?GetControlCount@CXTPCommandBar@@QBEHXZ 00490560 f   ToolkitPro1501vc60S:XTPCommandBar.obj
 0001:0008f570       ?GetControl@CXTPCommandBar@@QBEPAVCXTPControl@@H@Z 00490570 f   ToolkitPro1501vc60S:XTPCommandBar.obj
 0001:0008f5b0       ?OnTimer@CXTPCommandBar@@QAEXI@Z 004905b0 f   ToolkitPro1501vc60S:XTPCommandBar.obj
 0001:0008f6d0       ?OnControlsChanged@CXTPCommandBar@@MAEXXZ 004906d0 f   ToolkitPro1501vc60S:XTPCommandBar.obj
 0001:0008f6f0       ?Redraw@CXTPCommandBar@@UAEXPBUtagRECT@@H@Z 004906f0 f   ToolkitPro1501vc60S:XTPCommandBar.obj
 0001:0008f760       ?EnableAnimation@CXTPCommandBar@@QAEXH@Z 00490760 f   ToolkitPro1501vc60S:XTPCommandBar.obj
 0001:0008f780       ?IsAnimationEnabled@CXTPCommandBar@@QBEHXZ 00490780 f   ToolkitPro1501vc60S:XTPCommandBar.obj
 0001:0008f790       ?EnableDoubleBuffer@CXTPCommandBar@@QAEXH@Z 00490790 f   ToolkitPro1501vc60S:XTPCommandBar.obj
 0001:0008f7a0       ?SetShowGripper@CXTPCommandBar@@QAEXH@Z 004907a0 f   ToolkitPro1501vc60S:XTPCommandBar.obj
 0001:0008f7d0       ?GetShowGripper@CXTPCommandBar@@QBEHXZ 004907d0 f   ToolkitPro1501vc60S:XTPCommandBar.obj
 0001:0008f7e0       ?OnPaint@CXTPCommandBar@@QAEXXZ 004907e0 f   ToolkitPro1501vc60S:XTPCommandBar.obj
 0001:0008f840       ?OnPrintClient@CXTPCommandBar@@QAEJIJ@Z 00490840 f   ToolkitPro1501vc60S:XTPCommandBar.obj
 0001:0008f8a0       ?GetBorders@CXTPCommandBar@@UAE?AVCRect@@XZ 004908a0 f   ToolkitPro1501vc60S:XTPCommandBar.obj
 0001:0008f8e0       ?FillCommandBarEntry@CXTPCommandBar@@UAEXPAVCDC@@@Z 004908e0 f   ToolkitPro1501vc60S:XTPCommandBar.obj
 0001:0008f900       ?DrawCommandBar@CXTPCommandBar@@UAEXPAVCDC@@VCRect@@@Z 00490900 f   ToolkitPro1501vc60S:XTPCommandBar.obj
 0001:0008fb30       ?CustomizeDrawMarker@CXTPCommandBar@@IAEXPAVCDC@@@Z 00490b30 f   ToolkitPro1501vc60S:XTPCommandBar.obj
 0001:0008fd80       ?FindAccelEx@CXTPCommandBar@@QBEHIAAH@Z 00490d80 f   ToolkitPro1501vc60S:XTPCommandBar.obj
 0001:0008ff20       ?GetFrameSite@CXTPCommandBar@@QBEPAVCFrameWnd@@XZ 00490f20 f   ToolkitPro1501vc60S:XTPCommandBar.obj
 0001:0008ff50       ?GetSite@CXTPCommandBar@@QBEPAVCWnd@@XZ 00490f50 f   ToolkitPro1501vc60S:XTPCommandBar.obj
 0001:0008ffb0       ?GetOwnerSite@CXTPCommandBar@@QBEPAVCWnd@@XZ 00490fb0 f   ToolkitPro1501vc60S:XTPCommandBar.obj
 0001:00090010       ?GetRootParent@CXTPCommandBar@@QBEPAV1@XZ 00491010 f   ToolkitPro1501vc60S:XTPCommandBar.obj
 0001:00090040       ?GetCommandBars@CXTPCommandBar@@QBEPAVCXTPCommandBars@@XZ 00491040 f   ToolkitPro1501vc60S:XTPCommandBar.obj
 0001:00090070       ?IsCustomizeMode@CXTPCommandBar@@QBEHXZ 00491070 f   ToolkitPro1501vc60S:XTPCommandBar.obj
 0001:00090080       ?OnCustomizeDragEnter@CXTPCommandBar@@UAEKPAVCXTPControl@@VCPoint@@@Z 00491080 f   ToolkitPro1501vc60S:XTPCommandBar.obj
 0001:000900b0       ?OnCustomizeDragLeave@CXTPCommandBar@@UAEXXZ 004910b0 f   ToolkitPro1501vc60S:XTPCommandBar.obj
 0001:000900e0       ?CustomizeFindDropIndex@CXTPCommandBar@@MAEXPAVCXTPControl@@ABVCPoint@@AAVCRect@@AAH3@Z 004910e0 f   ToolkitPro1501vc60S:XTPCommandBar.obj
 0001:00090450       ?OnCustomizeDragOver@CXTPCommandBar@@UAEKPAVCXTPControl@@VCPoint@@@Z 00491450 f   ToolkitPro1501vc60S:XTPCommandBar.obj
 0001:00090590       ?OnCustomizeDrop@CXTPCommandBar@@UAEXPAVCXTPControl@@AAKVCPoint@@2@Z 00491590 f   ToolkitPro1501vc60S:XTPCommandBar.obj
 0001:00090710       ?OnRButtonDown@CXTPCommandBar@@QAEXIVCPoint@@@Z 00491710 f   ToolkitPro1501vc60S:XTPCommandBar.obj
 0001:00090800       ?InvalidateParents@CXTPCommandBar@@QAEXXZ 00491800 f   ToolkitPro1501vc60S:XTPCommandBar.obj
 0001:00090840       ?OnControlSelected@CXTPCommandBar@@UAEXHPAVCXTPControl@@@Z 00491840 f   ToolkitPro1501vc60S:XTPCommandBar.obj
 0001:000909a0       ?SetStatusText@CXTPCommandBar@@QAEHABVCString@@@Z 004919a0 f   ToolkitPro1501vc60S:XTPCommandBar.obj
 0001:00090a20       ?SetPaintManager@CXTPCommandBar@@QAEXPAVCXTPPaintManager@@@Z 00491a20 f   ToolkitPro1501vc60S:XTPCommandBar.obj
 0001:00090a50       ?GetPaintManager@CXTPCommandBar@@QBEPAVCXTPPaintManager@@XZ 00491a50 f   ToolkitPro1501vc60S:XTPCommandBar.obj
 0001:00090aa0       ?SetImageManager@CXTPCommandBar@@QAEXPAVCXTPImageManager@@@Z 00491aa0 f   ToolkitPro1501vc60S:XTPCommandBar.obj
 0001:00090ad0       ?GetImageManager@CXTPCommandBar@@QBEPAVCXTPImageManager@@XZ 00491ad0 f   ToolkitPro1501vc60S:XTPCommandBar.obj
 0001:00090b10       ?Copy@CXTPCommandBar@@MAEXPAV1@H@Z 00491b10 f   ToolkitPro1501vc60S:XTPCommandBar.obj
 0001:00090be0       ?GetActiveDocTemplate@CXTPCommandBar@@IBEIXZ 00491be0 f   ToolkitPro1501vc60S:XTPCommandBar.obj
 0001:00090c00       ?UpdateDocTemplateControls@CXTPCommandBar@@IAEXXZ 00491c00 f   ToolkitPro1501vc60S:XTPCommandBar.obj
 0001:00090d80       ?SetFlags@CXTPCommandBar@@QAEXKK@Z 00491d80 f   ToolkitPro1501vc60S:XTPCommandBar.obj
 0001:00090da0       ?OnHelpHitTest@CXTPCommandBar@@QAEJIJ@Z 00491da0 f   ToolkitPro1501vc60S:XTPCommandBar.obj
 0001:00090e20       ?OnNcHitTest@CXTPCommandBar@@QAEJVCPoint@@@Z 00491e20 f   ToolkitPro1501vc60S:XTPCommandBar.obj
 0001:00090e90       ?OnNcLButtonDown@CXTPCommandBar@@QAEXIVCPoint@@@Z 00491e90 f   ToolkitPro1501vc60S:XTPCommandBar.obj
 0001:00090ed0       ?SetWidth@CXTPCommandBar@@QAEXH@Z 00491ed0 f   ToolkitPro1501vc60S:XTPCommandBar.obj
 0001:00090ee0       ?GetWidth@CXTPCommandBar@@QBEHXZ 00491ee0 f   ToolkitPro1501vc60S:XTPCommandBar.obj
 0001:00090ef0       ?IsLayoutRTL@CXTPCommandBar@@QBEHXZ 00491ef0 f   ToolkitPro1501vc60S:XTPCommandBar.obj
 0001:00090f10       ?OnMouseHitTest@CXTPCommandBar@@MAEHVCPoint@@@Z 00491f10 f   ToolkitPro1501vc60S:XTPCommandBar.obj
 0001:00091060       ?GetAccessible@CXTPCommandBar@@MAEPAVCCmdTarget@@XZ 00492060 f   ToolkitPro1501vc60S:XTPCommandBar.obj
 0001:00091070       ?GetAccessibleParent@CXTPCommandBar@@MAEJPAPAUIDispatch@@@Z 00492070 f   ToolkitPro1501vc60S:XTPCommandBar.obj
 0001:000910f0       ?GetAccessibleChildCount@CXTPCommandBar@@MAEJPAJ@Z 004920f0 f   ToolkitPro1501vc60S:XTPCommandBar.obj
 0001:00091120       ?GetAccessibleChild@CXTPCommandBar@@MAEJUtagVARIANT@@PAPAUIDispatch@@@Z 00492120 f   ToolkitPro1501vc60S:XTPCommandBar.obj
 0001:00091170       ?GetAccessibleName@CXTPCommandBar@@MAEJUtagVARIANT@@PAPAG@Z 00492170 f   ToolkitPro1501vc60S:XTPCommandBar.obj
 0001:00091320       ?GetAccessibleRole@CXTPCommandBar@@MAEJUtagVARIANT@@PAU2@@Z 00492320 f   ToolkitPro1501vc60S:XTPCommandBar.obj
 0001:00091390       ?GetAccessibleState@CXTPCommandBar@@MAEJUtagVARIANT@@PAU2@@Z 00492390 f   ToolkitPro1501vc60S:XTPCommandBar.obj
 0001:00091410       ?AccessibleLocation@CXTPCommandBar@@MAEJPAJ000UtagVARIANT@@@Z 00492410 f   ToolkitPro1501vc60S:XTPCommandBar.obj
 0001:000914f0       ?AccessibleHitTest@CXTPCommandBar@@MAEJJJPAUtagVARIANT@@@Z 004924f0 f   ToolkitPro1501vc60S:XTPCommandBar.obj
 0001:000915c0       ?OnGetObject@CXTPCommandBar@@QAEJIJ@Z 004925c0 f   ToolkitPro1501vc60S:XTPCommandBar.obj
 0001:00091660       ?FilterToolTipMessage@CXTPCommandBar@@QAEXIIJ@Z 00492660 f   ToolkitPro1501vc60S:XTPCommandBar.obj
 0001:00091690       ?OnWndMsg@CXTPCommandBar@@UAEHIIJPAJ@Z 00492690 f   ToolkitPro1501vc60S:XTPCommandBar.obj
 0001:000916c0       ?GetInterfaceMap@CXTPCommandBar@@MBEPBUAFX_INTERFACEMAP@@XZ 004926c0 f   ToolkitPro1501vc60S:XTPCommandBar.obj
 0001:000916d0       ??_9@$BBHA@AE              004926d0 f i ToolkitPro1501vc60S:XTPCommandBar.obj
 0001:000916e0       ??_ECXTPCommandBar@@ODM@AEPAXI@Z 004926e0 f i ToolkitPro1501vc60S:XTPCommandBar.obj
 0001:000916f0       ??_ECXTPCommandBar@@OEE@AEPAXI@Z 004926f0 f i ToolkitPro1501vc60S:XTPCommandBar.obj
 0001:00091700       ?CreateObject@CXTPControls@@SGPAVCObject@@XZ 00492700 f   ToolkitPro1501vc60S:XTPControls.obj
 0001:00091760       ?GetRuntimeClass@CXTPControls@@UBEPAUCRuntimeClass@@XZ 00492760 f   ToolkitPro1501vc60S:XTPControls.obj
 0001:00091770       ?CreateObject@CXTPOriginalControls@@SGPAVCObject@@XZ 00492770 f   ToolkitPro1501vc60S:XTPControls.obj
 0001:000917d0       ?GetRuntimeClass@CXTPOriginalControls@@UBEPAUCRuntimeClass@@XZ 004927d0 f   ToolkitPro1501vc60S:XTPControls.obj
 0001:000917e0       ??0CXTPControls@@QAE@XZ    004927e0 f   ToolkitPro1501vc60S:XTPControls.obj
 0001:00091850       ??_GCXTPControls@@UAEPAXI@Z 00492850 f i ToolkitPro1501vc60S:XTPControls.obj
 0001:00091850       ??_ECXTPControls@@UAEPAXI@Z 00492850 f i ToolkitPro1501vc60S:XTPControls.obj
 0001:00091870       ??1CXTPControls@@UAE@XZ    00492870 f   ToolkitPro1501vc60S:XTPControls.obj
 0001:00091900       ??0CXTPOriginalControls@@QAE@XZ 00492900 f   ToolkitPro1501vc60S:XTPControls.obj
 0001:00091920       ??_GCXTPOriginalControls@@UAEPAXI@Z 00492920 f i ToolkitPro1501vc60S:XTPControls.obj
 0001:00091920       ??_ECXTPOriginalControls@@UAEPAXI@Z 00492920 f i ToolkitPro1501vc60S:XTPControls.obj
 0001:00091920       ??_ECXTPRibbonControls@@UAEPAXI@Z 00492920 f i ToolkitPro1501vc60S:XTPControls.obj
 0001:00091920       ??_GCXTPRibbonControls@@UAEPAXI@Z 00492920 f i ToolkitPro1501vc60S:XTPControls.obj
 0001:00091940       ??1CXTPOriginalControls@@UAE@XZ 00492940 f i ToolkitPro1501vc60S:XTPControls.obj
 0001:00091940       ??1CXTPRibbonControls@@UAE@XZ 00492940 f i ToolkitPro1501vc60S:XTPControls.obj
 0001:00091950       ?GetCommandBars@CXTPControls@@QBEPAVCXTPCommandBars@@XZ 00492950 f   ToolkitPro1501vc60S:XTPControls.obj
 0001:00091970       ?SetCommandBars@CXTPControls@@QAEXPAVCXTPCommandBars@@@Z 00492970 f   ToolkitPro1501vc60S:XTPControls.obj
 0001:00091970       ?SetHandle@CXTPTabManagerItem@@QAEXPAUHWND__@@@Z 00492970 f   ToolkitPro1501vc60S:XTPControls.obj
 0001:00091970       ?SetPropertySheet@CXTPPropertyPageNavigator@@MAEXPAVCXTPPropertySheet@@@Z 00492970 f   ToolkitPro1501vc60S:XTPControls.obj
 0001:00091980       ?RefreshIndexes@CXTPControls@@MAEXXZ 00492980 f   ToolkitPro1501vc60S:XTPControls.obj
 0001:000919d0       ?SetParent@CXTPControls@@QAEXPAVCXTPCommandBar@@@Z 004929d0 f   ToolkitPro1501vc60S:XTPControls.obj
 0001:000919f0       ?AddMenuItem@CXTPControls@@QAEPAVCXTPControl@@PAVCMenu@@H@Z 004929f0 f   ToolkitPro1501vc60S:XTPControls.obj
 0001:000921b0       ?OnControlAdded@CXTPControls@@MAEXPAVCXTPControl@@@Z 004931b0 f   ToolkitPro1501vc60S:XTPControls.obj
 0001:000921c0       ?OnControlRemoved@CXTPControls@@MAEXPAVCXTPControl@@@Z 004931c0 f   ToolkitPro1501vc60S:XTPControls.obj
 0001:00092200       ?Add@CXTPControls@@QAEPAVCXTPControl@@W4XTPControlType@@HPBDHH@Z 00493200 f   ToolkitPro1501vc60S:XTPControls.obj
 0001:00092540       ?Add@CXTPControls@@QAEPAVCXTPControl@@PAV2@HPBDHH@Z 00493540 f   ToolkitPro1501vc60S:XTPControls.obj
 0001:00092630       ?InsertAt@CXTPControls@@QAEPAVCXTPControl@@PAV2@H@Z 00493630 f   ToolkitPro1501vc60S:XTPControls.obj
 0001:00092800       ?Add@CXTPControls@@QAEPAVCXTPControl@@PAV2@@Z 00493800 f   ToolkitPro1501vc60S:XTPControls.obj
 0001:00092810       ?AddClone@CXTPControls@@QAEPAVCXTPControl@@PAV2@HH@Z 00493810 f   ToolkitPro1501vc60S:XTPControls.obj
 0001:00092860       ?RemoveAll@CXTPControls@@QAEXXZ 00493860 f   ToolkitPro1501vc60S:XTPControls.obj
 0001:000928e0       ?FindControl@CXTPControls@@QBEPAVCXTPControl@@H@Z 004938e0 f   ToolkitPro1501vc60S:XTPControls.obj
 0001:00092900       ?FindControl@CXTPControls@@QBEPAVCXTPControl@@W4XTPControlType@@HHH@Z 00493900 f   ToolkitPro1501vc60S:XTPControls.obj
 0001:000929b0       ?IsWhiteSpacePosition@CXTPMarkupInline@@UBEHPAU__POSITION@@@Z 004939b0 f   ToolkitPro1501vc60S:XTPControls.obj
 0001:000929b0       ?IsLineBreakPosition@CXTPMarkupInline@@UBEHPAU__POSITION@@@Z 004939b0 f   ToolkitPro1501vc60S:XTPControls.obj
 0001:000929b0       ?TxReleaseDC@XTextHost@CXTPRichRender@@UAEHPAUHDC__@@@Z 004939b0 f   ToolkitPro1501vc60S:XTPControls.obj
 0001:000929b0       ?GetLogicalChild@CXTPMarkupObject@@UBEPAV1@H@Z 004939b0 f   ToolkitPro1501vc60S:XTPControls.obj
 0001:000929b0       ?OnBeforeAdd@CXTPShortcutManager@@UAEHPAVCXTPShortcutManagerAccel@@@Z 004939b0 f   ToolkitPro1501vc60S:XTPControls.obj
 0001:000929b0       ?TxScreenToClient@XTextHost@CXTPRichRender@@UAEHPAUtagPOINT@@@Z 004939b0 f   ToolkitPro1501vc60S:XTPControls.obj
 0001:000929b0       ?IsWordBreakPosition@CXTPMarkupInline@@UBEHPAU__POSITION@@@Z 004939b0 f   ToolkitPro1501vc60S:XTPControls.obj
 0001:000929b0       ?TxClientToScreen@XTextHost@CXTPRichRender@@UAEHPAUtagPOINT@@@Z 004939b0 f   ToolkitPro1501vc60S:XTPControls.obj
 0001:000929b0       ?TxShowCaret@XTextHost@CXTPRichRender@@UAEHH@Z 004939b0 f   ToolkitPro1501vc60S:XTPControls.obj
 0001:000929b0       ?GetLayoutClip@CXTPMarkupVisual@@UBEHAAVCRect@@@Z 004939b0 f   ToolkitPro1501vc60S:XTPControls.obj
 0001:000929b0       ?UpdateUI@XDocHostUIHandler@CHTMLToolTip@CXTPToolTipContext@@UAGJXZ 004939b0 f   ToolkitPro1501vc60S:XTPControls.obj
 0001:000929b0       ?OnBeforeRemove@CXTPShortcutManager@@UAEHPAVCXTPShortcutManagerAccel@@@Z 004939b0 f   ToolkitPro1501vc60S:XTPControls.obj
 0001:000929b0       ?IsCaretReturnPosition@CXTPMarkupInline@@UBEHPAU__POSITION@@@Z 004939b0 f   ToolkitPro1501vc60S:XTPControls.obj
 0001:000929b0       ?HideUI@XDocHostUIHandler@CHTMLToolTip@CXTPToolTipContext@@UAGJXZ 004939b0 f   ToolkitPro1501vc60S:XTPControls.obj
 0001:000929b0       ?OnControlRemoving@CXTPControls@@MAEHPAVCXTPControl@@@Z 004939b0 f   ToolkitPro1501vc60S:XTPControls.obj
 0001:000929b0       ?GetVisualChild@CXTPMarkupVisual@@UBEPAV1@H@Z 004939b0 f   ToolkitPro1501vc60S:XTPControls.obj
 0001:000929b0       ?CreateTheme@CXTThemeManagerStyleFactory@@UAEPAVCXTThemeManagerStyle@@W4XTThemeStyle@@@Z 004939b0 f   ToolkitPro1501vc60S:XTPControls.obj
 0001:000929c0       ?Remove@CXTPControls@@UAEXPAVCXTPControl@@@Z 004939c0 f   ToolkitPro1501vc60S:XTPControls.obj
 0001:00092a60       ?Remove@CXTPControls@@QAEXH@Z 00493a60 f   ToolkitPro1501vc60S:XTPControls.obj
 0001:00092a90       ?SetControlType@CXTPControls@@QAEPAVCXTPControl@@HW4XTPControlType@@@Z 00493a90 f   ToolkitPro1501vc60S:XTPControls.obj
 0001:00092ad0       ?SetControlType@CXTPControls@@QAEPAVCXTPControl@@PAV2@W4XTPControlType@@@Z 00493ad0 f   ToolkitPro1501vc60S:XTPControls.obj
 0001:00092b50       ?GetNext@CXTPControls@@QBEJJHHHH@Z 00493b50 f   ToolkitPro1501vc60S:XTPControls.obj
 0001:00092c60       ?HitTest@CXTPControls@@QBEPAVCXTPControl@@VCPoint@@@Z 00493c60 f   ToolkitPro1501vc60S:XTPControls.obj
 0001:00092cd0       ?_CalcSize@CXTPControls@@IAE?AVCSize@@PAUXTPBUTTONINFO@1@H@Z 00493cd0 f   ToolkitPro1501vc60S:XTPControls.obj
 0001:00092e80       ?_WrapToolBar@CXTPControls@@IAEHPAUXTPBUTTONINFO@1@HAAK@Z 00493e80 f   ToolkitPro1501vc60S:XTPControls.obj
 0001:00093090       ?_SizePopupToolBar@CXTPControls@@IAEXPAUXTPBUTTONINFO@1@K@Z 00494090 f   ToolkitPro1501vc60S:XTPControls.obj
 0001:00093150       ?_SizeFloatableBar@CXTPControls@@IAEXPAUXTPBUTTONINFO@1@HK@Z 00494150 f   ToolkitPro1501vc60S:XTPControls.obj
 0001:000932f0       ?_CenterControlsInRow@CXTPControls@@IAEXPAUXTPBUTTONINFO@1@HHHHVCSize@@VCRect@@@Z 004942f0 f   ToolkitPro1501vc60S:XTPControls.obj
 0001:000933f0       ?_AdjustBorders@CXTPControls@@IAEXPAUXTPBUTTONINFO@1@AAVCSize@@KVCRect@@@Z 004943f0 f   ToolkitPro1501vc60S:XTPControls.obj
 0001:00093580       ?_MoveRightAlligned@CXTPControls@@IAEXPAUXTPBUTTONINFO@1@VCSize@@VCRect@@K@Z 00494580 f   ToolkitPro1501vc60S:XTPControls.obj
 0001:000938d0       ?GetVisibleCount@CXTPControls@@QBEHH@Z 004948d0 f   ToolkitPro1501vc60S:XTPControls.obj
 0001:00093920       ?GetVisibleAt@CXTPControls@@QBEPAVCXTPControl@@HH@Z 00494920 f   ToolkitPro1501vc60S:XTPControls.obj
 0001:00093990       ?_ReduceSmartLayoutToolBar@CXTPControls@@IAE?AVCSize@@PAVCDC@@PAUXTPBUTTONINFO@1@HAAK@Z 00494990 f   ToolkitPro1501vc60S:XTPControls.obj
 0001:00093e30       ?_CalcSmartLayoutToolBar@CXTPControls@@IAE?AVCSize@@PAVCDC@@PAUXTPBUTTONINFO@1@AAK@Z 00494e30 f   ToolkitPro1501vc60S:XTPControls.obj
 0001:00094070       ?_WrapSmartLayoutToolBar@CXTPControls@@IAE?AVCSize@@PAVCDC@@PAUXTPBUTTONINFO@1@HAAK@Z 00495070 f   ToolkitPro1501vc60S:XTPControls.obj
 0001:00094220       ?CalcDynamicSize@CXTPControls@@QAE?AVCSize@@PAVCDC@@HKABVCRect@@H@Z 00495220 f   ToolkitPro1501vc60S:XTPControls.obj
 0001:00094700       ?_MakeSameWidth@CXTPControls@@IAEXHHH@Z 00495700 f   ToolkitPro1501vc60S:XTPControls.obj
 0001:000947b0       ?CalcPopupSize@CXTPControls@@QAE?AVCSize@@PAVCDC@@HHABVCRect@@@Z 004957b0 f   ToolkitPro1501vc60S:XTPControls.obj
 0001:00094b90       ?Copy@CXTPControls@@UAEXPAV1@H@Z 00495b90 f   ToolkitPro1501vc60S:XTPControls.obj
 0001:00094c20       ?Duplicate@CXTPControls@@QAEPAV1@H@Z 00495c20 f   ToolkitPro1501vc60S:XTPControls.obj
 0001:00094ca0       ?ClearOriginalControls@CXTPControls@@QAEXXZ 00495ca0 f   ToolkitPro1501vc60S:XTPControls.obj
 0001:00094cc0       ?CreateOriginalControls@CXTPControls@@QAEXXZ 00495cc0 f   ToolkitPro1501vc60S:XTPControls.obj
 0001:00094d80       ?SetOriginalControls@CXTPControls@@QAEXPAVCXTPOriginalControls@@@Z 00495d80 f   ToolkitPro1501vc60S:XTPControls.obj
 0001:00094da0       ?Compare@CXTPControls@@QAEHPBV1@@Z 00495da0 f   ToolkitPro1501vc60S:XTPControls.obj
 0001:00094e60       ?IsChanged@CXTPControls@@QBEHXZ 00495e60 f   ToolkitPro1501vc60S:XTPControls.obj
 0001:00094e80       ?CompareByCaption@CXTPControls@@KAHPAPBVCXTPControl@@0@Z 00495e80 f   ToolkitPro1501vc60S:XTPControls.obj
 0001:00094f30       ?Sort@CXTPControls@@QAEXXZ 00495f30 f   ToolkitPro1501vc60S:XTPControls.obj
 0001:00094f60       ??1?$CArray@PAVCXTPControl@@PAV1@@@UAE@XZ 00495f60 f i ToolkitPro1501vc60S:XTPControls.obj
 0001:00094fb0       ??_G?$CArray@PAVCXTPControl@@PAV1@@@UAEPAXI@Z 00495fb0 f i ToolkitPro1501vc60S:XTPControls.obj
 0001:00094fb0       ??_E?$CArray@PAVCXTPControl@@PAV1@@@UAEPAXI@Z 00495fb0 f i ToolkitPro1501vc60S:XTPControls.obj
 0001:00094fd0       ?GetRuntimeClass@CXTPControlAction@@UBEPAUCRuntimeClass@@XZ 00495fd0 f   ToolkitPro1501vc60S:XTPControl.obj
 0001:00094fe0       ??0CXTPControlAction@@IAE@PAVCXTPControlActions@@@Z 00495fe0 f   ToolkitPro1501vc60S:XTPControl.obj
 0001:00095080       ??_GCXTPControlAction@@MAEPAXI@Z 00496080 f i ToolkitPro1501vc60S:XTPControl.obj
 0001:00095080       ??_ECXTPControlAction@@MAEPAXI@Z 00496080 f i ToolkitPro1501vc60S:XTPControl.obj
 0001:000950a0       ??1CXTPControlAction@@MAE@XZ 004960a0 f   ToolkitPro1501vc60S:XTPControl.obj
 0001:00095190       ?AddControl@CXTPControlAction@@IAEXPAVCXTPControl@@@Z 00496190 f   ToolkitPro1501vc60S:XTPControl.obj
 0001:00095340       ?RemoveControl@CXTPControlAction@@IAEXPAVCXTPControl@@@Z 00496340 f   ToolkitPro1501vc60S:XTPControl.obj
 0001:000953b0       ?OnChanged@CXTPControlAction@@IAEXH@Z 004963b0 f   ToolkitPro1501vc60S:XTPControl.obj
 0001:000953e0       ?OnChanging@CXTPControlAction@@IAEXH@Z 004963e0 f   ToolkitPro1501vc60S:XTPControl.obj
 0001:00095410       ?RepositionControls@CXTPControlAction@@QAEXXZ 00496410 f   ToolkitPro1501vc60S:XTPControl.obj
 0001:00095440       ?OnRemoved@CXTPControlAction@@IAEXXZ 00496440 f   ToolkitPro1501vc60S:XTPControl.obj
 0001:00095470       ?SetCaption@CXTPControlAction@@QAEXPBD@Z 00496470 f   ToolkitPro1501vc60S:XTPControl.obj
 0001:00095520       ?SetPrompt@CXTPControlAction@@QAEXPBD@Z 00496520 f   ToolkitPro1501vc60S:XTPControl.obj
 0001:000955b0       ?GetEnabled@CXTPControlAction@@QBEHXZ 004965b0 f   ToolkitPro1501vc60S:XTPControl.obj
 0001:000955d0       ?GetCommandBars@CXTPControlAction@@QBEPAVCXTPCommandBars@@XZ 004965d0 f   ToolkitPro1501vc60S:XTPControl.obj
 0001:000955e0       ??0CXTPControlActions@@IAE@PAVCXTPCommandBars@@@Z 004965e0 f   ToolkitPro1501vc60S:XTPControl.obj
 0001:00095610       ??_GCXTPControlActions@@MAEPAXI@Z 00496610 f i ToolkitPro1501vc60S:XTPControl.obj
 0001:00095610       ??_ECXTPControlActions@@MAEPAXI@Z 00496610 f i ToolkitPro1501vc60S:XTPControl.obj
 0001:00095630       ??1CXTPControlActions@@MAE@XZ 00496630 f   ToolkitPro1501vc60S:XTPControl.obj
 0001:000956b0       ?GetAt@CXTPControlActions@@QBEPAVCXTPControlAction@@H@Z 004966b0 f   ToolkitPro1501vc60S:XTPControl.obj
 0001:000956c0       ?FindAction@CXTPControlActions@@QBEPAVCXTPControlAction@@H@Z 004966c0 f   ToolkitPro1501vc60S:XTPControl.obj
 0001:00095750       ?RemoveAll@CXTPControlActions@@QAEXXZ 00496750 f   ToolkitPro1501vc60S:XTPControl.obj
 0001:000957b0       ?Insert@CXTPControlActions@@IAEXPAVCXTPControlAction@@@Z 004967b0 f   ToolkitPro1501vc60S:XTPControl.obj
 0001:00095980       ?SetActionId@CXTPControlActions@@IAEXPAVCXTPControlAction@@H@Z 00496980 f   ToolkitPro1501vc60S:XTPControl.obj
 0001:00095990       ?Add@CXTPControlActions@@QAEPAVCXTPControlAction@@HPAV2@@Z 00496990 f   ToolkitPro1501vc60S:XTPControl.obj
 0001:00095a20       ?Add@CXTPControlActions@@QAEPAVCXTPControlAction@@H@Z 00496a20 f   ToolkitPro1501vc60S:XTPControl.obj
 0001:00095aa0       ??0CXTPControl@@IAE@XZ     00496aa0 f   ToolkitPro1501vc60S:XTPControl.obj
 0001:00095c80       ??_ECXTPControl@@MAEPAXI@Z 00496c80 f i ToolkitPro1501vc60S:XTPControl.obj
 0001:00095c80       ??_GCXTPControl@@MAEPAXI@Z 00496c80 f i ToolkitPro1501vc60S:XTPControl.obj
 0001:00095ca0       ??1CDocTemplateMap@CXTPControl@@UAE@XZ 00496ca0 f i ToolkitPro1501vc60S:XTPControl.obj
 0001:00095d20       ??_GCDocTemplateMap@CXTPControl@@UAEPAXI@Z 00496d20 f i ToolkitPro1501vc60S:XTPControl.obj
 0001:00095d20       ??_ECDocTemplateMap@CXTPControl@@UAEPAXI@Z 00496d20 f i ToolkitPro1501vc60S:XTPControl.obj
 0001:00095d40       ??1CXTPControl@@MAE@XZ     00496d40 f   ToolkitPro1501vc60S:XTPControl.obj
 0001:00095f00       ?SetAction@CXTPControl@@UAEXPAVCXTPControlAction@@@Z 00496f00 f   ToolkitPro1501vc60S:XTPControl.obj
 0001:00095f40       ?OnRemoved@CXTPControl@@MAEXXZ 00496f40 f   ToolkitPro1501vc60S:XTPControl.obj
 0001:00095f50       ?GetStyle@CXTPControl@@QBE?AW4XTPButtonStyle@@XZ 00496f50 f   ToolkitPro1501vc60S:XTPControl.obj
 0001:00095f80       ?GetSize@CXTPControl@@UAE?AVCSize@@PAVCDC@@@Z 00496f80 f   ToolkitPro1501vc60S:XTPControl.obj
 0001:00095fc0       ?Draw@CXTPControl@@UAEXPAVCDC@@@Z 00496fc0 f   ToolkitPro1501vc60S:XTPControl.obj
 0001:00095ff0       ?DelayLayoutParent@CXTPControl@@QAEXXZ 00496ff0 f   ToolkitPro1501vc60S:XTPControl.obj
 0001:00096010       ?RedrawParent@CXTPControl@@QAEXH@Z 00497010 f   ToolkitPro1501vc60S:XTPControl.obj
 0001:00096070       ?OnSetSelected@CXTPControl@@MAEHH@Z 00497070 f   ToolkitPro1501vc60S:XTPControl.obj
 0001:000960f0       ?OnMouseHover@CXTPControl@@MAEXXZ 004970f0 f   ToolkitPro1501vc60S:XTPControl.obj
 0001:00096130       ?SetPrompt@CXTPControl@@QAEXPBD@Z 00497130 f   ToolkitPro1501vc60S:XTPControl.obj
 0001:00096200       ?SetID@CXTPControl@@QAEXH@Z 00497200 f   ToolkitPro1501vc60S:XTPControl.obj
 0001:00096280       ?OnActionChanged@CXTPControl@@MAEXH@Z 00497280 f   ToolkitPro1501vc60S:XTPControl.obj
 0001:000962a0       ?SetCaption@CXTPControl@@QAEXI@Z 004972a0 f   ToolkitPro1501vc60S:XTPControl.obj
 0001:00096310       ?SetCaption@CXTPControl@@QAEXPBD@Z 00497310 f   ToolkitPro1501vc60S:XTPControl.obj
 0001:00096420       ?ClickToolBarButton@CXTPControl@@IAEXVCRect@@@Z 00497420 f   ToolkitPro1501vc60S:XTPControl.obj
 0001:00096700       ?NotifySite@CXTPControl@@QAEJI@Z 00497700 f   ToolkitPro1501vc60S:XTPControl.obj
 0001:00096740       ?NotifySite@CXTPControl@@QAEJIPAUNMXTPCONTROL@@@Z 00497740 f   ToolkitPro1501vc60S:XTPControl.obj
 0001:00096770       ?NotifySite@CXTPControl@@QAEJPAVCWnd@@IPAUNMXTPCONTROL@@@Z 00497770 f   ToolkitPro1501vc60S:XTPControl.obj
 0001:00096820       ?NeedPressOnExecute@CXTPControl@@ABEHXZ 00497820 f   ToolkitPro1501vc60S:XTPControl.obj
 0001:00096840       ?OnExecute@CXTPControl@@UAEXXZ 00497840 f   ToolkitPro1501vc60S:XTPControl.obj
 0001:00096a10       ?IsCursorOver@CXTPControl@@QBEHXZ 00497a10 f   ToolkitPro1501vc60S:XTPControl.obj
 0001:00096a50       ?Copy@CXTPControl@@UAEXPAV1@H@Z 00497a50 f   ToolkitPro1501vc60S:XTPControl.obj
 0001:00096c30       ?Compare@CXTPControl@@UAEHPAV1@@Z 00497c30 f   ToolkitPro1501vc60S:XTPControl.obj
 0001:00096e10       ?CreateObject@CXTPControl@@SGPAVCObject@@XZ 00497e10 f   ToolkitPro1501vc60S:XTPControl.obj
 0001:00096e70       ?GetRuntimeClass@CXTPControl@@UBEPAUCRuntimeClass@@XZ 00497e70 f   ToolkitPro1501vc60S:XTPControl.obj
 0001:00096ea0       ?Clone@CXTPControl@@UAEPAV1@H@Z 00497ea0 f   ToolkitPro1501vc60S:XTPControl.obj
 0001:00096ed0       ?IsCustomizeMode@CXTPControl@@IBEHXZ 00497ed0 f   ToolkitPro1501vc60S:XTPControl.obj
 0001:00096ef0       ?OnInvertTracker@CXTPControl@@AAEXPAVCDC@@VCRect@@@Z 00497ef0 f   ToolkitPro1501vc60S:XTPControl.obj
 0001:00096fb0       ?OnCustomizeMouseMove@CXTPControl@@IAEXVCPoint@@@Z 00497fb0 f   ToolkitPro1501vc60S:XTPControl.obj
 0001:00097010       ?CustomizeStartResize@CXTPControl@@MAEHVCPoint@@@Z 00498010 f   ToolkitPro1501vc60S:XTPControl.obj
 0001:000973e0       ?CustomizeStartDrag@CXTPControl@@MAEXVCPoint@@@Z 004983e0 f   ToolkitPro1501vc60S:XTPControl.obj
 0001:00097550       ?OnCustomizeDragOver@CXTPControl@@MAEXPAV1@VCPoint@@AAK@Z 00498550 f   ToolkitPro1501vc60S:XTPControl.obj
 0001:00097580       ?GetImageManager@CXTPControl@@QBEPAVCXTPImageManager@@XZ 00498580 f   ToolkitPro1501vc60S:XTPControl.obj
 0001:000975b0       ?GetPaintManager@CXTPControl@@QBEPAVCXTPPaintManager@@XZ 004985b0 f   ToolkitPro1501vc60S:XTPControl.obj
 0001:00097600       ?GetImage@CXTPControl@@UBEPAVCXTPImageManagerIcon@@H@Z 00498600 f   ToolkitPro1501vc60S:XTPControl.obj
 0001:00097670       ?SetExpanded@CXTPControl@@IAEXH@Z 00498670 f   ToolkitPro1501vc60S:XTPControl.obj
 0001:000976a0       ?IsItemDefault@CXTPControl@@QBEHXZ 004986a0 f   ToolkitPro1501vc60S:XTPControl.obj
 0001:000976b0       ?SetItemDefault@CXTPControl@@QAEXH@Z 004986b0 f   ToolkitPro1501vc60S:XTPControl.obj
 0001:000976d0       ?SetFlags@CXTPControl@@QAEXK@Z 004986d0 f   ToolkitPro1501vc60S:XTPControl.obj
 0001:000976e0       ?GetFlags@CXTPControl@@QBEKXZ 004986e0 f   ToolkitPro1501vc60S:XTPControl.obj
 0001:000976f0       ?IsCustomizeMovable@CXTPControl@@UBEHXZ 004986f0 f   ToolkitPro1501vc60S:XTPControl.obj
 0001:00097740       ?Copy@CDocTemplateMap@CXTPControl@@QAEXAAV12@@Z 00498740 f   ToolkitPro1501vc60S:XTPControl.obj
 0001:00097900       ?OnLButtonDown@CXTPControl@@MAEXVCPoint@@@Z 00498900 f   ToolkitPro1501vc60S:XTPControl.obj
 0001:00097940       ?OnLButtonDblClk@CXTPControl@@MAEHVCPoint@@@Z 00498940 f   ToolkitPro1501vc60S:XTPControl.obj
 0001:00097960       ?Reset@CXTPControl@@QAEXXZ 00498960 f   ToolkitPro1501vc60S:XTPControl.obj
 0001:000979d0       ?GetButtonSize@CXTPControl@@UBE?AVCSize@@XZ 004989d0 f   ToolkitPro1501vc60S:XTPControl.obj
 0001:00097a00       ?GetIconSize@CXTPControl@@UBE?AVCSize@@XZ 00498a00 f   ToolkitPro1501vc60S:XTPControl.obj
 0001:00097a60       ?GetEnabled@CXTPControl@@QBEHXZ 00498a60 f   ToolkitPro1501vc60S:XTPControl.obj
 0001:00097aa0       ?OnUnderlineActivate@CXTPControl@@UAEXXZ 00498aa0 f   ToolkitPro1501vc60S:XTPControl.obj
 0001:00097ab0       ?IsCaptionVisible@CXTPControl@@UBEHXZ 00498ab0 f   ToolkitPro1501vc60S:XTPControl.obj
 0001:00097b60       ?GetAccessible@CXTPControl@@MAEPAVCCmdTarget@@XZ 00498b60 f   ToolkitPro1501vc60S:XTPControl.obj
 0001:00097b70       ?GetAccessibleParent@CXTPControl@@MAEJPAPAUIDispatch@@@Z 00498b70 f   ToolkitPro1501vc60S:XTPControl.obj
 0001:00097ba0       ?GetAccessibleChildCount@CXTPControl@@MAEJPAJ@Z 00498ba0 f   ToolkitPro1501vc60S:XTPControl.obj
 0001:00097bd0       ?GetAccessibleChild@CXTPControl@@MAEJUtagVARIANT@@PAPAUIDispatch@@@Z 00498bd0 f   ToolkitPro1501vc60S:XTPControl.obj
 0001:00097c10       ?GetAccessibleName@CXTPControl@@MAEJUtagVARIANT@@PAPAG@Z 00498c10 f   ToolkitPro1501vc60S:XTPControl.obj
 0001:00097d80       ?GetAccessibleKeyboardShortcut@CXTPControl@@MAEJUtagVARIANT@@PAPAG@Z 00498d80 f   ToolkitPro1501vc60S:XTPControl.obj
 0001:00097e60       ?GetAccessibleDescription@CXTPControl@@MAEJUtagVARIANT@@PAPAG@Z 00498e60 f   ToolkitPro1501vc60S:XTPControl.obj
 0001:00097ef0       ?GetAccessibleRole@CXTPControl@@MAEJUtagVARIANT@@PAU2@@Z 00498ef0 f   ToolkitPro1501vc60S:XTPControl.obj
 0001:00097f80       ?AccessibleSelect@CXTPControl@@MAEJJUtagVARIANT@@@Z 00498f80 f   ToolkitPro1501vc60S:XTPControl.obj
 0001:00097fe0       ?GetAccessibleState@CXTPControl@@MAEJUtagVARIANT@@PAU2@@Z 00498fe0 f   ToolkitPro1501vc60S:XTPControl.obj
 0001:000980c0       ?GetAccessibleDefaultAction@CXTPControl@@MAEJUtagVARIANT@@PAPAG@Z 004990c0 f   ToolkitPro1501vc60S:XTPControl.obj
 0001:000980f0       ?AccessibleDoDefaultAction@CXTPControl@@MAEJUtagVARIANT@@@Z 004990f0 f   ToolkitPro1501vc60S:XTPControl.obj
 0001:00098130       ?AccessibleLocation@CXTPControl@@MAEJPAJ000UtagVARIANT@@@Z 00499130 f   ToolkitPro1501vc60S:XTPControl.obj
 0001:00098200       ?AccessibleHitTest@CXTPControl@@MAEJJJPAUtagVARIANT@@@Z 00499200 f   ToolkitPro1501vc60S:XTPControl.obj
 0001:000982e0       ?SetVisible@CXTPControl@@QAEXH@Z 004992e0 f   ToolkitPro1501vc60S:XTPControl.obj
 0001:00098330       ?OnCmdMsg@CXTPControl@@MAEHIHPAXPAUAFX_CMDHANDLERINFO@@@Z 00499330 f   ToolkitPro1501vc60S:XTPControl.obj
 0001:00098370       ?GetInterfaceMap@CXTPControl@@MBEPBUAFX_INTERFACEMAP@@XZ 00499370 f   ToolkitPro1501vc60S:XTPControl.obj
 0001:00098380       ??1?$CArray@PAVCXTPControlAction@@PAV1@@@UAE@XZ 00499380 f i ToolkitPro1501vc60S:XTPControl.obj
 0001:000983d0       ??_G?$CArray@PAVCXTPControlAction@@PAV1@@@UAEPAXI@Z 004993d0 f i ToolkitPro1501vc60S:XTPControl.obj
 0001:000983d0       ??_E?$CArray@PAVCXTPControlAction@@PAV1@@@UAEPAXI@Z 004993d0 f i ToolkitPro1501vc60S:XTPControl.obj
 0001:000983f0       ?SetSize@?$CArray@PAUCItem@CXTPDockingPaneWindowSelect@@PAU12@@@QAEXHH@Z 004993f0 f i ToolkitPro1501vc60S:XTPControl.obj
 0001:000983f0       ?SetSize@?$CArray@PAVCXTPTabManagerItem@@PAV1@@@QAEXHH@Z 004993f0 f i ToolkitPro1501vc60S:XTPControl.obj
 0001:000983f0       ?SetSize@?$CArray@PAUTOOLITEM@CXTPToolTipContextToolTip@@PAU12@@@QAEXHH@Z 004993f0 f i ToolkitPro1501vc60S:XTPControl.obj
 0001:000983f0       ?SetSize@?$CArray@PAVCXTPDockingPaneCaptionButton@@PAV1@@@QAEXHH@Z 004993f0 f i ToolkitPro1501vc60S:XTPControl.obj
 0001:000983f0       ?SetSize@?$CArray@PAUCONNECTION_DESCRIPTOR@CXTPNotifyConnection@@PAU12@@@QAEXHH@Z 004993f0 f i ToolkitPro1501vc60S:XTPControl.obj
 0001:000983f0       ?SetSize@?$CArray@PAVCXTPToolBar@@PAV1@@@QAEXHH@Z 004993f0 f i ToolkitPro1501vc60S:XTPControl.obj
 0001:000983f0       ?SetSize@?$CArray@PAVCXTPPropertyPage@@PAV1@@@QAEXHH@Z 004993f0 f i ToolkitPro1501vc60S:XTPControl.obj
 0001:000983f0       ?SetSize@?$CArray@PAVCXTPCommandBarKeyboardTip@@PAV1@@@QAEXHH@Z 004993f0 f i ToolkitPro1501vc60S:XTPControl.obj
 0001:000983f0       ?SetSize@?$CArray@PAVCXTPControlAction@@PAV1@@@QAEXHH@Z 004993f0 f i ToolkitPro1501vc60S:XTPControl.obj
 0001:000983f0       ?SetSize@?$CArray@PAVCXTPTabManagerNavigateButton@@PAV1@@@QAEXHH@Z 004993f0 f i ToolkitPro1501vc60S:XTPControl.obj
 0001:000983f0       ?SetSize@?$CArray@PAVCXTPControl@@PAV1@@@QAEXHH@Z 004993f0 f i ToolkitPro1501vc60S:XTPControl.obj
 0001:000983f0       ?SetSize@?$CArray@PAVCAutoHidePanelTabManager@CXTPDockingPaneAutoHidePanel@@PAV12@@@QAEXHH@Z 004993f0 f i ToolkitPro1501vc60S:XTPControl.obj
 0001:000983f0       ?SetSize@?$CArray@PAUXTP_IMAGERESOURCE_INFO@@PAU1@@@QAEXHH@Z 004993f0 f i ToolkitPro1501vc60S:XTPControl.obj
 0001:000983f0       ?SetSize@?$CArray@PAUHWND__@@PAU1@@@QAEXHH@Z 004993f0 f i ToolkitPro1501vc60S:XTPControl.obj
 0001:000983f0       ?SetSize@?$CArray@PAUCAnimateInfo@CXTPCommandBarAnimation@@PAU12@@@QAEXHH@Z 004993f0 f i ToolkitPro1501vc60S:XTPControl.obj
 0001:000983f0       ?SetSize@?$CArray@PAUXTP_COMMANDBARS_CATEGORYINFO@@PAU1@@@QAEXHH@Z 004993f0 f i ToolkitPro1501vc60S:XTPControl.obj
 0001:000983f0       ?SetSize@?$CArray@PAVCXTPHookManagerHookAble@@PAV1@@@QAEXHH@Z 004993f0 f i ToolkitPro1501vc60S:XTPControl.obj
 0001:000983f0       ?SetSize@?$CArray@PAVCXTPMarkupObject@@PAV1@@@QAEXHH@Z 004993f0 f i ToolkitPro1501vc60S:XTPControl.obj
 0001:000983f0       ?SetSize@?$CArray@PAVCXTPRibbonGroup@@PAV1@@@QAEXHH@Z 004993f0 f i ToolkitPro1501vc60S:XTPControl.obj
 0001:000983f0       ?SetSize@?$CArray@PAVCXTPImageManagerImageList@@PAV1@@@QAEXHH@Z 004993f0 f i ToolkitPro1501vc60S:XTPControl.obj
 0001:000983f0       ?SetSize@?$CArray@PAVCXTPDockingPaneSidePanel@@PAV1@@@QAEXHH@Z 004993f0 f i ToolkitPro1501vc60S:XTPControl.obj
 0001:00098530       ??_ECXTPControl@@OBM@AEPAXI@Z 00499530 f i ToolkitPro1501vc60S:XTPControl.obj
 0001:00098540       ??0CXTPCustomizeDropSource@@QAE@PAVCXTPCommandBars@@@Z 00499540 f   ToolkitPro1501vc60S:XTPCustomizeTools.obj
 0001:000985e0       ??1CXTPCustomizeDropSource@@QAE@XZ 004995e0 f   ToolkitPro1501vc60S:XTPCustomizeTools.obj
 0001:00098630       ?DoDragDrop@CXTPCustomizeDropSource@@QAEKPAVCXTPControl@@H@Z 00499630 f   ToolkitPro1501vc60S:XTPCustomizeTools.obj
 0001:000986d0       ?Register@CXTPCustomizeDropSource@@QAEXPAVCXTPCommandBar@@@Z 004996d0 f   ToolkitPro1501vc60S:XTPCustomizeTools.obj
 0001:00098840       ?UnRegister@CXTPCustomizeDropSource@@QAEXPAVCXTPCommandBar@@@Z 00499840 f   ToolkitPro1501vc60S:XTPCustomizeTools.obj
 0001:00098890       ?PickTarget@CXTPCustomizeDropSource@@AAEXVCPoint@@@Z 00499890 f   ToolkitPro1501vc60S:XTPCustomizeTools.obj
 0001:000989e0       ?FreshenCursor@CXTPCustomizeDropSource@@AAEXXZ 004999e0 f   ToolkitPro1501vc60S:XTPCustomizeTools.obj
 0001:00098a10       ?_DoDragDrop@CXTPCustomizeDropSource@@AAEKXZ 00499a10 f   ToolkitPro1501vc60S:XTPCustomizeTools.obj
 0001:00098c20       ??0CXTPNewToolbarDlg@@QAE@PAVCWnd@@PAVCXTPCommandBars@@PAVCXTPCommandBar@@@Z 00499c20 f   ToolkitPro1501vc60S:XTPCustomizeTools.obj
 0001:00098cc0       ??_ECXTPNewToolbarDlg@@UAEPAXI@Z 00499cc0 f i ToolkitPro1501vc60S:XTPCustomizeTools.obj
 0001:00098cc0       ??_GCXTPNewToolbarDlg@@UAEPAXI@Z 00499cc0 f i ToolkitPro1501vc60S:XTPCustomizeTools.obj
 0001:00098ce0       ??1CXTPNewToolbarDlg@@UAE@XZ 00499ce0 f i ToolkitPro1501vc60S:XTPCustomizeTools.obj
 0001:00098d30       ?DoDataExchange@CXTPNewToolbarDlg@@MAEXPAVCDataExchange@@@Z 00499d30 f   ToolkitPro1501vc60S:XTPCustomizeTools.obj
 0001:00098d50       ?GetMessageMap@CXTPNewToolbarDlg@@MBEPBUAFX_MSGMAP@@XZ 00499d50 f   ToolkitPro1501vc60S:XTPCustomizeTools.obj
 0001:00098d60       ?OnInitDialog@CXTPNewToolbarDlg@@MAEHXZ 00499d60 f   ToolkitPro1501vc60S:XTPCustomizeTools.obj
 0001:00098e40       ?SetSuggestedName@CXTPNewToolbarDlg@@AAEXXZ 00499e40 f   ToolkitPro1501vc60S:XTPCustomizeTools.obj
 0001:00098f60       ?OnOK@CXTPNewToolbarDlg@@MAEXXZ 00499f60 f   ToolkitPro1501vc60S:XTPCustomizeTools.obj
 0001:00099120       ?AddToolBar@CXTPReBar@@QAEHPAVCXTPToolBar@@K@Z 0049a120 f   ToolkitPro1501vc60S:XTPReBar.obj
 0001:000991f0       ?DeleteToolBar@CXTPReBar@@QAEXPAVCXTPToolBar@@@Z 0049a1f0 f   ToolkitPro1501vc60S:XTPReBar.obj
 0001:00099220       ?GetToolBar@CXTPReBar@@QAEPAVCXTPToolBar@@H@Z 0049a220 f   ToolkitPro1501vc60S:XTPReBar.obj
 0001:00099270       ?FindBand@CXTPReBar@@QAEHPAVCXTPToolBar@@@Z 0049a270 f   ToolkitPro1501vc60S:XTPReBar.obj
 0001:000992c0       ?OnPaint@CXTPReBar@@IAEXXZ 0049a2c0 f   ToolkitPro1501vc60S:XTPReBar.obj
 0001:000993a0       ?OnChildSize@CXTPReBar@@IAEXPAUtagNMHDR@@PAJ@Z 0049a3a0 f   ToolkitPro1501vc60S:XTPReBar.obj
 0001:000993f0       ??0CWorkspace@CXTPTabClientWnd@@QAE@XZ 0049a3f0 f   ToolkitPro1501vc60S:XTPTabClientWnd.obj
 0001:00099420       ??_GCWorkspace@CXTPTabClientWnd@@UAEPAXI@Z 0049a420 f i ToolkitPro1501vc60S:XTPTabClientWnd.obj
 0001:00099420       ??_ECWorkspace@CXTPTabClientWnd@@UAEPAXI@Z 0049a420 f i ToolkitPro1501vc60S:XTPTabClientWnd.obj
 0001:00099440       ??1CWorkspace@CXTPTabClientWnd@@UAE@XZ 0049a440 f   ToolkitPro1501vc60S:XTPTabClientWnd.obj
 0001:00099450       ?SetSelectedItem@CWorkspace@CXTPTabClientWnd@@MAEXPAVCXTPTabManagerItem@@@Z 0049a450 f   ToolkitPro1501vc60S:XTPTabClientWnd.obj
 0001:00099490       ?IsMouseLocked@CWorkspace@CXTPTabClientWnd@@MBEHXZ 0049a490 f   ToolkitPro1501vc60S:XTPTabClientWnd.obj
 0001:000994b0       ?RedrawControl@CWorkspace@CXTPTabClientWnd@@MAEXPBUtagRECT@@H@Z 0049a4b0 f   ToolkitPro1501vc60S:XTPTabClientWnd.obj
 0001:000994e0       ?Reposition@CWorkspace@CXTPTabClientWnd@@MAEXXZ 0049a4e0 f   ToolkitPro1501vc60S:XTPTabClientWnd.obj
 0001:00099510       ?IsAllowReorder@CWorkspace@CXTPTabClientWnd@@MBEHXZ 0049a510 f   ToolkitPro1501vc60S:XTPTabClientWnd.obj
 0001:00099520       ?SetAllowReorder@CWorkspace@CXTPTabClientWnd@@MAEXH@Z 0049a520 f   ToolkitPro1501vc60S:XTPTabClientWnd.obj
 0001:00099540       ?IsDrawStaticFrame@CWorkspace@CXTPTabClientWnd@@MBEHXZ 0049a540 f   ToolkitPro1501vc60S:XTPTabClientWnd.obj
 0001:00099570       ?DrawIcon@CWorkspace@CXTPTabClientWnd@@MBEHPAVCDC@@VCPoint@@PAVCXTPTabManagerItem@@HAAVCSize@@@Z 0049a570 f   ToolkitPro1501vc60S:XTPTabClientWnd.obj
 0001:000996c0       ?GetPaintManager@CWorkspace@CXTPTabClientWnd@@MBEPAVCXTPTabPaintManager@@XZ 0049a6c0 f   ToolkitPro1501vc60S:XTPTabClientWnd.obj
 0001:000996e0       ?GetItemTooltip@CWorkspace@CXTPTabClientWnd@@MBE?AVCString@@PBVCXTPTabManagerItem@@@Z 0049a6e0 f   ToolkitPro1501vc60S:XTPTabClientWnd.obj
 0001:00099710       ?FindItem@CWorkspace@CXTPTabClientWnd@@IBEPAVCXTPTabManagerItem@@QAUHWND__@@@Z 0049a710 f   ToolkitPro1501vc60S:XTPTabClientWnd.obj
 0001:00099770       ?OnBeforeItemClick@CWorkspace@CXTPTabClientWnd@@MAEHPAVCXTPTabManagerItem@@@Z 0049a770 f   ToolkitPro1501vc60S:XTPTabClientWnd.obj
 0001:00099790       ?OnItemClick@CWorkspace@CXTPTabClientWnd@@MAEXPAVCXTPTabManagerItem@@@Z 0049a790 f   ToolkitPro1501vc60S:XTPTabClientWnd.obj
 0001:00099890       ?GetWindow@CWorkspace@CXTPTabClientWnd@@MBEPAVCWnd@@XZ 0049a890 f   ToolkitPro1501vc60S:XTPTabClientWnd.obj
 0001:000998a0       ?OnNavigateButtonClick@CWorkspace@CXTPTabClientWnd@@MAEXPAVCXTPTabManagerNavigateButton@@@Z 0049a8a0 f   ToolkitPro1501vc60S:XTPTabClientWnd.obj
 0001:000998f0       ?GetMarkupContext@CWorkspace@CXTPTabClientWnd@@MBEPAVCXTPMarkupContext@@XZ 0049a8f0 f   ToolkitPro1501vc60S:XTPTabClientWnd.obj
 0001:00099900       ?GetItemIcon@CWorkspace@CXTPTabClientWnd@@MBEPAUHICON__@@PBVCXTPTabManagerItem@@@Z 0049a900 f   ToolkitPro1501vc60S:XTPTabClientWnd.obj
 0001:00099920       ?GetItemColor@CWorkspace@CXTPTabClientWnd@@MBEKPBVCXTPTabManagerItem@@@Z 0049a920 f   ToolkitPro1501vc60S:XTPTabClientWnd.obj
 0001:00099970       ?ReOrder@CWorkspace@CXTPTabClientWnd@@MAEXPAUHWND__@@VCPoint@@PAVCXTPTabManagerItem@@@Z 0049a970 f   ToolkitPro1501vc60S:XTPTabClientWnd.obj
 0001:00099d60       ?DrawParentBackground@CWorkspace@CXTPTabClientWnd@@MAEHPAVCDC@@VCRect@@@Z 0049ad60 f   ToolkitPro1501vc60S:XTPTabClientWnd.obj
 0001:00099e50       ?OnContextMenu@CXTPControlEditCtrl@@IAEXPAVCWnd@@VCPoint@@@Z 0049ae50 f   ToolkitPro1501vc60S:XTPTabClientWnd.obj
 0001:00099e50       ?DrawButton@CXTPTabBaseTheme@@UAEXPAVCDC@@PAVCXTPTabCtrlButton@@K@Z 0049ae50 f   ToolkitPro1501vc60S:XTPTabClientWnd.obj
 0001:00099e50       ?OnContextMenu@CXTPControlComboBoxEditCtrl@@IAEXPAVCWnd@@VCPoint@@@Z 0049ae50 f   ToolkitPro1501vc60S:XTPTabClientWnd.obj
 0001:00099e50       ?AdjustExcludeRect@CXTPRibbonTheme@@MAEXAAVCRect@@PAVCXTPControl@@H@Z 0049ae50 f   ToolkitPro1501vc60S:XTPTabClientWnd.obj
 0001:00099e50       ?OnClick@CXTPRibbonControlTab@@MAEXHVCPoint@@@Z 0049ae50 f   ToolkitPro1501vc60S:XTPTabClientWnd.obj
 0001:00099e50       ?OnLButtonDown@CXTPControlComboBoxList@@IAEXIVCPoint@@@Z 0049ae50 f   ToolkitPro1501vc60S:XTPTabClientWnd.obj
 0001:00099e50       ?GenerateCommandBarList@CXTPRibbonGroupControlPopup@@UAEXAAKPAVCXTPCommandBarList@@PAUXTP_COMMANDBARS_PROPEXCHANGE_PARAM@@@Z 0049ae50 f   ToolkitPro1501vc60S:XTPTabClientWnd.obj
 0001:00099e50       ?OnRButtonDown@CSingleWorkspace@CXTPTabClientWnd@@QAEXIVCPoint@@@Z 0049ae50 f   ToolkitPro1501vc60S:XTPTabClientWnd.obj
 0001:00099e60       ?OnPaint@CSingleWorkspace@CXTPTabClientWnd@@QAEXXZ 0049ae60 f   ToolkitPro1501vc60S:XTPTabClientWnd.obj
 0001:00099f90       ?OnPrintClient@CSingleWorkspace@CXTPTabClientWnd@@QAEJIJ@Z 0049af90 f   ToolkitPro1501vc60S:XTPTabClientWnd.obj
 0001:0009a060       ?OnLButtonDown@CSingleWorkspace@CXTPTabClientWnd@@QAEXIVCPoint@@@Z 0049b060 f   ToolkitPro1501vc60S:XTPTabClientWnd.obj
 0001:0009a0a0       ?OnLButtonDblClk@CSingleWorkspace@CXTPTabClientWnd@@QAEXIVCPoint@@@Z 0049b0a0 f   ToolkitPro1501vc60S:XTPTabClientWnd.obj
 0001:0009a0c0       ?OnMouseMove@CSingleWorkspace@CXTPTabClientWnd@@QAEXIVCPoint@@@Z 0049b0c0 f   ToolkitPro1501vc60S:XTPTabClientWnd.obj
 0001:0009a0e0       ?OnMouseLeave@CSingleWorkspace@CXTPTabClientWnd@@QAEXXZ 0049b0e0 f   ToolkitPro1501vc60S:XTPTabClientWnd.obj
 0001:0009a100       ?CreateObject@CXTPControlTabWorkspace@@SGPAVCObject@@XZ 0049b100 f   ToolkitPro1501vc60S:XTPTabClientWnd.obj
 0001:0009a160       ?GetRuntimeClass@CXTPControlTabWorkspace@@UBEPAUCRuntimeClass@@XZ 0049b160 f   ToolkitPro1501vc60S:XTPTabClientWnd.obj
 0001:0009a190       ?Clone@CXTPControlTabWorkspace@@UAEPAVCXTPControl@@H@Z 0049b190 f   ToolkitPro1501vc60S:XTPTabClientWnd.obj
 0001:0009a1c0       ??0CXTPControlTabWorkspace@@QAE@XZ 0049b1c0 f   ToolkitPro1501vc60S:XTPTabClientWnd.obj
 0001:0009a240       ??_GCXTPControlTabWorkspace@@UAEPAXI@Z 0049b240 f i ToolkitPro1501vc60S:XTPTabClientWnd.obj
 0001:0009a240       ??_ECXTPControlTabWorkspace@@UAEPAXI@Z 0049b240 f i ToolkitPro1501vc60S:XTPTabClientWnd.obj
 0001:0009a260       ??1CXTPControlTabWorkspace@@UAE@XZ 0049b260 f   ToolkitPro1501vc60S:XTPTabClientWnd.obj
 0001:0009a2d0       ?RedrawControl@CXTPControlTabWorkspace@@UAEXPBUtagRECT@@H@Z 0049b2d0 f   ToolkitPro1501vc60S:XTPTabClientWnd.obj
 0001:0009a2f0       ?GetPaintManager@CXTPControlTabWorkspace@@UBEPAVCXTPTabPaintManager@@XZ 0049b2f0 f   ToolkitPro1501vc60S:XTPTabClientWnd.obj
 0001:0009a300       ?GetWindow@CXTPControlTabWorkspace@@UBEPAVCWnd@@XZ 0049b300 f   ToolkitPro1501vc60S:XTPTabClientWnd.obj
 0001:0009a310       ?OnMouseMove@CXTPControlTabWorkspace@@MAEXVCPoint@@@Z 0049b310 f   ToolkitPro1501vc60S:XTPTabClientWnd.obj
 0001:0009a340       ?OnRecalcLayout@CXTPControlTabWorkspace@@UAEXXZ 0049b340 f   ToolkitPro1501vc60S:XTPTabClientWnd.obj
 0001:0009a390       ?GetPosition@CXTPControlTabWorkspace@@UBE?AW4XTPTabPosition@@XZ 0049b390 f   ToolkitPro1501vc60S:XTPTabClientWnd.obj
 0001:0009a3c0       ?OnRemoved@CXTPControlTabWorkspace@@UAEXXZ 0049b3c0 f   ToolkitPro1501vc60S:XTPTabClientWnd.obj
 0001:0009a410       ?SetRect@CXTPControlTabWorkspace@@MAEXVCRect@@@Z 0049b410 f   ToolkitPro1501vc60S:XTPTabClientWnd.obj
 0001:0009a500       ?Draw@CXTPControlTabWorkspace@@MAEXPAVCDC@@@Z 0049b500 f   ToolkitPro1501vc60S:XTPTabClientWnd.obj
 0001:0009a570       ?GetSize@CXTPControlTabWorkspace@@MAE?AVCSize@@PAVCDC@@@Z 0049b570 f   ToolkitPro1501vc60S:XTPTabClientWnd.obj
 0001:0009a620       ?OnToolHitTest@CXTPControlTabWorkspace@@MBEHVCPoint@@PAUtagTOOLINFOA@@@Z 0049b620 f   ToolkitPro1501vc60S:XTPTabClientWnd.obj
 0001:0009a760       ?OnClick@CXTPControlTabWorkspace@@MAEXHVCPoint@@@Z 0049b760 f   ToolkitPro1501vc60S:XTPTabClientWnd.obj
 0001:0009a7c0       ?FindItem@CXTPTabClientWnd@@QBEPAVCXTPTabManagerItem@@QAUHWND__@@@Z 0049b7c0 f   ToolkitPro1501vc60S:XTPTabClientWnd.obj
 0001:0009a800       ?MDIGetActive@CXTPTabClientWnd@@IAEPAVCWnd@@XZ 0049b800 f   ToolkitPro1501vc60S:XTPTabClientWnd.obj
 0001:0009a810       ?MDIActivate@CXTPTabClientWnd@@IAEXPAVCWnd@@@Z 0049b810 f   ToolkitPro1501vc60S:XTPTabClientWnd.obj
 0001:0009a870       ?GetWorkspaceCount@CXTPTabClientWnd@@QBEHXZ 0049b870 f   ToolkitPro1501vc60S:XTPTabClientWnd.obj
 0001:0009a870       ?GetStatusBar@CXTPStatusBarPane@@QBEPAVCXTPStatusBar@@XZ 0049b870 f   ToolkitPro1501vc60S:XTPTabClientWnd.obj
 0001:0009a880       ?GetWorkspace@CXTPTabClientWnd@@QBEPAVCWorkspace@1@H@Z 0049b880 f   ToolkitPro1501vc60S:XTPTabClientWnd.obj
 0001:0009a890       ?OnIdleUpdateCmdUI@CXTPTabClientWnd@@QAEXXZ 0049b890 f   ToolkitPro1501vc60S:XTPTabClientWnd.obj
 0001:0009a8b0       ?AddNewWindowItem@CWorkspace@CXTPTabClientWnd@@MAEXXZ 0049b8b0 f   ToolkitPro1501vc60S:XTPTabClientWnd.obj
 0001:0009a900       ?SetActiveWorkspace@CXTPTabClientWnd@@IAEXPAVCWorkspace@1@@Z 0049b900 f   ToolkitPro1501vc60S:XTPTabClientWnd.obj
 0001:0009a940       ?ScreenToWorkspace@CXTPTabClientWnd@@QBEXPAUtagPOINT@@@Z 0049b940 f   ToolkitPro1501vc60S:XTPTabClientWnd.obj
 0001:0009a9a0       ?Refresh@CXTPTabClientWnd@@QAEXH@Z 0049b9a0 f   ToolkitPro1501vc60S:XTPTabClientWnd.obj
 0001:0009aa90       ?OnMDIActivate@CXTPTabClientWnd@@IAEJIJ@Z 0049ba90 f   ToolkitPro1501vc60S:XTPTabClientWnd.obj
 0001:0009ab20       ?OnMDICreate@CXTPTabClientWnd@@IAEJIJ@Z 0049bb20 f   ToolkitPro1501vc60S:XTPTabClientWnd.obj
 0001:0009ab90       ?ActivateNextItem@CXTPTabClientWnd@@IAEXPAVCXTPTabManagerItem@@@Z 0049bb90 f   ToolkitPro1501vc60S:XTPTabClientWnd.obj
 0001:0009abe0       ?OnMDIDestroy@CXTPTabClientWnd@@IAEJIJ@Z 0049bbe0 f   ToolkitPro1501vc60S:XTPTabClientWnd.obj
 0001:0009ac20       ?OnMDINext@CXTPTabClientWnd@@IAEJIJ@Z 0049bc20 f   ToolkitPro1501vc60S:XTPTabClientWnd.obj
 0001:0009ac40       ?OnSetCursor@CXTPTabClientWnd@@IAEHPAVCWnd@@II@Z 0049bc40 f   ToolkitPro1501vc60S:XTPTabClientWnd.obj
 0001:0009ad10       ?OnRButtonDown@CXTPTabClientWnd@@IAEXIVCPoint@@@Z 0049bd10 f   ToolkitPro1501vc60S:XTPTabClientWnd.obj
 0001:0009ad10       ?OnChar@CXTPDockingPaneWindowSelect@@QAEXIII@Z 0049bd10 f   ToolkitPro1501vc60S:XTPTabClientWnd.obj
 0001:0009ad10       ?OnSysKeyDown@CXTPCustomizeSheet@@IAEXIII@Z 0049bd10 f   ToolkitPro1501vc60S:XTPTabClientWnd.obj
 0001:0009ad10       ?OnSize@CXTPTabClientWnd@@IAEXIHH@Z 0049bd10 f   ToolkitPro1501vc60S:XTPTabClientWnd.obj
 0001:0009ad20       ?OnEraseBkgnd@CXTPTabClientWnd@@IAEHPAVCDC@@@Z 0049bd20 f   ToolkitPro1501vc60S:XTPTabClientWnd.obj
 0001:0009ad50       ?OnPrintClient@CXTPTabClientWnd@@IAEJIJ@Z 0049bd50 f   ToolkitPro1501vc60S:XTPTabClientWnd.obj
 0001:0009add0       ?OnPaint@CXTPTabClientWnd@@IAEXXZ 0049bdd0 f   ToolkitPro1501vc60S:XTPTabClientWnd.obj
 0001:0009aec0       ?OnNcCalcSize@CXTPTabClientWnd@@IAEXHPAUtagNCCALCSIZE_PARAMS@@@Z 0049bec0 f   ToolkitPro1501vc60S:XTPTabClientWnd.obj
 0001:0009aef0       ?OnNcActivate@CXTPTabClientWnd@@IAEHH@Z 0049bef0 f   ToolkitPro1501vc60S:XTPTabClientWnd.obj
 0001:0009af10       ?OnNcPaint@CXTPTabClientWnd@@IAEXXZ 0049bf10 f   ToolkitPro1501vc60S:XTPTabClientWnd.obj
 0001:0009afc0       ?RepositionWorkspaces@CXTPTabClientWnd@@IAEXVCRect@@0PAVCWorkspace@1@1@Z 0049bfc0 f   ToolkitPro1501vc60S:XTPTabClientWnd.obj
 0001:0009b090       ?NormalizeWorkspaceSize@CXTPTabClientWnd@@IAEXXZ 0049c090 f   ToolkitPro1501vc60S:XTPTabClientWnd.obj
 0001:0009b110       ?TrackSplitter@CXTPTabClientWnd@@IAEXHVCPoint@@@Z 0049c110 f   ToolkitPro1501vc60S:XTPTabClientWnd.obj
 0001:0009b4f0       ?OnLButtonDown@CXTPTabClientWnd@@IAEXIVCPoint@@@Z 0049c4f0 f   ToolkitPro1501vc60S:XTPTabClientWnd.obj
 0001:0009b600       ?InitLoop@CXTPTabClientWnd@@IAEXXZ 0049c600 f   ToolkitPro1501vc60S:XTPTabClientWnd.obj
 0001:0009b6e0       ?CancelLoop@CXTPTabClientWnd@@IAEXXZ 0049c6e0 f   ToolkitPro1501vc60S:XTPTabClientWnd.obj
 0001:0009b730       ?DrawFocusRect@CXTPTabClientWnd@@IAEXH@Z 0049c730 f   ToolkitPro1501vc60S:XTPTabClientWnd.obj
 0001:0009b800       ?ReorderWorkspace@CXTPTabClientWnd@@IAEXVCPoint@@PAVCXTPTabManagerItem@@@Z 0049c800 f   ToolkitPro1501vc60S:XTPTabClientWnd.obj
 0001:0009ba80       ?FindIndex@CXTPTabClientWnd@@QBEHPAVCXTPTabManager@@@Z 0049ca80 f   ToolkitPro1501vc60S:XTPTabClientWnd.obj
 0001:0009bac0       ?ContextMenu@CXTPTabClientWnd@@IAEXVCPoint@@@Z 0049cac0 f   ToolkitPro1501vc60S:XTPTabClientWnd.obj
 0001:0009bbc0       ?OnWorkspaceCommand@CXTPTabClientWnd@@QAEXI@Z 0049cbc0 f   ToolkitPro1501vc60S:XTPTabClientWnd.obj
 0001:0009bc90       ?OnUpdateWorkspaceCommand@CXTPTabClientWnd@@IAEXPAVCCmdUI@@@Z 0049cc90 f   ToolkitPro1501vc60S:XTPTabClientWnd.obj
 0001:0009bcb0       ?IsWorkspaceCommandEnabled@CXTPTabClientWnd@@QAEHIPAPAVCXTPTabManagerItem@@@Z 0049ccb0 f   ToolkitPro1501vc60S:XTPTabClientWnd.obj
 0001:0009bda0       ?DoWorkspaceCommand@CXTPTabClientWnd@@IAEXPAVCXTPTabManagerItem@@PAVCWorkspace@1@H@Z 0049cda0 f   ToolkitPro1501vc60S:XTPTabClientWnd.obj
 0001:0009bf50       ?OnMouseMove@CXTPTabClientWnd@@IAEXIVCPoint@@@Z 0049cf50 f   ToolkitPro1501vc60S:XTPTabClientWnd.obj
 0001:0009bfb0       ?OnMouseLeave@CXTPTabClientWnd@@IAEXXZ 0049cfb0 f   ToolkitPro1501vc60S:XTPTabClientWnd.obj
 0001:0009c000       ?OnLButtonDblClk@CXTPTabClientWnd@@IAEXIVCPoint@@@Z 0049d000 f   ToolkitPro1501vc60S:XTPTabClientWnd.obj
 0001:0009c020       ?OnSysColorChange@CXTPTabClientWnd@@IAEXXZ 0049d020 f   ToolkitPro1501vc60S:XTPTabClientWnd.obj
 0001:0009c050       ?GetPaintManager@CXTPTabClientWnd@@QBEPAVCXTPTabPaintManager@@XZ 0049d050 f   ToolkitPro1501vc60S:XTPTabClientWnd.obj
 0001:0009c060       ?SetSize@?$CArray@VCRect@@AAV1@@@QAEXHH@Z 0049d060 f i ToolkitPro1501vc60S:XTPTabClientWnd.obj
 0001:0009c190       ??_ECXTPControlTabWorkspace@@WBM@AEPAXI@Z 0049d190 f i ToolkitPro1501vc60S:XTPTabClientWnd.obj
 0001:0009c1a0       ??_ECXTPControlTabWorkspace@@WBDA@AEPAXI@Z 0049d1a0 f i ToolkitPro1501vc60S:XTPTabClientWnd.obj
 0001:0009c200       ??1?$CThreadLocal@VCXTPDockingPaneKeyboardHook@@@@QAE@XZ 0049d200 f i ToolkitPro1501vc60S:XTPMouseManager.obj
 0001:0009c200       ??1?$CThreadLocal@VCXTPKeyboardManager@@@@QAE@XZ 0049d200 f i ToolkitPro1501vc60S:XTPMouseManager.obj
 0001:0009c200       ??1?$CThreadLocal@VCXTPMouseManager@@@@QAE@XZ 0049d200 f i ToolkitPro1501vc60S:XTPMouseManager.obj
 0001:0009c230       ??0CXTPMouseManager@@QAE@XZ 0049d230 f   ToolkitPro1501vc60S:XTPMouseManager.obj
 0001:0009c2b0       ??_GCXTPMouseManager@@UAEPAXI@Z 0049d2b0 f i ToolkitPro1501vc60S:XTPMouseManager.obj
 0001:0009c2b0       ??_ECXTPMouseManager@@UAEPAXI@Z 0049d2b0 f i ToolkitPro1501vc60S:XTPMouseManager.obj
 0001:0009c2d0       ??1CTrackArray@CXTPMouseManager@@UAE@XZ 0049d2d0 f i ToolkitPro1501vc60S:XTPMouseManager.obj
 0001:0009c320       ??1CTrustedArray@CXTPMouseManager@@UAE@XZ 0049d320 f i ToolkitPro1501vc60S:XTPMouseManager.obj
 0001:0009c370       ??_GCTrackArray@CXTPMouseManager@@UAEPAXI@Z 0049d370 f i ToolkitPro1501vc60S:XTPMouseManager.obj
 0001:0009c370       ??_ECTrackArray@CXTPMouseManager@@UAEPAXI@Z 0049d370 f i ToolkitPro1501vc60S:XTPMouseManager.obj
 0001:0009c390       ??_ECTrustedArray@CXTPMouseManager@@UAEPAXI@Z 0049d390 f i ToolkitPro1501vc60S:XTPMouseManager.obj
 0001:0009c390       ??_GCTrustedArray@CXTPMouseManager@@UAEPAXI@Z 0049d390 f i ToolkitPro1501vc60S:XTPMouseManager.obj
 0001:0009c3b0       ??1CXTPMouseManager@@UAE@XZ 0049d3b0 f   ToolkitPro1501vc60S:XTPMouseManager.obj
